

Microchip Technology PIC PRO Macro Assembler V1.42 build -159332390 
                                                                                               Thu Jun 22 23:39:33 2017

Microchip Technology Omniscient Code Generator v1.42 (PRO mode) build 201704130522
     1                           	processor	16F1827
     2                           	opt	pw 120
     3                           	opt	pm
     4                           	psect	stringtext1,global,class=STRCODE,delta=2
     5                           	psect	stringtext2,global,class=STRCODE,delta=2
     6                           	psect	stringtext3,global,class=STRCODE,delta=2
     7                           	psect	stringtext4,global,class=STRCODE,delta=2
     8                           	psect	stringtext5,global,class=STRCODE,delta=2
     9                           	psect	stringtext6,global,class=STRCODE,delta=2
    10                           	psect	stringtext7,global,class=STRCODE,delta=2
    11                           	psect	cinit,global,class=CODE,merge=1,delta=2
    12                           	psect	bitbssBANK0,global,bit,class=BANK0,space=1,delta=1
    13                           	psect	bssBANK0,global,class=BANK0,space=1,delta=1
    14                           	psect	clrtext,global,class=CODE,delta=2
    15                           	psect	cstackCOMMON,global,class=COMMON,space=1,delta=1
    16                           	psect	swtext1,local,class=CONST,delta=2
    17                           	psect	intentry,global,class=CODE,delta=2
    18                           	psect	text20,local,class=CODE,merge=1,delta=2
    19                           	psect	text21,local,class=CODE,merge=1,delta=2
    20                           	psect	text22,local,class=CODE,merge=1,delta=2
    21                           	psect	pa_nodes0,global,class=CODE,delta=2
    22                           	dabs	1,0x7E,2
    23  0000                     
    24                           ; Version 1.42
    25                           ; Generated 13/04/2017 GMT
    26                           ; 
    27                           ; Copyright © 2017, Microchip Technology Inc. and its subsidiaries ("Microchip")
    28                           ; All rights reserved.
    29                           ; 
    30                           ; This software is developed by Microchip Technology Inc. and its subsidiaries ("Microch
      +                          ip").
    31                           ; 
    32                           ; Redistribution and use in source and binary forms, with or without modification, are
    33                           ; permitted provided that the following conditions are met:
    34                           ; 
    35                           ;     1. Redistributions of source code must retain the above copyright notice, this lis
      +                          t of
    36                           ;        conditions and the following disclaimer.
    37                           ; 
    38                           ;     2. Redistributions in binary form must reproduce the above copyright notice, this 
      +                          list
    39                           ;        of conditions and the following disclaimer in the documentation and/or other
    40                           ;        materials provided with the distribution.
    41                           ; 
    42                           ;     3. Microchip's name may not be used to endorse or promote products derived from th
      +                          is
    43                           ;        software without specific prior written permission.
    44                           ; 
    45                           ; THIS SOFTWARE IS PROVIDED BY MICROCHIP "AS IS" AND ANY EXPRESS OR IMPLIED WARRANTIES,
    46                           ; INCLUDING, BUT NOT LIMITED TO, THE IMPLIED WARRANTIES OF MERCHANTABILITY AND FITNESS F
      +                          OR
    47                           ; PURPOSE ARE DISCLAIMED.  IN NO EVENT SHALL MICROCHIP BE LIABLE FOR ANY DIRECT, INDIREC
      +                          T,
    48                           ; INCIDENTAL, SPECIAL, EXEMPLARY, OR CONSEQUENTIAL DAMAGES (INCLUDING BUT NOT LIMITED TO
    49                           ; PROCUREMENT OF SUBSTITUTE GOODS OR SERVICES; LOSS OF USE, DATA OR PROFITS; OR BUSINESS
    50                           ; INTERRUPTION) HOWSOEVER CAUSED AND ON ANY THEORY OF LIABILITY, WHETHER IN CONTRACT, ST
      +                          RICT
    51                           ; LIABILITY, OR TORT (INCLUDING NEGLIGENCE OR OTHERWISE) ARISING IN ANY WAY OUT OF THE U
      +                          SE OF
    52                           ; THIS SOFTWARE, EVEN IF ADVISED OF THE POSSIBILITY OF SUCH DAMAGE.
    53                           ; 
    54                           ; 
    55                           ; Code-generator required, PIC16F1827 Definitions
    56                           ; 
    57                           ; SFR Addresses
    58  0000                     	;# 
    59  0001                     	;# 
    60  0002                     	;# 
    61  0003                     	;# 
    62  0004                     	;# 
    63  0005                     	;# 
    64  0006                     	;# 
    65  0007                     	;# 
    66  0008                     	;# 
    67  0009                     	;# 
    68  000A                     	;# 
    69  000B                     	;# 
    70  000C                     	;# 
    71  000D                     	;# 
    72  0011                     	;# 
    73  0012                     	;# 
    74  0013                     	;# 
    75  0014                     	;# 
    76  0015                     	;# 
    77  0016                     	;# 
    78  0016                     	;# 
    79  0017                     	;# 
    80  0018                     	;# 
    81  0019                     	;# 
    82  001A                     	;# 
    83  001B                     	;# 
    84  001C                     	;# 
    85  001E                     	;# 
    86  001F                     	;# 
    87  008C                     	;# 
    88  008D                     	;# 
    89  0091                     	;# 
    90  0092                     	;# 
    91  0093                     	;# 
    92  0094                     	;# 
    93  0095                     	;# 
    94  0096                     	;# 
    95  0097                     	;# 
    96  0098                     	;# 
    97  0099                     	;# 
    98  009A                     	;# 
    99  009B                     	;# 
   100  009B                     	;# 
   101  009C                     	;# 
   102  009D                     	;# 
   103  009E                     	;# 
   104  010C                     	;# 
   105  010D                     	;# 
   106  0111                     	;# 
   107  0112                     	;# 
   108  0113                     	;# 
   109  0114                     	;# 
   110  0115                     	;# 
   111  0116                     	;# 
   112  0117                     	;# 
   113  0118                     	;# 
   114  0119                     	;# 
   115  011A                     	;# 
   116  011B                     	;# 
   117  011D                     	;# 
   118  011E                     	;# 
   119  018C                     	;# 
   120  018D                     	;# 
   121  0191                     	;# 
   122  0191                     	;# 
   123  0192                     	;# 
   124  0193                     	;# 
   125  0193                     	;# 
   126  0193                     	;# 
   127  0194                     	;# 
   128  0195                     	;# 
   129  0196                     	;# 
   130  0199                     	;# 
   131  019A                     	;# 
   132  019B                     	;# 
   133  019B                     	;# 
   134  019B                     	;# 
   135  019B                     	;# 
   136  019C                     	;# 
   137  019C                     	;# 
   138  019D                     	;# 
   139  019E                     	;# 
   140  019F                     	;# 
   141  020C                     	;# 
   142  020D                     	;# 
   143  0211                     	;# 
   144  0211                     	;# 
   145  0212                     	;# 
   146  0212                     	;# 
   147  0213                     	;# 
   148  0213                     	;# 
   149  0214                     	;# 
   150  0214                     	;# 
   151  0215                     	;# 
   152  0215                     	;# 
   153  0215                     	;# 
   154  0216                     	;# 
   155  0216                     	;# 
   156  0217                     	;# 
   157  0217                     	;# 
   158  0219                     	;# 
   159  021A                     	;# 
   160  021B                     	;# 
   161  021C                     	;# 
   162  021D                     	;# 
   163  021E                     	;# 
   164  021F                     	;# 
   165  0291                     	;# 
   166  0291                     	;# 
   167  0292                     	;# 
   168  0293                     	;# 
   169  0294                     	;# 
   170  0295                     	;# 
   171  0295                     	;# 
   172  0296                     	;# 
   173  0298                     	;# 
   174  0298                     	;# 
   175  0299                     	;# 
   176  029A                     	;# 
   177  029B                     	;# 
   178  029C                     	;# 
   179  029C                     	;# 
   180  029D                     	;# 
   181  029E                     	;# 
   182  029E                     	;# 
   183  0311                     	;# 
   184  0311                     	;# 
   185  0312                     	;# 
   186  0313                     	;# 
   187  0318                     	;# 
   188  0318                     	;# 
   189  0319                     	;# 
   190  031A                     	;# 
   191  0394                     	;# 
   192  0395                     	;# 
   193  0396                     	;# 
   194  039A                     	;# 
   195  039C                     	;# 
   196  039D                     	;# 
   197  039E                     	;# 
   198  039F                     	;# 
   199  0415                     	;# 
   200  0416                     	;# 
   201  0417                     	;# 
   202  041C                     	;# 
   203  041D                     	;# 
   204  041E                     	;# 
   205  0FE4                     	;# 
   206  0FE5                     	;# 
   207  0FE6                     	;# 
   208  0FE7                     	;# 
   209  0FE8                     	;# 
   210  0FE9                     	;# 
   211  0FEA                     	;# 
   212  0FEB                     	;# 
   213  0FED                     	;# 
   214  0FEE                     	;# 
   215  0FEF                     	;# 
   216  0000                     	;# 
   217  0001                     	;# 
   218  0002                     	;# 
   219  0003                     	;# 
   220  0004                     	;# 
   221  0005                     	;# 
   222  0006                     	;# 
   223  0007                     	;# 
   224  0008                     	;# 
   225  0009                     	;# 
   226  000A                     	;# 
   227  000B                     	;# 
   228  000C                     	;# 
   229  000D                     	;# 
   230  0011                     	;# 
   231  0012                     	;# 
   232  0013                     	;# 
   233  0014                     	;# 
   234  0015                     	;# 
   235  0016                     	;# 
   236  0016                     	;# 
   237  0017                     	;# 
   238  0018                     	;# 
   239  0019                     	;# 
   240  001A                     	;# 
   241  001B                     	;# 
   242  001C                     	;# 
   243  001E                     	;# 
   244  001F                     	;# 
   245  008C                     	;# 
   246  008D                     	;# 
   247  0091                     	;# 
   248  0092                     	;# 
   249  0093                     	;# 
   250  0094                     	;# 
   251  0095                     	;# 
   252  0096                     	;# 
   253  0097                     	;# 
   254  0098                     	;# 
   255  0099                     	;# 
   256  009A                     	;# 
   257  009B                     	;# 
   258  009B                     	;# 
   259  009C                     	;# 
   260  009D                     	;# 
   261  009E                     	;# 
   262  010C                     	;# 
   263  010D                     	;# 
   264  0111                     	;# 
   265  0112                     	;# 
   266  0113                     	;# 
   267  0114                     	;# 
   268  0115                     	;# 
   269  0116                     	;# 
   270  0117                     	;# 
   271  0118                     	;# 
   272  0119                     	;# 
   273  011A                     	;# 
   274  011B                     	;# 
   275  011D                     	;# 
   276  011E                     	;# 
   277  018C                     	;# 
   278  018D                     	;# 
   279  0191                     	;# 
   280  0191                     	;# 
   281  0192                     	;# 
   282  0193                     	;# 
   283  0193                     	;# 
   284  0193                     	;# 
   285  0194                     	;# 
   286  0195                     	;# 
   287  0196                     	;# 
   288  0199                     	;# 
   289  019A                     	;# 
   290  019B                     	;# 
   291  019B                     	;# 
   292  019B                     	;# 
   293  019B                     	;# 
   294  019C                     	;# 
   295  019C                     	;# 
   296  019D                     	;# 
   297  019E                     	;# 
   298  019F                     	;# 
   299  020C                     	;# 
   300  020D                     	;# 
   301  0211                     	;# 
   302  0211                     	;# 
   303  0212                     	;# 
   304  0212                     	;# 
   305  0213                     	;# 
   306  0213                     	;# 
   307  0214                     	;# 
   308  0214                     	;# 
   309  0215                     	;# 
   310  0215                     	;# 
   311  0215                     	;# 
   312  0216                     	;# 
   313  0216                     	;# 
   314  0217                     	;# 
   315  0217                     	;# 
   316  0219                     	;# 
   317  021A                     	;# 
   318  021B                     	;# 
   319  021C                     	;# 
   320  021D                     	;# 
   321  021E                     	;# 
   322  021F                     	;# 
   323  0291                     	;# 
   324  0291                     	;# 
   325  0292                     	;# 
   326  0293                     	;# 
   327  0294                     	;# 
   328  0295                     	;# 
   329  0295                     	;# 
   330  0296                     	;# 
   331  0298                     	;# 
   332  0298                     	;# 
   333  0299                     	;# 
   334  029A                     	;# 
   335  029B                     	;# 
   336  029C                     	;# 
   337  029C                     	;# 
   338  029D                     	;# 
   339  029E                     	;# 
   340  029E                     	;# 
   341  0311                     	;# 
   342  0311                     	;# 
   343  0312                     	;# 
   344  0313                     	;# 
   345  0318                     	;# 
   346  0318                     	;# 
   347  0319                     	;# 
   348  031A                     	;# 
   349  0394                     	;# 
   350  0395                     	;# 
   351  0396                     	;# 
   352  039A                     	;# 
   353  039C                     	;# 
   354  039D                     	;# 
   355  039E                     	;# 
   356  039F                     	;# 
   357  0415                     	;# 
   358  0416                     	;# 
   359  0417                     	;# 
   360  041C                     	;# 
   361  041D                     	;# 
   362  041E                     	;# 
   363  0FE4                     	;# 
   364  0FE5                     	;# 
   365  0FE6                     	;# 
   366  0FE7                     	;# 
   367  0FE8                     	;# 
   368  0FE9                     	;# 
   369  0FEA                     	;# 
   370  0FEB                     	;# 
   371  0FED                     	;# 
   372  0FEE                     	;# 
   373  0FEF                     	;# 
   374  0000                     	;# 
   375  0001                     	;# 
   376  0002                     	;# 
   377  0003                     	;# 
   378  0004                     	;# 
   379  0005                     	;# 
   380  0006                     	;# 
   381  0007                     	;# 
   382  0008                     	;# 
   383  0009                     	;# 
   384  000A                     	;# 
   385  000B                     	;# 
   386  000C                     	;# 
   387  000D                     	;# 
   388  0011                     	;# 
   389  0012                     	;# 
   390  0013                     	;# 
   391  0014                     	;# 
   392  0015                     	;# 
   393  0016                     	;# 
   394  0016                     	;# 
   395  0017                     	;# 
   396  0018                     	;# 
   397  0019                     	;# 
   398  001A                     	;# 
   399  001B                     	;# 
   400  001C                     	;# 
   401  001E                     	;# 
   402  001F                     	;# 
   403  008C                     	;# 
   404  008D                     	;# 
   405  0091                     	;# 
   406  0092                     	;# 
   407  0093                     	;# 
   408  0094                     	;# 
   409  0095                     	;# 
   410  0096                     	;# 
   411  0097                     	;# 
   412  0098                     	;# 
   413  0099                     	;# 
   414  009A                     	;# 
   415  009B                     	;# 
   416  009B                     	;# 
   417  009C                     	;# 
   418  009D                     	;# 
   419  009E                     	;# 
   420  010C                     	;# 
   421  010D                     	;# 
   422  0111                     	;# 
   423  0112                     	;# 
   424  0113                     	;# 
   425  0114                     	;# 
   426  0115                     	;# 
   427  0116                     	;# 
   428  0117                     	;# 
   429  0118                     	;# 
   430  0119                     	;# 
   431  011A                     	;# 
   432  011B                     	;# 
   433  011D                     	;# 
   434  011E                     	;# 
   435  018C                     	;# 
   436  018D                     	;# 
   437  0191                     	;# 
   438  0191                     	;# 
   439  0192                     	;# 
   440  0193                     	;# 
   441  0193                     	;# 
   442  0193                     	;# 
   443  0194                     	;# 
   444  0195                     	;# 
   445  0196                     	;# 
   446  0199                     	;# 
   447  019A                     	;# 
   448  019B                     	;# 
   449  019B                     	;# 
   450  019B                     	;# 
   451  019B                     	;# 
   452  019C                     	;# 
   453  019C                     	;# 
   454  019D                     	;# 
   455  019E                     	;# 
   456  019F                     	;# 
   457  020C                     	;# 
   458  020D                     	;# 
   459  0211                     	;# 
   460  0211                     	;# 
   461  0212                     	;# 
   462  0212                     	;# 
   463  0213                     	;# 
   464  0213                     	;# 
   465  0214                     	;# 
   466  0214                     	;# 
   467  0215                     	;# 
   468  0215                     	;# 
   469  0215                     	;# 
   470  0216                     	;# 
   471  0216                     	;# 
   472  0217                     	;# 
   473  0217                     	;# 
   474  0219                     	;# 
   475  021A                     	;# 
   476  021B                     	;# 
   477  021C                     	;# 
   478  021D                     	;# 
   479  021E                     	;# 
   480  021F                     	;# 
   481  0291                     	;# 
   482  0291                     	;# 
   483  0292                     	;# 
   484  0293                     	;# 
   485  0294                     	;# 
   486  0295                     	;# 
   487  0295                     	;# 
   488  0296                     	;# 
   489  0298                     	;# 
   490  0298                     	;# 
   491  0299                     	;# 
   492  029A                     	;# 
   493  029B                     	;# 
   494  029C                     	;# 
   495  029C                     	;# 
   496  029D                     	;# 
   497  029E                     	;# 
   498  029E                     	;# 
   499  0311                     	;# 
   500  0311                     	;# 
   501  0312                     	;# 
   502  0313                     	;# 
   503  0318                     	;# 
   504  0318                     	;# 
   505  0319                     	;# 
   506  031A                     	;# 
   507  0394                     	;# 
   508  0395                     	;# 
   509  0396                     	;# 
   510  039A                     	;# 
   511  039C                     	;# 
   512  039D                     	;# 
   513  039E                     	;# 
   514  039F                     	;# 
   515  0415                     	;# 
   516  0416                     	;# 
   517  0417                     	;# 
   518  041C                     	;# 
   519  041D                     	;# 
   520  041E                     	;# 
   521  0FE4                     	;# 
   522  0FE5                     	;# 
   523  0FE6                     	;# 
   524  0FE7                     	;# 
   525  0FE8                     	;# 
   526  0FE9                     	;# 
   527  0FEA                     	;# 
   528  0FEB                     	;# 
   529  0FED                     	;# 
   530  0FEE                     	;# 
   531  0FEF                     	;# 
   532  0000                     	;# 
   533  0001                     	;# 
   534  0002                     	;# 
   535  0003                     	;# 
   536  0004                     	;# 
   537  0005                     	;# 
   538  0006                     	;# 
   539  0007                     	;# 
   540  0008                     	;# 
   541  0009                     	;# 
   542  000A                     	;# 
   543  000B                     	;# 
   544  000C                     	;# 
   545  000D                     	;# 
   546  0011                     	;# 
   547  0012                     	;# 
   548  0013                     	;# 
   549  0014                     	;# 
   550  0015                     	;# 
   551  0016                     	;# 
   552  0016                     	;# 
   553  0017                     	;# 
   554  0018                     	;# 
   555  0019                     	;# 
   556  001A                     	;# 
   557  001B                     	;# 
   558  001C                     	;# 
   559  001E                     	;# 
   560  001F                     	;# 
   561  008C                     	;# 
   562  008D                     	;# 
   563  0091                     	;# 
   564  0092                     	;# 
   565  0093                     	;# 
   566  0094                     	;# 
   567  0095                     	;# 
   568  0096                     	;# 
   569  0097                     	;# 
   570  0098                     	;# 
   571  0099                     	;# 
   572  009A                     	;# 
   573  009B                     	;# 
   574  009B                     	;# 
   575  009C                     	;# 
   576  009D                     	;# 
   577  009E                     	;# 
   578  010C                     	;# 
   579  010D                     	;# 
   580  0111                     	;# 
   581  0112                     	;# 
   582  0113                     	;# 
   583  0114                     	;# 
   584  0115                     	;# 
   585  0116                     	;# 
   586  0117                     	;# 
   587  0118                     	;# 
   588  0119                     	;# 
   589  011A                     	;# 
   590  011B                     	;# 
   591  011D                     	;# 
   592  011E                     	;# 
   593  018C                     	;# 
   594  018D                     	;# 
   595  0191                     	;# 
   596  0191                     	;# 
   597  0192                     	;# 
   598  0193                     	;# 
   599  0193                     	;# 
   600  0193                     	;# 
   601  0194                     	;# 
   602  0195                     	;# 
   603  0196                     	;# 
   604  0199                     	;# 
   605  019A                     	;# 
   606  019B                     	;# 
   607  019B                     	;# 
   608  019B                     	;# 
   609  019B                     	;# 
   610  019C                     	;# 
   611  019C                     	;# 
   612  019D                     	;# 
   613  019E                     	;# 
   614  019F                     	;# 
   615  020C                     	;# 
   616  020D                     	;# 
   617  0211                     	;# 
   618  0211                     	;# 
   619  0212                     	;# 
   620  0212                     	;# 
   621  0213                     	;# 
   622  0213                     	;# 
   623  0214                     	;# 
   624  0214                     	;# 
   625  0215                     	;# 
   626  0215                     	;# 
   627  0215                     	;# 
   628  0216                     	;# 
   629  0216                     	;# 
   630  0217                     	;# 
   631  0217                     	;# 
   632  0219                     	;# 
   633  021A                     	;# 
   634  021B                     	;# 
   635  021C                     	;# 
   636  021D                     	;# 
   637  021E                     	;# 
   638  021F                     	;# 
   639  0291                     	;# 
   640  0291                     	;# 
   641  0292                     	;# 
   642  0293                     	;# 
   643  0294                     	;# 
   644  0295                     	;# 
   645  0295                     	;# 
   646  0296                     	;# 
   647  0298                     	;# 
   648  0298                     	;# 
   649  0299                     	;# 
   650  029A                     	;# 
   651  029B                     	;# 
   652  029C                     	;# 
   653  029C                     	;# 
   654  029D                     	;# 
   655  029E                     	;# 
   656  029E                     	;# 
   657  0311                     	;# 
   658  0311                     	;# 
   659  0312                     	;# 
   660  0313                     	;# 
   661  0318                     	;# 
   662  0318                     	;# 
   663  0319                     	;# 
   664  031A                     	;# 
   665  0394                     	;# 
   666  0395                     	;# 
   667  0396                     	;# 
   668  039A                     	;# 
   669  039C                     	;# 
   670  039D                     	;# 
   671  039E                     	;# 
   672  039F                     	;# 
   673  0415                     	;# 
   674  0416                     	;# 
   675  0417                     	;# 
   676  041C                     	;# 
   677  041D                     	;# 
   678  041E                     	;# 
   679  0FE4                     	;# 
   680  0FE5                     	;# 
   681  0FE6                     	;# 
   682  0FE7                     	;# 
   683  0FE8                     	;# 
   684  0FE9                     	;# 
   685  0FEA                     	;# 
   686  0FEB                     	;# 
   687  0FED                     	;# 
   688  0FEE                     	;# 
   689  0FEF                     	;# 
   690  0000                     	;# 
   691  0001                     	;# 
   692  0002                     	;# 
   693  0003                     	;# 
   694  0004                     	;# 
   695  0005                     	;# 
   696  0006                     	;# 
   697  0007                     	;# 
   698  0008                     	;# 
   699  0009                     	;# 
   700  000A                     	;# 
   701  000B                     	;# 
   702  000C                     	;# 
   703  000D                     	;# 
   704  0011                     	;# 
   705  0012                     	;# 
   706  0013                     	;# 
   707  0014                     	;# 
   708  0015                     	;# 
   709  0016                     	;# 
   710  0016                     	;# 
   711  0017                     	;# 
   712  0018                     	;# 
   713  0019                     	;# 
   714  001A                     	;# 
   715  001B                     	;# 
   716  001C                     	;# 
   717  001E                     	;# 
   718  001F                     	;# 
   719  008C                     	;# 
   720  008D                     	;# 
   721  0091                     	;# 
   722  0092                     	;# 
   723  0093                     	;# 
   724  0094                     	;# 
   725  0095                     	;# 
   726  0096                     	;# 
   727  0097                     	;# 
   728  0098                     	;# 
   729  0099                     	;# 
   730  009A                     	;# 
   731  009B                     	;# 
   732  009B                     	;# 
   733  009C                     	;# 
   734  009D                     	;# 
   735  009E                     	;# 
   736  010C                     	;# 
   737  010D                     	;# 
   738  0111                     	;# 
   739  0112                     	;# 
   740  0113                     	;# 
   741  0114                     	;# 
   742  0115                     	;# 
   743  0116                     	;# 
   744  0117                     	;# 
   745  0118                     	;# 
   746  0119                     	;# 
   747  011A                     	;# 
   748  011B                     	;# 
   749  011D                     	;# 
   750  011E                     	;# 
   751  018C                     	;# 
   752  018D                     	;# 
   753  0191                     	;# 
   754  0191                     	;# 
   755  0192                     	;# 
   756  0193                     	;# 
   757  0193                     	;# 
   758  0193                     	;# 
   759  0194                     	;# 
   760  0195                     	;# 
   761  0196                     	;# 
   762  0199                     	;# 
   763  019A                     	;# 
   764  019B                     	;# 
   765  019B                     	;# 
   766  019B                     	;# 
   767  019B                     	;# 
   768  019C                     	;# 
   769  019C                     	;# 
   770  019D                     	;# 
   771  019E                     	;# 
   772  019F                     	;# 
   773  020C                     	;# 
   774  020D                     	;# 
   775  0211                     	;# 
   776  0211                     	;# 
   777  0212                     	;# 
   778  0212                     	;# 
   779  0213                     	;# 
   780  0213                     	;# 
   781  0214                     	;# 
   782  0214                     	;# 
   783  0215                     	;# 
   784  0215                     	;# 
   785  0215                     	;# 
   786  0216                     	;# 
   787  0216                     	;# 
   788  0217                     	;# 
   789  0217                     	;# 
   790  0219                     	;# 
   791  021A                     	;# 
   792  021B                     	;# 
   793  021C                     	;# 
   794  021D                     	;# 
   795  021E                     	;# 
   796  021F                     	;# 
   797  0291                     	;# 
   798  0291                     	;# 
   799  0292                     	;# 
   800  0293                     	;# 
   801  0294                     	;# 
   802  0295                     	;# 
   803  0295                     	;# 
   804  0296                     	;# 
   805  0298                     	;# 
   806  0298                     	;# 
   807  0299                     	;# 
   808  029A                     	;# 
   809  029B                     	;# 
   810  029C                     	;# 
   811  029C                     	;# 
   812  029D                     	;# 
   813  029E                     	;# 
   814  029E                     	;# 
   815  0311                     	;# 
   816  0311                     	;# 
   817  0312                     	;# 
   818  0313                     	;# 
   819  0318                     	;# 
   820  0318                     	;# 
   821  0319                     	;# 
   822  031A                     	;# 
   823  0394                     	;# 
   824  0395                     	;# 
   825  0396                     	;# 
   826  039A                     	;# 
   827  039C                     	;# 
   828  039D                     	;# 
   829  039E                     	;# 
   830  039F                     	;# 
   831  0415                     	;# 
   832  0416                     	;# 
   833  0417                     	;# 
   834  041C                     	;# 
   835  041D                     	;# 
   836  041E                     	;# 
   837  0FE4                     	;# 
   838  0FE5                     	;# 
   839  0FE6                     	;# 
   840  0FE7                     	;# 
   841  0FE8                     	;# 
   842  0FE9                     	;# 
   843  0FEA                     	;# 
   844  0FEB                     	;# 
   845  0FED                     	;# 
   846  0FEE                     	;# 
   847  0FEF                     	;# 
   848  0000                     	;# 
   849  0001                     	;# 
   850  0002                     	;# 
   851  0003                     	;# 
   852  0004                     	;# 
   853  0005                     	;# 
   854  0006                     	;# 
   855  0007                     	;# 
   856  0008                     	;# 
   857  0009                     	;# 
   858  000A                     	;# 
   859  000B                     	;# 
   860  000C                     	;# 
   861  000D                     	;# 
   862  0011                     	;# 
   863  0012                     	;# 
   864  0013                     	;# 
   865  0014                     	;# 
   866  0015                     	;# 
   867  0016                     	;# 
   868  0016                     	;# 
   869  0017                     	;# 
   870  0018                     	;# 
   871  0019                     	;# 
   872  001A                     	;# 
   873  001B                     	;# 
   874  001C                     	;# 
   875  001E                     	;# 
   876  001F                     	;# 
   877  008C                     	;# 
   878  008D                     	;# 
   879  0091                     	;# 
   880  0092                     	;# 
   881  0093                     	;# 
   882  0094                     	;# 
   883  0095                     	;# 
   884  0096                     	;# 
   885  0097                     	;# 
   886  0098                     	;# 
   887  0099                     	;# 
   888  009A                     	;# 
   889  009B                     	;# 
   890  009B                     	;# 
   891  009C                     	;# 
   892  009D                     	;# 
   893  009E                     	;# 
   894  010C                     	;# 
   895  010D                     	;# 
   896  0111                     	;# 
   897  0112                     	;# 
   898  0113                     	;# 
   899  0114                     	;# 
   900  0115                     	;# 
   901  0116                     	;# 
   902  0117                     	;# 
   903  0118                     	;# 
   904  0119                     	;# 
   905  011A                     	;# 
   906  011B                     	;# 
   907  011D                     	;# 
   908  011E                     	;# 
   909  018C                     	;# 
   910  018D                     	;# 
   911  0191                     	;# 
   912  0191                     	;# 
   913  0192                     	;# 
   914  0193                     	;# 
   915  0193                     	;# 
   916  0193                     	;# 
   917  0194                     	;# 
   918  0195                     	;# 
   919  0196                     	;# 
   920  0199                     	;# 
   921  019A                     	;# 
   922  019B                     	;# 
   923  019B                     	;# 
   924  019B                     	;# 
   925  019B                     	;# 
   926  019C                     	;# 
   927  019C                     	;# 
   928  019D                     	;# 
   929  019E                     	;# 
   930  019F                     	;# 
   931  020C                     	;# 
   932  020D                     	;# 
   933  0211                     	;# 
   934  0211                     	;# 
   935  0212                     	;# 
   936  0212                     	;# 
   937  0213                     	;# 
   938  0213                     	;# 
   939  0214                     	;# 
   940  0214                     	;# 
   941  0215                     	;# 
   942  0215                     	;# 
   943  0215                     	;# 
   944  0216                     	;# 
   945  0216                     	;# 
   946  0217                     	;# 
   947  0217                     	;# 
   948  0219                     	;# 
   949  021A                     	;# 
   950  021B                     	;# 
   951  021C                     	;# 
   952  021D                     	;# 
   953  021E                     	;# 
   954  021F                     	;# 
   955  0291                     	;# 
   956  0291                     	;# 
   957  0292                     	;# 
   958  0293                     	;# 
   959  0294                     	;# 
   960  0295                     	;# 
   961  0295                     	;# 
   962  0296                     	;# 
   963  0298                     	;# 
   964  0298                     	;# 
   965  0299                     	;# 
   966  029A                     	;# 
   967  029B                     	;# 
   968  029C                     	;# 
   969  029C                     	;# 
   970  029D                     	;# 
   971  029E                     	;# 
   972  029E                     	;# 
   973  0311                     	;# 
   974  0311                     	;# 
   975  0312                     	;# 
   976  0313                     	;# 
   977  0318                     	;# 
   978  0318                     	;# 
   979  0319                     	;# 
   980  031A                     	;# 
   981  0394                     	;# 
   982  0395                     	;# 
   983  0396                     	;# 
   984  039A                     	;# 
   985  039C                     	;# 
   986  039D                     	;# 
   987  039E                     	;# 
   988  039F                     	;# 
   989  0415                     	;# 
   990  0416                     	;# 
   991  0417                     	;# 
   992  041C                     	;# 
   993  041D                     	;# 
   994  041E                     	;# 
   995  0FE4                     	;# 
   996  0FE5                     	;# 
   997  0FE6                     	;# 
   998  0FE7                     	;# 
   999  0FE8                     	;# 
  1000  0FE9                     	;# 
  1001  0FEA                     	;# 
  1002  0FEB                     	;# 
  1003  0FED                     	;# 
  1004  0FEE                     	;# 
  1005  0FEF                     	;# 
  1006  0000                     	;# 
  1007  0001                     	;# 
  1008  0002                     	;# 
  1009  0003                     	;# 
  1010  0004                     	;# 
  1011  0005                     	;# 
  1012  0006                     	;# 
  1013  0007                     	;# 
  1014  0008                     	;# 
  1015  0009                     	;# 
  1016  000A                     	;# 
  1017  000B                     	;# 
  1018  000C                     	;# 
  1019  000D                     	;# 
  1020  0011                     	;# 
  1021  0012                     	;# 
  1022  0013                     	;# 
  1023  0014                     	;# 
  1024  0015                     	;# 
  1025  0016                     	;# 
  1026  0016                     	;# 
  1027  0017                     	;# 
  1028  0018                     	;# 
  1029  0019                     	;# 
  1030  001A                     	;# 
  1031  001B                     	;# 
  1032  001C                     	;# 
  1033  001E                     	;# 
  1034  001F                     	;# 
  1035  008C                     	;# 
  1036  008D                     	;# 
  1037  0091                     	;# 
  1038  0092                     	;# 
  1039  0093                     	;# 
  1040  0094                     	;# 
  1041  0095                     	;# 
  1042  0096                     	;# 
  1043  0097                     	;# 
  1044  0098                     	;# 
  1045  0099                     	;# 
  1046  009A                     	;# 
  1047  009B                     	;# 
  1048  009B                     	;# 
  1049  009C                     	;# 
  1050  009D                     	;# 
  1051  009E                     	;# 
  1052  010C                     	;# 
  1053  010D                     	;# 
  1054  0111                     	;# 
  1055  0112                     	;# 
  1056  0113                     	;# 
  1057  0114                     	;# 
  1058  0115                     	;# 
  1059  0116                     	;# 
  1060  0117                     	;# 
  1061  0118                     	;# 
  1062  0119                     	;# 
  1063  011A                     	;# 
  1064  011B                     	;# 
  1065  011D                     	;# 
  1066  011E                     	;# 
  1067  018C                     	;# 
  1068  018D                     	;# 
  1069  0191                     	;# 
  1070  0191                     	;# 
  1071  0192                     	;# 
  1072  0193                     	;# 
  1073  0193                     	;# 
  1074  0193                     	;# 
  1075  0194                     	;# 
  1076  0195                     	;# 
  1077  0196                     	;# 
  1078  0199                     	;# 
  1079  019A                     	;# 
  1080  019B                     	;# 
  1081  019B                     	;# 
  1082  019B                     	;# 
  1083  019B                     	;# 
  1084  019C                     	;# 
  1085  019C                     	;# 
  1086  019D                     	;# 
  1087  019E                     	;# 
  1088  019F                     	;# 
  1089  020C                     	;# 
  1090  020D                     	;# 
  1091  0211                     	;# 
  1092  0211                     	;# 
  1093  0212                     	;# 
  1094  0212                     	;# 
  1095  0213                     	;# 
  1096  0213                     	;# 
  1097  0214                     	;# 
  1098  0214                     	;# 
  1099  0215                     	;# 
  1100  0215                     	;# 
  1101  0215                     	;# 
  1102  0216                     	;# 
  1103  0216                     	;# 
  1104  0217                     	;# 
  1105  0217                     	;# 
  1106  0219                     	;# 
  1107  021A                     	;# 
  1108  021B                     	;# 
  1109  021C                     	;# 
  1110  021D                     	;# 
  1111  021E                     	;# 
  1112  021F                     	;# 
  1113  0291                     	;# 
  1114  0291                     	;# 
  1115  0292                     	;# 
  1116  0293                     	;# 
  1117  0294                     	;# 
  1118  0295                     	;# 
  1119  0295                     	;# 
  1120  0296                     	;# 
  1121  0298                     	;# 
  1122  0298                     	;# 
  1123  0299                     	;# 
  1124  029A                     	;# 
  1125  029B                     	;# 
  1126  029C                     	;# 
  1127  029C                     	;# 
  1128  029D                     	;# 
  1129  029E                     	;# 
  1130  029E                     	;# 
  1131  0311                     	;# 
  1132  0311                     	;# 
  1133  0312                     	;# 
  1134  0313                     	;# 
  1135  0318                     	;# 
  1136  0318                     	;# 
  1137  0319                     	;# 
  1138  031A                     	;# 
  1139  0394                     	;# 
  1140  0395                     	;# 
  1141  0396                     	;# 
  1142  039A                     	;# 
  1143  039C                     	;# 
  1144  039D                     	;# 
  1145  039E                     	;# 
  1146  039F                     	;# 
  1147  0415                     	;# 
  1148  0416                     	;# 
  1149  0417                     	;# 
  1150  041C                     	;# 
  1151  041D                     	;# 
  1152  041E                     	;# 
  1153  0FE4                     	;# 
  1154  0FE5                     	;# 
  1155  0FE6                     	;# 
  1156  0FE7                     	;# 
  1157  0FE8                     	;# 
  1158  0FE9                     	;# 
  1159  0FEA                     	;# 
  1160  0FEB                     	;# 
  1161  0FED                     	;# 
  1162  0FEE                     	;# 
  1163  0FEF                     	;# 
  1164                           
  1165                           	psect	stringtext1
  1166  031E                     __pstringtext1:	
  1167  031E                     _tuslar:	
  1168  031E  3431               	retlw	49
  1169  031F  3432               	retlw	50
  1170  0320  3433               	retlw	51
  1171  0321  3441               	retlw	65
  1172  0322  3434               	retlw	52
  1173  0323  3435               	retlw	53
  1174  0324  3436               	retlw	54
  1175  0325  3442               	retlw	66
  1176  0326  3437               	retlw	55
  1177  0327  3438               	retlw	56
  1178  0328  3439               	retlw	57
  1179  0329  3443               	retlw	67
  1180  032A  342A               	retlw	42
  1181  032B  3430               	retlw	48
  1182  032C  3423               	retlw	35
  1183  032D  3444               	retlw	68
  1184  032E                     __end_of_tuslar:	
  1185  000D                     _PORTBbits	set	13
  1186  0013                     _PIR3bits	set	19
  1187  000B                     _INTCONbits	set	11
  1188  0093                     _PIE3bits	set	147
  1189  0095                     _OPTION_REGbits	set	149
  1190  008D                     _TRISB	set	141
  1191  008C                     _TRISA	set	140
  1192  0097                     _WDTCON	set	151
  1193  0098                     _OSCTUNE	set	152
  1194  0099                     _OSCCON	set	153
  1195  0466                     _TRISA6	set	1126
  1196  0467                     _TRISA7	set	1127
  1197  04D6                     _PLLR	set	1238
  1198  010D                     _LATBbits	set	269
  1199  011D                     _APFCON0	set	285
  1200  011E                     _APFCON1	set	286
  1201  010C                     _LATA	set	268
  1202  010D                     _LATB	set	269
  1203  0867                     _LATA7	set	2151
  1204  0866                     _LATA6	set	2150
  1205  018C                     _ANSELA	set	396
  1206  018D                     _ANSELB	set	397
  1207  020C                     _WPUA	set	524
  1208  020D                     _WPUB	set	525
  1209  041E                     _T6CONbits	set	1054
  1210  041C                     _TMR6	set	1052
  1211  041D                     _PR6	set	1053
  1212  041E                     _T6CON	set	1054
  1213  032E                     STR_1:	
  1214  032E  3420               	retlw	32	;' '
  1215  032F  3420               	retlw	32	;' '
  1216  0330  3420               	retlw	32	;' '
  1217  0331  3420               	retlw	32	;' '
  1218  0332  3420               	retlw	32	;' '
  1219  0333  3420               	retlw	32	;' '
  1220  0334  3420               	retlw	32	;' '
  1221  0335  3420               	retlw	32	;' '
  1222  0336  3420               	retlw	32	;' '
  1223  0337  3420               	retlw	32	;' '
  1224  0338  3420               	retlw	32	;' '
  1225  0339  3420               	retlw	32	;' '
  1226  033A  3420               	retlw	32	;' '
  1227  033B  3420               	retlw	32	;' '
  1228  033C  3420               	retlw	32	;' '
  1229  033D  3400               	retlw	0
  1230                           
  1231                           	psect	stringtext2
  1232  0350                     __pstringtext2:	
  1233  0350                     STR_2:	
  1234  0350  3434               	retlw	52	;'4'
  1235  0351  3478               	retlw	120	;'x'
  1236  0352  3434               	retlw	52	;'4'
  1237  0353  3420               	retlw	32	;' '
  1238  0354  3454               	retlw	84	;'T'
  1239  0355  3475               	retlw	117	;'u'
  1240  0356  3473               	retlw	115	;'s'
  1241  0357  3420               	retlw	32	;' '
  1242  0358  3454               	retlw	84	;'T'
  1243  0359  3461               	retlw	97	;'a'
  1244  035A  346B               	retlw	107	;'k'
  1245  035B  3469               	retlw	105	;'i'
  1246  035C  346D               	retlw	109	;'m'
  1247  035D  3469               	retlw	105	;'i'
  1248  035E  3400               	retlw	0
  1249                           
  1250                           	psect	stringtext3
  1251  035F                     __pstringtext3:	
  1252  035F                     STR_4:	
  1253  035F  3443               	retlw	67	;'C'
  1254  0360  3449               	retlw	73	;'I'
  1255  0361  3446               	retlw	70	;'F'
  1256  0362  3454               	retlw	84	;'T'
  1257  0363  3420               	retlw	32	;' '
  1258  0364  3454               	retlw	84	;'T'
  1259  0365  3449               	retlw	73	;'I'
  1260  0366  344B               	retlw	75	;'K'
  1261  0367  344C               	retlw	76	;'L'
  1262  0368  3441               	retlw	65	;'A'
  1263  0369  344D               	retlw	77	;'M'
  1264  036A  3441               	retlw	65	;'A'
  1265  036B  3400               	retlw	0
  1266                           
  1267                           	psect	stringtext4
  1268  036C                     __pstringtext4:	
  1269  036C                     STR_5:	
  1270  036C  344B               	retlw	75	;'K'
  1271  036D  3449               	retlw	73	;'I'
  1272  036E  3453               	retlw	83	;'S'
  1273  036F  3441               	retlw	65	;'A'
  1274  0370  3420               	retlw	32	;' '
  1275  0371  3442               	retlw	66	;'B'
  1276  0372  3441               	retlw	65	;'A'
  1277  0373  3453               	retlw	83	;'S'
  1278  0374  3449               	retlw	73	;'I'
  1279  0375  344C               	retlw	76	;'L'
  1280  0376  3444               	retlw	68	;'D'
  1281  0377  3449               	retlw	73	;'I'
  1282  0378  3400               	retlw	0
  1283                           
  1284                           	psect	stringtext5
  1285  0379                     __pstringtext5:	
  1286  0379                     STR_6:	
  1287  0379  3455               	retlw	85	;'U'
  1288  037A  345A               	retlw	90	;'Z'
  1289  037B  3455               	retlw	85	;'U'
  1290  037C  344E               	retlw	78	;'N'
  1291  037D  3420               	retlw	32	;' '
  1292  037E  3442               	retlw	66	;'B'
  1293  037F  3441               	retlw	65	;'A'
  1294  0380  3453               	retlw	83	;'S'
  1295  0381  3449               	retlw	73	;'I'
  1296  0382  344C               	retlw	76	;'L'
  1297  0383  3444               	retlw	68	;'D'
  1298  0384  3449               	retlw	73	;'I'
  1299  0385  3400               	retlw	0
  1300                           
  1301                           	psect	stringtext6
  1302  0391                     __pstringtext6:	
  1303  0391                     STR_7:	
  1304  0391  3442               	retlw	66	;'B'
  1305  0392  3449               	retlw	73	;'I'
  1306  0393  3452               	retlw	82	;'R'
  1307  0394  3441               	retlw	65	;'A'
  1308  0395  344B               	retlw	75	;'K'
  1309  0396  3449               	retlw	73	;'I'
  1310  0397  344C               	retlw	76	;'L'
  1311  0398  3444               	retlw	68	;'D'
  1312  0399  3449               	retlw	73	;'I'
  1313  039A  3400               	retlw	0
  1314                           
  1315                           	psect	stringtext7
  1316  0000                     __pstringtext7:	
  1317  0371                     
  1318                           ; #config settings
  1319  0000                     
  1320                           	psect	cinit
  1321  0014                     start_initialization:	
  1322  0014                     __initialization:	
  1323  0014  3020               	movlw	low __pbssBANK0
  1324                           
  1325                           ; Clear objects allocated to BITBANK0
  1326  0015  01B5               	clrf	(__pbitbssBANK0/(0+8))& (0+127)
  1327                           
  1328                           ; Clear objects allocated to BANK0
  1329  0016  0084               	movwf	4
  1330  0017  3000               	movlw	high __pbssBANK0
  1331  0018  0085               	movwf	5
  1332  0019  3015               	movlw	21
  1333  001A  3183  23A2  3180   	fcall	clear_ram0
  1334  001D                     end_of_initialization:	
  1335                           ;End of C runtime variable initialization code
  1336                           
  1337  001D                     __end_of__initialization:	
  1338  001D  107E               	bcf	126,0	;clear compiler interrupt flag (level 1)
  1339  001E  0020               	movlb	0
  1340  001F  2820               	ljmp	_main	;jump to C main() function
  1341  0020                     __pmaintext:	
  1342                           ; 1 bytes @ 0xE
  1343 ;;
  1344 ;;Main: autosize = 0, tempsize = 0, incstack = 0, save=0
  1345 ;;
  1346 ;; *************** function _main *****************
  1347 ;; Defined at:
  1348 ;;		line 64 in file "main.c"
  1349 ;; Parameters:    Size  Location     Type
  1350 ;;		None
  1351 ;; Auto vars:     Size  Location     Type
  1352 ;;		None
  1353 ;; Return value:  Size  Location     Type
  1354 ;;                  1    wreg      void 
  1355 ;; Registers used:
  1356 ;;		wreg, fsr0l, fsr0h, status,2, status,0, pclath, cstack
  1357 ;; Tracked objects:
  1358 ;;		On entry : B1F/0
  1359 ;;		On exit  : 1F/0
  1360 ;;		Unchanged: 0/0
  1361 ;; Data sizes:     COMMON   BANK0   BANK1   BANK2   BANK3   BANK4
  1362 ;;      Params:         0       0       0       0       0       0
  1363 ;;      Locals:         0       0       0       0       0       0
  1364 ;;      Temps:          0       0       0       0       0       0
  1365 ;;      Totals:         0       0       0       0       0       0
  1366 ;;Total ram usage:        0 bytes
  1367 ;; Hardware stack levels required when called:    8
  1368 ;; This function calls:
  1369 ;;		_SYSTEM_Initialize
  1370 ;;		_TMR6_SetInterruptHandler
  1371 ;;		_lcd_baslat
  1372 ;;		_lcd_mesajyaz
  1373 ;;		_lcd_sil
  1374 ;;		_tusbilgilerini_yaz
  1375 ;;		_tustakimi_oku
  1376 ;; This function is called by:
  1377 ;;		Startup code after reset
  1378 ;; This function uses a non-reentrant model
  1379 ;;
  1380                           
  1381                           
  1382                           ;psect for function _main
  1383  0020                     _main:	
  1384                           
  1385                           ;main.c: 67: SYSTEM_Initialize();
  1386                           
  1387                           ;incstack = 0
  1388                           ; Regs used in _main: [wreg-fsr0h+status,2+status,0+pclath+cstack]
  1389  0020  2170  3180         	fcall	_SYSTEM_Initialize
  1390                           
  1391                           ;main.c: 69: TMR6_SetInterruptHandler(_miliSaat);
  1392  0022  309B               	movlw	low __miliSaat
  1393  0023  00F0               	movwf	TMR6_SetInterruptHandler@InterruptHandler
  1394  0024  3003               	movlw	high __miliSaat
  1395  0025  00F1               	movwf	TMR6_SetInterruptHandler@InterruptHandler+1
  1396  0026  216A  3180         	fcall	_TMR6_SetInterruptHandler
  1397                           
  1398                           ;main.c: 71: lcd_baslat();
  1399  0028  20FC  3180         	fcall	_lcd_baslat
  1400                           
  1401                           ;main.c: 72: lcd_sil();
  1402  002A  2195  3180         	fcall	_lcd_sil
  1403                           
  1404                           ;main.c: 78: (INTCONbits.GIE = 1);
  1405  002C  178B               	bsf	11,7	;volatile
  1406                           
  1407                           ;main.c: 81: (INTCONbits.PEIE = 1);
  1408  002D  170B               	bsf	11,6	;volatile
  1409  002E  3050               	movlw	low (STR_2| (0+32768))
  1410                           
  1411                           ;main.c: 89: lcd_mesajyaz(1,1,"4x4 Tus Takimi");
  1412  002F  01F5               	clrf	lcd_mesajyaz@sutun
  1413  0030  0AF5               	incf	lcd_mesajyaz@sutun,f
  1414  0031  00F6               	movwf	lcd_mesajyaz@mesaj
  1415  0032  3083               	movlw	high (STR_2| (0+32768))
  1416  0033  00F7               	movwf	lcd_mesajyaz@mesaj+1
  1417  0034  3001               	movlw	1
  1418  0035                     L2:	
  1419  0035  2091  3180         	fcall	_lcd_mesajyaz
  1420  0037                     l1634:	
  1421                           
  1422                           ;main.c: 91: {
  1423                           ;main.c: 94: tusno=tustakimi_oku();
  1424  0037  2197  3180         	fcall	_tustakimi_oku
  1425  0039  00B3               	movwf	_tusno
  1426                           
  1427                           ;main.c: 97: if(tusno)
  1428  003A  0833               	movf	_tusno,w
  1429  003B  1D03               	btfss	3,2
  1430  003C  2868               	goto	l1652
  1431  003D  2837               	goto	l1634
  1432  003E                     l1640:	
  1433                           
  1434                           ;main.c: 105: tusbilgilerini_yaz();
  1435  003E  207D  3180         	fcall	_tusbilgilerini_yaz
  1436                           
  1437                           ;main.c: 106: lcd_mesajyaz(2,3,"BASILDI");
  1438  0040  3003               	movlw	3
  1439  0041  00F5               	movwf	lcd_mesajyaz@sutun
  1440  0042  3071               	movlw	low ((STR_5+5)| (0+32768))
  1441  0043  00F6               	movwf	lcd_mesajyaz@mesaj
  1442  0044  3083               	movlw	high ((STR_5+5)| (0+32768))
  1443  0045  2865               	goto	L6
  1444  0046                     l1642:	
  1445                           ;main.c: 107: break;
  1446                           
  1447                           
  1448                           ;main.c: 113: tusbilgilerini_yaz();
  1449  0046  207D  3180         	fcall	_tusbilgilerini_yaz
  1450                           
  1451                           ;main.c: 114: lcd_mesajyaz(2,3,"CIFT TIKLAMA");
  1452  0048  3003               	movlw	3
  1453  0049  00F5               	movwf	lcd_mesajyaz@sutun
  1454  004A  305F               	movlw	low (STR_4| (0+32768))
  1455  004B  00F6               	movwf	lcd_mesajyaz@mesaj
  1456  004C  3083               	movlw	high (STR_4| (0+32768))
  1457  004D  2865               	goto	L6
  1458  004E                     l1644:	
  1459                           ;main.c: 115: break;
  1460                           
  1461                           
  1462                           ;main.c: 117: tusbilgilerini_yaz();
  1463  004E  207D  3180         	fcall	_tusbilgilerini_yaz
  1464                           
  1465                           ;main.c: 118: lcd_mesajyaz(2,3,"KISA BASILDI");
  1466  0050  3003               	movlw	3
  1467  0051  00F5               	movwf	lcd_mesajyaz@sutun
  1468  0052  306C               	movlw	low (STR_5| (0+32768))
  1469  0053  00F6               	movwf	lcd_mesajyaz@mesaj
  1470  0054  3083               	movlw	high (STR_5| (0+32768))
  1471  0055  2865               	goto	L6
  1472  0056                     l1646:	
  1473                           ;main.c: 119: break;
  1474                           
  1475                           
  1476                           ;main.c: 121: tusbilgilerini_yaz();
  1477  0056  207D  3180         	fcall	_tusbilgilerini_yaz
  1478                           
  1479                           ;main.c: 122: lcd_mesajyaz(2,3,"UZUN BASILDI");
  1480  0058  3003               	movlw	3
  1481  0059  00F5               	movwf	lcd_mesajyaz@sutun
  1482  005A  3079               	movlw	low (STR_6| (0+32768))
  1483  005B  00F6               	movwf	lcd_mesajyaz@mesaj
  1484  005C  3083               	movlw	high (STR_6| (0+32768))
  1485  005D  2865               	goto	L6
  1486  005E                     l1648:	
  1487                           ;main.c: 123: break;
  1488                           
  1489                           
  1490                           ;main.c: 125: tusbilgilerini_yaz();
  1491  005E  207D  3180         	fcall	_tusbilgilerini_yaz
  1492                           
  1493                           ;main.c: 126: lcd_mesajyaz(2,3,"BIRAKILDI");
  1494  0060  3003               	movlw	3
  1495  0061  00F5               	movwf	lcd_mesajyaz@sutun
  1496  0062  3091               	movlw	low (STR_7| (0+32768))
  1497  0063  00F6               	movwf	lcd_mesajyaz@mesaj
  1498  0064  3083               	movlw	high (STR_7| (0+32768))
  1499  0065                     L6:	
  1500  0065  00F7               	movwf	lcd_mesajyaz@mesaj+1
  1501  0066  3002               	movlw	2
  1502  0067  2835               	goto	L2
  1503  0068                     l1652:	
  1504                           ;main.c: 127: break;
  1505                           
  1506  0068  0834               	movf	_butonDurumu,w
  1507                           
  1508                           ; Switch size 1, requested type "space"
  1509                           ; Number of cases is 6, Range of values is 2 to 8
  1510                           ; switch strategies available:
  1511                           ; Name         Instructions Cycles
  1512                           ; simple_byte           19    10 (average)
  1513                           ; direct_byte           23     9 (fixed)
  1514                           ; jumptable            263     9 (fixed)
  1515                           ;	Chosen strategy is simple_byte
  1516  0069  3A02               	xorlw	2	; case 2
  1517  006A  1903               	skipnz
  1518  006B  283E               	goto	l1640
  1519  006C  3A01               	xorlw	1	; case 3
  1520  006D  1903               	skipnz
  1521  006E  287C               	goto	l257
  1522  006F  3A07               	xorlw	7	; case 4
  1523  0070  1903               	skipnz
  1524  0071  2846               	goto	l1642
  1525  0072  3A01               	xorlw	1	; case 5
  1526  0073  1903               	skipnz
  1527  0074  284E               	goto	l1644
  1528  0075  3A03               	xorlw	3	; case 6
  1529  0076  1903               	skipnz
  1530  0077  2856               	goto	l1646
  1531  0078  3A0E               	xorlw	14	; case 8
  1532  0079  1903               	skipnz
  1533  007A  285E               	goto	l1648
  1534  007B  2837               	goto	l1634
  1535  007C                     l257:	
  1536  007C  2837               	goto	l1634
  1537  007D                     __end_of_main:	
  1538  007D                     __ptext4:	
  1539 ;; *************** function _tusbilgilerini_yaz *****************
  1540 ;; Defined at:
  1541 ;;		line 58 in file "main.c"
  1542 ;; Parameters:    Size  Location     Type
  1543 ;;		None
  1544 ;; Auto vars:     Size  Location     Type
  1545 ;;		None
  1546 ;; Return value:  Size  Location     Type
  1547 ;;                  1    wreg      void 
  1548 ;; Registers used:
  1549 ;;		wreg, fsr0l, fsr0h, status,2, status,0, pclath, cstack
  1550 ;; Tracked objects:
  1551 ;;		On entry : 1F/0
  1552 ;;		On exit  : 0/0
  1553 ;;		Unchanged: 0/0
  1554 ;; Data sizes:     COMMON   BANK0   BANK1   BANK2   BANK3   BANK4
  1555 ;;      Params:         0       0       0       0       0       0
  1556 ;;      Locals:         0       0       0       0       0       0
  1557 ;;      Temps:          0       0       0       0       0       0
  1558 ;;      Totals:         0       0       0       0       0       0
  1559 ;;Total ram usage:        0 bytes
  1560 ;; Hardware stack levels used:    1
  1561 ;; Hardware stack levels required when called:    7
  1562 ;; This function calls:
  1563 ;;		_lcd_git
  1564 ;;		_lcd_harfyaz
  1565 ;;		_lcd_mesajyaz
  1566 ;; This function is called by:
  1567 ;;		_main
  1568 ;; This function uses a non-reentrant model
  1569 ;;
  1570                           
  1571                           
  1572                           ;psect for function _tusbilgilerini_yaz
  1573  007D                     _tusbilgilerini_yaz:	
  1574                           
  1575                           ;incstack = 0
  1576                           ; Regs used in _tusbilgilerini_yaz: [wreg-fsr0h+status,2+status,0+pclath+cstack]
  1577  007D  302E               	movlw	low (STR_1| (0+32768))
  1578                           
  1579                           ;main.c: 59: lcd_mesajyaz(2, 1, "               ");
  1580  007E  01F5               	clrf	lcd_mesajyaz@sutun
  1581  007F  0AF5               	incf	lcd_mesajyaz@sutun,f
  1582  0080  00F6               	movwf	lcd_mesajyaz@mesaj
  1583  0081  3083               	movlw	high (STR_1| (0+32768))
  1584  0082  00F7               	movwf	lcd_mesajyaz@mesaj+1
  1585  0083  3002               	movlw	2
  1586  0084  2091  3180         	fcall	_lcd_mesajyaz
  1587  0086  3002               	movlw	2
  1588                           
  1589                           ;main.c: 60: lcd_git(2, 1);
  1590  0087  01F2               	clrf	lcd_git@sutun
  1591  0088  0AF2               	incf	lcd_git@sutun,f
  1592  0089  20D7  3180         	fcall	_lcd_git
  1593                           
  1594                           ;main.c: 61: lcd_harfyaz(tusno);
  1595  008B  0020               	movlb	0	; select bank0
  1596  008C  0833               	movf	_tusno,w
  1597  008D  20A9  3180         	fcall	_lcd_harfyaz
  1598                           
  1599                           ;main.c: 62: lcd_harfyaz(':');
  1600  008F  303A               	movlw	58
  1601  0090  28A9               	ljmp	_lcd_harfyaz
  1602  0091                     __end_of_tusbilgilerini_yaz:	
  1603  0091                     __ptext5:	
  1604 ;; *************** function _lcd_mesajyaz *****************
  1605 ;; Defined at:
  1606 ;;		line 120 in file "lcd.c"
  1607 ;; Parameters:    Size  Location     Type
  1608 ;;  satir           1    wreg     unsigned char 
  1609 ;;  sutun           1    5[COMMON] unsigned char 
  1610 ;;  mesaj           2    6[COMMON] PTR const unsigned char 
  1611 ;;		 -> STR_7(10), STR_6(13), STR_5(13), STR_4(13), 
  1612 ;;		 -> STR_3(8), STR_2(15), STR_1(16), 
  1613 ;; Auto vars:     Size  Location     Type
  1614 ;;  satir           1    9[COMMON] unsigned char 
  1615 ;; Return value:  Size  Location     Type
  1616 ;;                  1    wreg      void 
  1617 ;; Registers used:
  1618 ;;		wreg, fsr0l, fsr0h, status,2, status,0, pclath, cstack
  1619 ;; Tracked objects:
  1620 ;;		On entry : 0/0
  1621 ;;		On exit  : 0/0
  1622 ;;		Unchanged: 0/0
  1623 ;; Data sizes:     COMMON   BANK0   BANK1   BANK2   BANK3   BANK4
  1624 ;;      Params:         3       0       0       0       0       0
  1625 ;;      Locals:         1       0       0       0       0       0
  1626 ;;      Temps:          1       0       0       0       0       0
  1627 ;;      Totals:         5       0       0       0       0       0
  1628 ;;Total ram usage:        5 bytes
  1629 ;; Hardware stack levels used:    1
  1630 ;; Hardware stack levels required when called:    6
  1631 ;; This function calls:
  1632 ;;		_lcd_git
  1633 ;;		_lcd_harfyaz
  1634 ;; This function is called by:
  1635 ;;		_tusbilgilerini_yaz
  1636 ;;		_main
  1637 ;; This function uses a non-reentrant model
  1638 ;;
  1639                           
  1640                           
  1641                           ;psect for function _lcd_mesajyaz
  1642  0091                     _lcd_mesajyaz:	
  1643                           
  1644                           ;incstack = 0
  1645                           ; Regs used in _lcd_mesajyaz: [wreg-fsr0h+status,2+status,0+pclath+cstack]
  1646                           ;lcd_mesajyaz@satir stored from wreg
  1647  0091  00F9               	movwf	lcd_mesajyaz@satir
  1648                           
  1649                           ;lcd.c: 121: lcd_git(satir, sutun);
  1650  0092  0875               	movf	lcd_mesajyaz@sutun,w
  1651  0093  00F2               	movwf	lcd_git@sutun
  1652  0094  0879               	movf	lcd_mesajyaz@satir,w
  1653  0095  20D7  3180         	fcall	_lcd_git
  1654  0097                     l156:	
  1655                           ;lcd.c: 122: do {
  1656                           
  1657                           
  1658                           ;lcd.c: 123: lcd_harfyaz(*mesaj++);
  1659  0097  0876               	movf	lcd_mesajyaz@mesaj,w
  1660  0098  0084               	movwf	4
  1661  0099  0877               	movf	lcd_mesajyaz@mesaj+1,w
  1662  009A  0085               	movwf	5
  1663  009B  0800               	movf	0,w	;code access
  1664  009C  20A9  3180         	fcall	_lcd_harfyaz
  1665  009E  0AF6               	incf	lcd_mesajyaz@mesaj,f
  1666  009F  1903               	skipnz
  1667  00A0  0AF7               	incf	lcd_mesajyaz@mesaj+1,f
  1668                           
  1669                           ;lcd.c: 124: } while (*mesaj);
  1670  00A1  0876               	movf	lcd_mesajyaz@mesaj,w
  1671  00A2  0084               	movwf	4
  1672  00A3  0877               	movf	lcd_mesajyaz@mesaj+1,w
  1673  00A4  0085               	movwf	5
  1674  00A5  0012               	moviw fsr0++
  1675  00A6  1903               	btfsc	3,2
  1676  00A7  0008               	return
  1677  00A8  2897               	goto	l156
  1678  00A9                     __end_of_lcd_mesajyaz:	
  1679  00A9                     __ptext6:	
  1680 ;; *************** function _lcd_harfyaz *****************
  1681 ;; Defined at:
  1682 ;;		line 227 in file "lcd.c"
  1683 ;; Parameters:    Size  Location     Type
  1684 ;;  harf            1    wreg     unsigned char 
  1685 ;; Auto vars:     Size  Location     Type
  1686 ;;  harf            1    1[COMMON] unsigned char 
  1687 ;; Return value:  Size  Location     Type
  1688 ;;                  1    wreg      void 
  1689 ;; Registers used:
  1690 ;;		wreg, status,2, status,0, pclath, cstack
  1691 ;; Tracked objects:
  1692 ;;		On entry : 0/0
  1693 ;;		On exit  : 0/0
  1694 ;;		Unchanged: 0/0
  1695 ;; Data sizes:     COMMON   BANK0   BANK1   BANK2   BANK3   BANK4
  1696 ;;      Params:         0       0       0       0       0       0
  1697 ;;      Locals:         1       0       0       0       0       0
  1698 ;;      Temps:          1       0       0       0       0       0
  1699 ;;      Totals:         2       0       0       0       0       0
  1700 ;;Total ram usage:        2 bytes
  1701 ;; Hardware stack levels used:    1
  1702 ;; Hardware stack levels required when called:    4
  1703 ;; This function calls:
  1704 ;;		_lcd_mesgulmu
  1705 ;; This function is called by:
  1706 ;;		_lcd_mesajyaz
  1707 ;;		_tusbilgilerini_yaz
  1708 ;; This function uses a non-reentrant model
  1709 ;;
  1710                           
  1711                           
  1712                           ;psect for function _lcd_harfyaz
  1713  00A9                     _lcd_harfyaz:	
  1714                           
  1715                           ;incstack = 0
  1716                           ; Regs used in _lcd_harfyaz: [wreg+status,2+status,0+pclath+cstack]
  1717                           ;lcd_harfyaz@harf stored from wreg
  1718  00A9  00F1               	movwf	lcd_harfyaz@harf
  1719                           
  1720                           ;lcd.c: 228: lcd_mesgulmu();
  1721  00AA  2165  3180         	fcall	_lcd_mesgulmu
  1722                           
  1723                           ;lcd.c: 229: LATA6 = 1;
  1724  00AC  0022               	movlb	2	; select bank2
  1725  00AD  170C               	bsf	12,6	;volatile
  1726                           
  1727                           ;lcd.c: 237: LATB = (LATB & 0xf0) | (harf >> 4);
  1728  00AE  0871               	movf	lcd_harfyaz@harf,w
  1729  00AF  00F0               	movwf	??_lcd_harfyaz
  1730  00B0  3004               	movlw	4
  1731  00B1                     u395:	
  1732  00B1  36F0               	lsrf	??_lcd_harfyaz,f
  1733  00B2  0B89               	decfsz	9,f
  1734  00B3  28B1               	goto	u395
  1735                           
  1736                           ;lcd.c: 239: LATA7 = 1;
  1737  00B4  2312  3180         	fcall	PL6	;call to abstracted procedure
  1738                           
  1739                           ;lcd.c: 240: _delay((unsigned long)((1)*(32000000/4000000.0)));
  1740  00B6  3200               	nop2	;2 cycle nop
  1741  00B7  3200               	nop2	;2 cycle nop
  1742  00B8  3200               	nop2	;2 cycle nop
  1743  00B9  3200               	nop2	;2 cycle nop
  1744                           
  1745                           ;lcd.c: 241: LATA7 = 0;
  1746  00BA  0022               	movlb	2	; select bank2
  1747  00BB  138C               	bcf	12,7	;volatile
  1748                           
  1749                           ;lcd.c: 242: _delay((unsigned long)((200)*(32000000/4000000.0)));
  1750  00BC  30E4               	movlw	228
  1751  00BD                     u757:	
  1752  00BD  3200               	nop2
  1753  00BE  3200               	nop2
  1754  00BF  0B89               	decfsz	9,f
  1755  00C0  28BD               	goto	u757
  1756  00C1  3200               	nop2
  1757  00C2  3200               	nop2
  1758                           
  1759                           ;lcd.c: 247: LATB = (LATB & 0xf0) | (harf & 0x0f);
  1760  00C3  300F               	movlw	15
  1761  00C4  0571               	andwf	lcd_harfyaz@harf,w
  1762  00C5  00F0               	movwf	??_lcd_harfyaz
  1763  00C6  0022               	movlb	2	; select bank2
  1764                           
  1765                           ;lcd.c: 249: LATA7 = 1;
  1766  00C7  2312  3180         	fcall	PL6	;call to abstracted procedure
  1767                           
  1768                           ;lcd.c: 250: _delay((unsigned long)((1)*(32000000/4000000.0)));
  1769  00C9  3200               	nop2	;2 cycle nop
  1770  00CA  3200               	nop2	;2 cycle nop
  1771  00CB  3200               	nop2	;2 cycle nop
  1772  00CC  3200               	nop2	;2 cycle nop
  1773                           
  1774                           ;lcd.c: 251: LATA7 = 0;
  1775  00CD  0022               	movlb	2	; select bank2
  1776  00CE  138C               	bcf	12,7	;volatile
  1777                           
  1778                           ;lcd.c: 252: _delay((unsigned long)((200)*(32000000/4000000.0)));
  1779  00CF  30E4               	movlw	228
  1780  00D0                     u767:	
  1781  00D0  3200               	nop2
  1782  00D1  3200               	nop2
  1783  00D2  0B89               	decfsz	9,f
  1784  00D3  28D0               	goto	u767
  1785  00D4  3200               	nop2
  1786  00D5  3200               	nop2
  1787  00D6  0008               	return
  1788  00D7                     __end_of_lcd_harfyaz:	
  1789  00D7                     __ptext7:	
  1790 ;; *************** function _lcd_git *****************
  1791 ;; Defined at:
  1792 ;;		line 96 in file "lcd.c"
  1793 ;; Parameters:    Size  Location     Type
  1794 ;;  satir           1    wreg     unsigned char 
  1795 ;;  sutun           1    2[COMMON] unsigned char 
  1796 ;; Auto vars:     Size  Location     Type
  1797 ;;  satir           1    3[COMMON] unsigned char 
  1798 ;;  temp            1    4[COMMON] unsigned char 
  1799 ;; Return value:  Size  Location     Type
  1800 ;;                  1    wreg      void 
  1801 ;; Registers used:
  1802 ;;		wreg, fsr0l, fsr0h, status,2, status,0, pclath, cstack
  1803 ;; Tracked objects:
  1804 ;;		On entry : 0/0
  1805 ;;		On exit  : 0/0
  1806 ;;		Unchanged: 0/0
  1807 ;; Data sizes:     COMMON   BANK0   BANK1   BANK2   BANK3   BANK4
  1808 ;;      Params:         1       0       0       0       0       0
  1809 ;;      Locals:         2       0       0       0       0       0
  1810 ;;      Temps:          0       0       0       0       0       0
  1811 ;;      Totals:         3       0       0       0       0       0
  1812 ;;Total ram usage:        3 bytes
  1813 ;; Hardware stack levels used:    1
  1814 ;; Hardware stack levels required when called:    5
  1815 ;; This function calls:
  1816 ;;		_lcd_komut
  1817 ;; This function is called by:
  1818 ;;		_lcd_mesajyaz
  1819 ;;		_tusbilgilerini_yaz
  1820 ;; This function uses a non-reentrant model
  1821 ;;
  1822                           
  1823                           
  1824                           ;psect for function _lcd_git
  1825  00D7                     _lcd_git:	
  1826                           
  1827                           ;incstack = 0
  1828                           ; Regs used in _lcd_git: [wreg-fsr0h+status,2+status,0+pclath+cstack]
  1829                           ;lcd_git@satir stored from wreg
  1830  00D7  00F3               	movwf	lcd_git@satir
  1831                           
  1832                           ;lcd.c: 97: char temp;
  1833                           ;lcd.c: 98: switch (satir) {
  1834  00D8  28E6               	goto	l1298
  1835  00D9                     l1288:	
  1836                           
  1837                           ;lcd.c: 100: temp = sutun - 1 + 0x80;
  1838  00D9  0872               	movf	lcd_git@sutun,w
  1839  00DA  3E7F               	addlw	127
  1840  00DB  28E4               	goto	L15
  1841  00DC                     l1290:	
  1842                           ;lcd.c: 101: break;
  1843                           
  1844                           
  1845                           ;lcd.c: 103: temp = sutun - 1 + 0xc0;
  1846  00DC  0872               	movf	lcd_git@sutun,w
  1847  00DD  3EBF               	addlw	191
  1848  00DE  28E4               	goto	L15
  1849  00DF                     l1292:	
  1850                           ;lcd.c: 104: break;
  1851                           
  1852                           
  1853                           ;lcd.c: 106: temp = (sutun - 1 + 0x94);
  1854  00DF  0872               	movf	lcd_git@sutun,w
  1855  00E0  3E93               	addlw	147
  1856  00E1  28E4               	goto	L15
  1857  00E2                     l1294:	
  1858                           ;lcd.c: 107: break;
  1859                           
  1860                           
  1861                           ;lcd.c: 109: temp = (sutun - 1 + 0xd4);
  1862  00E2  0872               	movf	lcd_git@sutun,w
  1863  00E3  3ED3               	addlw	211
  1864  00E4                     L15:	
  1865  00E4  00F4               	movwf	lcd_git@temp
  1866                           
  1867                           ;lcd.c: 110: break;
  1868  00E5  28F4               	goto	l1300
  1869  00E6                     l1298:	
  1870  00E6  0873               	movf	lcd_git@satir,w
  1871                           
  1872                           ; Switch size 1, requested type "space"
  1873                           ; Number of cases is 4, Range of values is 1 to 4
  1874                           ; switch strategies available:
  1875                           ; Name         Instructions Cycles
  1876                           ; simple_byte           13     7 (average)
  1877                           ; direct_byte           17     9 (fixed)
  1878                           ; jumptable            263     9 (fixed)
  1879                           ;	Chosen strategy is simple_byte
  1880  00E7  3A01               	xorlw	1	; case 1
  1881  00E8  1903               	skipnz
  1882  00E9  28D9               	goto	l1288
  1883  00EA  3A03               	xorlw	3	; case 2
  1884  00EB  1903               	skipnz
  1885  00EC  28DC               	goto	l1290
  1886  00ED  3A01               	xorlw	1	; case 3
  1887  00EE  1903               	skipnz
  1888  00EF  28DF               	goto	l1292
  1889  00F0  3A07               	xorlw	7	; case 4
  1890  00F1  1903               	skipnz
  1891  00F2  28E2               	goto	l1294
  1892  00F3  28F4               	goto	l1300
  1893  00F4                     l1300:	
  1894                           
  1895                           ;lcd.c: 112: lcd_komut(temp);
  1896  00F4  0874               	movf	lcd_git@temp,w
  1897  00F5  2137  3180         	fcall	_lcd_komut
  1898                           
  1899                           ;lcd.c: 113: _delay((unsigned long)((100)*(32000000/4000000.0)));
  1900  00F7  30A0               	movlw	160
  1901  00F8                     u777:	
  1902  00F8  3200               	nop2
  1903  00F9  0B89               	decfsz	9,f
  1904  00FA  28F8               	goto	u777
  1905  00FB  0008               	return
  1906  00FC                     __end_of_lcd_git:	
  1907  00FC                     __ptext9:	
  1908 ;; *************** function _lcd_baslat *****************
  1909 ;; Defined at:
  1910 ;;		line 55 in file "lcd.c"
  1911 ;; Parameters:    Size  Location     Type
  1912 ;;		None
  1913 ;; Auto vars:     Size  Location     Type
  1914 ;;		None
  1915 ;; Return value:  Size  Location     Type
  1916 ;;                  1    wreg      void 
  1917 ;; Registers used:
  1918 ;;		wreg, status,2, status,0, pclath, cstack
  1919 ;; Tracked objects:
  1920 ;;		On entry : 1F/0
  1921 ;;		On exit  : 0/0
  1922 ;;		Unchanged: 0/0
  1923 ;; Data sizes:     COMMON   BANK0   BANK1   BANK2   BANK3   BANK4
  1924 ;;      Params:         0       0       0       0       0       0
  1925 ;;      Locals:         0       0       0       0       0       0
  1926 ;;      Temps:          1       0       0       0       0       0
  1927 ;;      Totals:         1       0       0       0       0       0
  1928 ;;Total ram usage:        1 bytes
  1929 ;; Hardware stack levels used:    1
  1930 ;; Hardware stack levels required when called:    5
  1931 ;; This function calls:
  1932 ;;		_lcd_komut
  1933 ;; This function is called by:
  1934 ;;		_main
  1935 ;; This function uses a non-reentrant model
  1936 ;;
  1937                           
  1938                           
  1939                           ;psect for function _lcd_baslat
  1940  00FC                     _lcd_baslat:	
  1941                           
  1942                           ;lcd.c: 60: TRISB = TRISB & 0xf0;
  1943                           
  1944                           ;incstack = 0
  1945                           ; Regs used in _lcd_baslat: [wreg+status,2+status,0+pclath+cstack]
  1946  00FC  30F0               	movlw	240
  1947  00FD  0021               	movlb	1	; select bank1
  1948  00FE  058D               	andwf	13,f	;volatile
  1949                           
  1950                           ;lcd.c: 63: TRISA7 = 0;
  1951  00FF  138C               	bcf	12,7	;volatile
  1952                           
  1953                           ;lcd.c: 64: TRISA6 = 0;
  1954  0100  130C               	bcf	12,6	;volatile
  1955                           
  1956                           ;lcd.c: 70: _delay((unsigned long)((20)*(32000000/4000.0)));
  1957  0101  30D0               	movlw	208
  1958  0102  00F2               	movwf	??_lcd_baslat
  1959  0103  30CA               	movlw	202
  1960  0104                     u787:	
  1961  0104  0B89               	decfsz	9,f
  1962  0105  2904               	goto	u787
  1963  0106  0BF2               	decfsz	??_lcd_baslat,f
  1964  0107  2904               	goto	u787
  1965                           
  1966                           ;lcd.c: 71: LATA6 = 0;
  1967  0108  0022               	movlb	2	; select bank2
  1968  0109  130C               	bcf	12,6	;volatile
  1969                           
  1970                           ;lcd.c: 72: LATA7 = 0;
  1971  010A  138C               	bcf	12,7	;volatile
  1972                           
  1973                           ;lcd.c: 77: LATB = 0x02 | (LATB & 0xf0);
  1974  010B  080D               	movf	13,w	;volatile
  1975  010C  39F0               	andlw	240
  1976  010D  3802               	iorlw	2
  1977  010E  008D               	movwf	13	;volatile
  1978                           
  1979                           ;lcd.c: 79: LATA7 = 1;
  1980  010F  178C               	bsf	12,7	;volatile
  1981                           
  1982                           ;lcd.c: 80: _delay((unsigned long)((1)*(32000000/4000000.0)));
  1983  0110  3200               	nop2	;2 cycle nop
  1984  0111  3200               	nop2	;2 cycle nop
  1985  0112  3200               	nop2	;2 cycle nop
  1986  0113  3200               	nop2	;2 cycle nop
  1987                           
  1988                           ;lcd.c: 81: LATA7 = 0;
  1989  0114  0022               	movlb	2	; select bank2
  1990  0115  138C               	bcf	12,7	;volatile
  1991                           
  1992                           ;lcd.c: 82: _delay((unsigned long)((5)*(32000000/4000.0)));
  1993  0116  3034               	movlw	52
  1994  0117  00F2               	movwf	??_lcd_baslat
  1995  0118  30F2               	movlw	242
  1996  0119                     u797:	
  1997  0119  0B89               	decfsz	9,f
  1998  011A  2919               	goto	u797
  1999  011B  0BF2               	decfsz	??_lcd_baslat,f
  2000  011C  2919               	goto	u797
  2001                           
  2002                           ;lcd.c: 83: lcd_komut(0x28);
  2003  011D  3028               	movlw	40
  2004  011E  2137  3180         	fcall	_lcd_komut
  2005                           
  2006                           ;lcd.c: 84: _delay((unsigned long)((40)*(32000000/4000000.0)));
  2007  0120  306A               	movlw	106
  2008  0121                     u807:	
  2009  0121  0B89               	decfsz	9,f
  2010  0122  2921               	goto	u807
  2011  0123  3200               	nop2
  2012                           
  2013                           ;lcd.c: 85: lcd_komut(0x0C);
  2014  0124  300C               	movlw	12
  2015  0125  2137  3180         	fcall	_lcd_komut
  2016                           
  2017                           ;lcd.c: 86: _delay((unsigned long)((40)*(32000000/4000000.0)));
  2018  0127  306A               	movlw	106
  2019  0128                     u817:	
  2020  0128  0B89               	decfsz	9,f
  2021  0129  2928               	goto	u817
  2022  012A  3200               	nop2
  2023                           
  2024                           ;lcd.c: 87: lcd_komut(0x06);
  2025  012B  3006               	movlw	6
  2026  012C  2137  3180         	fcall	_lcd_komut
  2027                           
  2028                           ;lcd.c: 88: _delay((unsigned long)((2)*(32000000/4000.0)));
  2029  012E  3015               	movlw	21
  2030  012F  00F2               	movwf	??_lcd_baslat
  2031  0130  30C6               	movlw	198
  2032  0131                     u827:	
  2033  0131  0B89               	decfsz	9,f
  2034  0132  2931               	goto	u827
  2035  0133  0BF2               	decfsz	??_lcd_baslat,f
  2036  0134  2931               	goto	u827
  2037  0135  3200               	nop2
  2038  0136  0008               	return
  2039  0137                     __end_of_lcd_baslat:	
  2040  0137                     __ptext10:	
  2041 ;; *************** function _lcd_komut *****************
  2042 ;; Defined at:
  2043 ;;		line 354 in file "lcd.c"
  2044 ;; Parameters:    Size  Location     Type
  2045 ;;  komut           1    wreg     unsigned char 
  2046 ;; Auto vars:     Size  Location     Type
  2047 ;;  komut           1    1[COMMON] unsigned char 
  2048 ;; Return value:  Size  Location     Type
  2049 ;;                  1    wreg      void 
  2050 ;; Registers used:
  2051 ;;		wreg, status,2, status,0, pclath, cstack
  2052 ;; Tracked objects:
  2053 ;;		On entry : 0/0
  2054 ;;		On exit  : 0/0
  2055 ;;		Unchanged: 0/0
  2056 ;; Data sizes:     COMMON   BANK0   BANK1   BANK2   BANK3   BANK4
  2057 ;;      Params:         0       0       0       0       0       0
  2058 ;;      Locals:         1       0       0       0       0       0
  2059 ;;      Temps:          1       0       0       0       0       0
  2060 ;;      Totals:         2       0       0       0       0       0
  2061 ;;Total ram usage:        2 bytes
  2062 ;; Hardware stack levels used:    1
  2063 ;; Hardware stack levels required when called:    4
  2064 ;; This function calls:
  2065 ;;		_lcd_mesgulmu
  2066 ;; This function is called by:
  2067 ;;		_lcd_baslat
  2068 ;;		_lcd_git
  2069 ;;		_lcd_sil
  2070 ;; This function uses a non-reentrant model
  2071 ;;
  2072                           
  2073                           
  2074                           ;psect for function _lcd_komut
  2075  0137                     _lcd_komut:	
  2076                           
  2077                           ;incstack = 0
  2078                           ; Regs used in _lcd_komut: [wreg+status,2+status,0+pclath+cstack]
  2079                           ;lcd_komut@komut stored from wreg
  2080  0137  00F1               	movwf	lcd_komut@komut
  2081                           
  2082                           ;lcd.c: 355: lcd_mesgulmu();
  2083  0138  2165  3180         	fcall	_lcd_mesgulmu
  2084                           
  2085                           ;lcd.c: 356: LATA6 = 0;
  2086  013A  0022               	movlb	2	; select bank2
  2087  013B  130C               	bcf	12,6	;volatile
  2088                           
  2089                           ;lcd.c: 364: LATB = (LATB & 0xf0) | (komut >> 4);
  2090  013C  0871               	movf	lcd_komut@komut,w
  2091  013D  00F0               	movwf	??_lcd_komut
  2092  013E  3004               	movlw	4
  2093  013F                     u385:	
  2094  013F  36F0               	lsrf	??_lcd_komut,f
  2095  0140  0B89               	decfsz	9,f
  2096  0141  293F               	goto	u385
  2097                           
  2098                           ;lcd.c: 366: LATA7 = 1;
  2099  0142  2318  3180         	fcall	PL8	;call to abstracted procedure
  2100                           
  2101                           ;lcd.c: 367: _delay((unsigned long)((1)*(32000000/4000000.0)));
  2102  0144  3200               	nop2	;2 cycle nop
  2103  0145  3200               	nop2	;2 cycle nop
  2104  0146  3200               	nop2	;2 cycle nop
  2105  0147  3200               	nop2	;2 cycle nop
  2106                           
  2107                           ;lcd.c: 368: LATA7 = 0;
  2108  0148  0022               	movlb	2	; select bank2
  2109  0149  138C               	bcf	12,7	;volatile
  2110                           
  2111                           ;lcd.c: 369: _delay((unsigned long)((5)*(32000000/4000.0)));
  2112  014A  3034               	movlw	52
  2113  014B  00F0               	movwf	??_lcd_komut
  2114  014C  30F2               	movlw	242
  2115  014D                     u837:	
  2116  014D  0B89               	decfsz	9,f
  2117  014E  294D               	goto	u837
  2118  014F  0BF0               	decfsz	??_lcd_komut,f
  2119  0150  294D               	goto	u837
  2120                           
  2121                           ;lcd.c: 374: LATB = (LATB & 0xf0) | (komut & 0x0f);
  2122  0151  300F               	movlw	15
  2123  0152  0571               	andwf	lcd_komut@komut,w
  2124  0153  00F0               	movwf	??_lcd_komut
  2125  0154  0022               	movlb	2	; select bank2
  2126                           
  2127                           ;lcd.c: 376: LATA7 = 1;
  2128  0155  2318  3180         	fcall	PL8	;call to abstracted procedure
  2129                           
  2130                           ;lcd.c: 377: _delay((unsigned long)((1)*(32000000/4000000.0)));
  2131  0157  3200               	nop2	;2 cycle nop
  2132  0158  3200               	nop2	;2 cycle nop
  2133  0159  3200               	nop2	;2 cycle nop
  2134  015A  3200               	nop2	;2 cycle nop
  2135                           
  2136                           ;lcd.c: 378: LATA7 = 0;
  2137  015B  0022               	movlb	2	; select bank2
  2138  015C  138C               	bcf	12,7	;volatile
  2139                           
  2140                           ;lcd.c: 379: _delay((unsigned long)((5)*(32000000/4000.0)));
  2141  015D  3034               	movlw	52
  2142  015E  00F0               	movwf	??_lcd_komut
  2143  015F  30F2               	movlw	242
  2144  0160                     u847:	
  2145  0160  0B89               	decfsz	9,f
  2146  0161  2960               	goto	u847
  2147  0162  0BF0               	decfsz	??_lcd_komut,f
  2148  0163  2960               	goto	u847
  2149  0164  0008               	return
  2150  0165                     __end_of_lcd_komut:	
  2151  0165                     __ptext11:	
  2152 ;; *************** function _lcd_mesgulmu *****************
  2153 ;; Defined at:
  2154 ;;		line 200 in file "lcd.c"
  2155 ;; Parameters:    Size  Location     Type
  2156 ;;		None
  2157 ;; Auto vars:     Size  Location     Type
  2158 ;;		None
  2159 ;; Return value:  Size  Location     Type
  2160 ;;                  1    wreg      void 
  2161 ;; Registers used:
  2162 ;;		wreg
  2163 ;; Tracked objects:
  2164 ;;		On entry : 0/0
  2165 ;;		On exit  : 0/0
  2166 ;;		Unchanged: 0/0
  2167 ;; Data sizes:     COMMON   BANK0   BANK1   BANK2   BANK3   BANK4
  2168 ;;      Params:         0       0       0       0       0       0
  2169 ;;      Locals:         0       0       0       0       0       0
  2170 ;;      Temps:          0       0       0       0       0       0
  2171 ;;      Totals:         0       0       0       0       0       0
  2172 ;;Total ram usage:        0 bytes
  2173 ;; Hardware stack levels used:    1
  2174 ;; Hardware stack levels required when called:    3
  2175 ;; This function calls:
  2176 ;;		Nothing
  2177 ;; This function is called by:
  2178 ;;		_lcd_harfyaz
  2179 ;;		_lcd_komut
  2180 ;; This function uses a non-reentrant model
  2181 ;;
  2182                           
  2183                           
  2184                           ;psect for function _lcd_mesgulmu
  2185  0165                     _lcd_mesgulmu:	
  2186                           
  2187                           ;lcd.c: 201: _delay((unsigned long)((100)*(32000000/4000000.0)));
  2188                           
  2189                           ;incstack = 0
  2190                           ; Regs used in _lcd_mesgulmu: [wreg]
  2191  0165  30A0               	movlw	160
  2192  0166                     u857:	
  2193  0166  3200               	nop2
  2194  0167  0B89               	decfsz	9,f
  2195  0168  2966               	goto	u857
  2196  0169  0008               	return
  2197  016A                     __end_of_lcd_mesgulmu:	
  2198  016A                     __ptext16:	
  2199 ;; *************** function _TMR6_SetInterruptHandler *****************
  2200 ;; Defined at:
  2201 ;;		line 134 in file "mcc_generated_files/tmr6.c"
  2202 ;; Parameters:    Size  Location     Type
  2203 ;;  InterruptHan    2    0[COMMON] PTR void 
  2204 ;;		 -> _miliSaat(1), TMR6_DefaultInterruptHandler(1), 
  2205 ;; Auto vars:     Size  Location     Type
  2206 ;;		None
  2207 ;; Return value:  Size  Location     Type
  2208 ;;                  1    wreg      void 
  2209 ;; Registers used:
  2210 ;;		wreg
  2211 ;; Tracked objects:
  2212 ;;		On entry : 16/8
  2213 ;;		On exit  : 1F/0
  2214 ;;		Unchanged: 0/0
  2215 ;; Data sizes:     COMMON   BANK0   BANK1   BANK2   BANK3   BANK4
  2216 ;;      Params:         2       0       0       0       0       0
  2217 ;;      Locals:         0       0       0       0       0       0
  2218 ;;      Temps:          0       0       0       0       0       0
  2219 ;;      Totals:         2       0       0       0       0       0
  2220 ;;Total ram usage:        2 bytes
  2221 ;; Hardware stack levels used:    1
  2222 ;; Hardware stack levels required when called:    3
  2223 ;; This function calls:
  2224 ;;		Nothing
  2225 ;; This function is called by:
  2226 ;;		_TMR6_Initialize
  2227 ;;		_main
  2228 ;; This function uses a non-reentrant model
  2229 ;;
  2230                           
  2231                           
  2232                           ;psect for function _TMR6_SetInterruptHandler
  2233  016A                     _TMR6_SetInterruptHandler:	
  2234                           
  2235                           ;tmr6.c: 135: TMR6_InterruptHandler = InterruptHandler;
  2236                           
  2237                           ;incstack = 0
  2238                           ; Regs used in _TMR6_SetInterruptHandler: [wreg]
  2239  016A  0871               	movf	TMR6_SetInterruptHandler@InterruptHandler+1,w
  2240  016B  0020               	movlb	0	; select bank0
  2241  016C  00AD               	movwf	_TMR6_InterruptHandler+1
  2242  016D  0870               	movf	TMR6_SetInterruptHandler@InterruptHandler,w
  2243  016E  00AC               	movwf	_TMR6_InterruptHandler
  2244  016F  0008               	return
  2245  0170                     __end_of_TMR6_SetInterruptHandler:	
  2246  0170                     __ptext12:	
  2247 ;; *************** function _SYSTEM_Initialize *****************
  2248 ;; Defined at:
  2249 ;;		line 69 in file "mcc_generated_files/mcc.c"
  2250 ;; Parameters:    Size  Location     Type
  2251 ;;		None
  2252 ;; Auto vars:     Size  Location     Type
  2253 ;;		None
  2254 ;; Return value:  Size  Location     Type
  2255 ;;                  1    wreg      void 
  2256 ;; Registers used:
  2257 ;;		wreg, status,2, status,0, pclath, cstack
  2258 ;; Tracked objects:
  2259 ;;		On entry : B1F/0
  2260 ;;		On exit  : 1F/8
  2261 ;;		Unchanged: 0/0
  2262 ;; Data sizes:     COMMON   BANK0   BANK1   BANK2   BANK3   BANK4
  2263 ;;      Params:         0       0       0       0       0       0
  2264 ;;      Locals:         0       0       0       0       0       0
  2265 ;;      Temps:          0       0       0       0       0       0
  2266 ;;      Totals:         0       0       0       0       0       0
  2267 ;;Total ram usage:        0 bytes
  2268 ;; Hardware stack levels used:    1
  2269 ;; Hardware stack levels required when called:    5
  2270 ;; This function calls:
  2271 ;;		_OSCILLATOR_Initialize
  2272 ;;		_PIN_MANAGER_Initialize
  2273 ;;		_TMR6_Initialize
  2274 ;;		_WDT_Initialize
  2275 ;; This function is called by:
  2276 ;;		_main
  2277 ;; This function uses a non-reentrant model
  2278 ;;
  2279                           
  2280                           
  2281                           ;psect for function _SYSTEM_Initialize
  2282  0170                     _SYSTEM_Initialize:	
  2283                           
  2284                           ;mcc.c: 72: PIN_MANAGER_Initialize();
  2285                           
  2286                           ;incstack = 0
  2287                           ; Regs used in _SYSTEM_Initialize: [wreg+status,2+status,0+pclath+cstack]
  2288  0170  217E  3180         	fcall	_PIN_MANAGER_Initialize
  2289                           
  2290                           ;mcc.c: 73: OSCILLATOR_Initialize();
  2291  0172  2177  3180         	fcall	_OSCILLATOR_Initialize
  2292                           
  2293                           ;mcc.c: 74: WDT_Initialize();
  2294  0174  2219  3180         	fcall	_WDT_Initialize
  2295                           
  2296                           ;mcc.c: 75: TMR6_Initialize();
  2297  0176  2A08               	ljmp	l1356
  2298  0177                     __end_of_SYSTEM_Initialize:	
  2299  0177                     __ptext18:	
  2300 ;; *************** function _OSCILLATOR_Initialize *****************
  2301 ;; Defined at:
  2302 ;;		line 78 in file "mcc_generated_files/mcc.c"
  2303 ;; Parameters:    Size  Location     Type
  2304 ;;		None
  2305 ;; Auto vars:     Size  Location     Type
  2306 ;;		None
  2307 ;; Return value:  Size  Location     Type
  2308 ;;                  1    wreg      void 
  2309 ;; Registers used:
  2310 ;;		wreg, status,2
  2311 ;; Tracked objects:
  2312 ;;		On entry : B1F/2
  2313 ;;		On exit  : B1F/1
  2314 ;;		Unchanged: B00/0
  2315 ;; Data sizes:     COMMON   BANK0   BANK1   BANK2   BANK3   BANK4
  2316 ;;      Params:         0       0       0       0       0       0
  2317 ;;      Locals:         0       0       0       0       0       0
  2318 ;;      Temps:          0       0       0       0       0       0
  2319 ;;      Totals:         0       0       0       0       0       0
  2320 ;;Total ram usage:        0 bytes
  2321 ;; Hardware stack levels used:    1
  2322 ;; Hardware stack levels required when called:    3
  2323 ;; This function calls:
  2324 ;;		Nothing
  2325 ;; This function is called by:
  2326 ;;		_SYSTEM_Initialize
  2327 ;; This function uses a non-reentrant model
  2328 ;;
  2329                           
  2330                           
  2331                           ;psect for function _OSCILLATOR_Initialize
  2332  0177                     _OSCILLATOR_Initialize:	
  2333                           
  2334                           ;mcc.c: 81: OSCCON = 0x70;
  2335                           
  2336                           ;incstack = 0
  2337                           ; Regs used in _OSCILLATOR_Initialize: [wreg+status,2]
  2338  0177  3070               	movlw	112
  2339  0178  0021               	movlb	1	; select bank1
  2340  0179  0099               	movwf	25	;volatile
  2341                           
  2342                           ;mcc.c: 83: OSCTUNE = 0x00;
  2343  017A  0198               	clrf	24	;volatile
  2344  017B                     l22:	
  2345                           ;mcc.c: 86: {
  2346                           
  2347  017B  1B1A               	btfsc	26,6	;volatile
  2348  017C  0008               	return
  2349  017D  297B               	goto	l22
  2350  017E                     __end_of_OSCILLATOR_Initialize:	
  2351  017E                     __ptext17:	
  2352 ;; *************** function _PIN_MANAGER_Initialize *****************
  2353 ;; Defined at:
  2354 ;;		line 51 in file "mcc_generated_files/pin_manager.c"
  2355 ;; Parameters:    Size  Location     Type
  2356 ;;		None
  2357 ;; Auto vars:     Size  Location     Type
  2358 ;;		None
  2359 ;; Return value:  Size  Location     Type
  2360 ;;                  1    wreg      void 
  2361 ;; Registers used:
  2362 ;;		wreg, status,2
  2363 ;; Tracked objects:
  2364 ;;		On entry : B1F/0
  2365 ;;		On exit  : B1F/2
  2366 ;;		Unchanged: B00/0
  2367 ;; Data sizes:     COMMON   BANK0   BANK1   BANK2   BANK3   BANK4
  2368 ;;      Params:         0       0       0       0       0       0
  2369 ;;      Locals:         0       0       0       0       0       0
  2370 ;;      Temps:          0       0       0       0       0       0
  2371 ;;      Totals:         0       0       0       0       0       0
  2372 ;;Total ram usage:        0 bytes
  2373 ;; Hardware stack levels used:    1
  2374 ;; Hardware stack levels required when called:    3
  2375 ;; This function calls:
  2376 ;;		Nothing
  2377 ;; This function is called by:
  2378 ;;		_SYSTEM_Initialize
  2379 ;; This function uses a non-reentrant model
  2380 ;;
  2381                           
  2382                           
  2383                           ;psect for function _PIN_MANAGER_Initialize
  2384  017E                     _PIN_MANAGER_Initialize:	
  2385                           
  2386                           ;pin_manager.c: 56: LATA = 0x00;
  2387                           
  2388                           ;incstack = 0
  2389                           ; Regs used in _PIN_MANAGER_Initialize: [wreg+status,2]
  2390  017E  0022               	movlb	2	; select bank2
  2391  017F  018C               	clrf	12	;volatile
  2392                           
  2393                           ;pin_manager.c: 57: LATB = 0x00;
  2394  0180  018D               	clrf	13	;volatile
  2395                           
  2396                           ;pin_manager.c: 62: TRISA = 0x30;
  2397  0181  3030               	movlw	48
  2398  0182  0021               	movlb	1	; select bank1
  2399  0183  008C               	movwf	12	;volatile
  2400                           
  2401                           ;pin_manager.c: 63: TRISB = 0xF0;
  2402  0184  30F0               	movlw	240
  2403  0185  008D               	movwf	13	;volatile
  2404                           
  2405                           ;pin_manager.c: 68: ANSELB = 0x00;
  2406  0186  0023               	movlb	3	; select bank3
  2407  0187  018D               	clrf	13	;volatile
  2408                           
  2409                           ;pin_manager.c: 69: ANSELA = 0x10;
  2410  0188  3010               	movlw	16
  2411  0189  008C               	movwf	12	;volatile
  2412                           
  2413                           ;pin_manager.c: 74: WPUB = 0xF0;
  2414  018A  30F0               	movlw	240
  2415  018B  0024               	movlb	4	; select bank4
  2416  018C  008D               	movwf	13	;volatile
  2417                           
  2418                           ;pin_manager.c: 75: WPUA = 0x20;
  2419  018D  3020               	movlw	32
  2420  018E  008C               	movwf	12	;volatile
  2421                           
  2422                           ;pin_manager.c: 76: OPTION_REGbits.nWPUEN = 0;
  2423  018F  0021               	movlb	1	; select bank1
  2424  0190  1395               	bcf	21,7	;volatile
  2425                           
  2426                           ;pin_manager.c: 82: APFCON1 = 0x00;
  2427  0191  0022               	movlb	2	; select bank2
  2428  0192  019E               	clrf	30	;volatile
  2429                           
  2430                           ;pin_manager.c: 83: APFCON0 = 0x00;
  2431  0193  019D               	clrf	29	;volatile
  2432  0194  0008               	return
  2433  0195                     __end_of_PIN_MANAGER_Initialize:	
  2434  0195                     __ptext8:	
  2435 ;; *************** function _lcd_sil *****************
  2436 ;; Defined at:
  2437 ;;		line 414 in file "lcd.c"
  2438 ;; Parameters:    Size  Location     Type
  2439 ;;		None
  2440 ;; Auto vars:     Size  Location     Type
  2441 ;;		None
  2442 ;; Return value:  Size  Location     Type
  2443 ;;                  1    wreg      void 
  2444 ;; Registers used:
  2445 ;;		wreg, status,2, status,0, pclath, cstack
  2446 ;; Tracked objects:
  2447 ;;		On entry : 0/0
  2448 ;;		On exit  : 0/0
  2449 ;;		Unchanged: 0/0
  2450 ;; Data sizes:     COMMON   BANK0   BANK1   BANK2   BANK3   BANK4
  2451 ;;      Params:         0       0       0       0       0       0
  2452 ;;      Locals:         0       0       0       0       0       0
  2453 ;;      Temps:          0       0       0       0       0       0
  2454 ;;      Totals:         0       0       0       0       0       0
  2455 ;;Total ram usage:        0 bytes
  2456 ;; Hardware stack levels used:    1
  2457 ;; Hardware stack levels required when called:    5
  2458 ;; This function calls:
  2459 ;;		_lcd_komut
  2460 ;; This function is called by:
  2461 ;;		_main
  2462 ;; This function uses a non-reentrant model
  2463 ;;
  2464                           
  2465                           
  2466                           ;psect for function _lcd_sil
  2467  0195                     _lcd_sil:	
  2468                           
  2469                           ;lcd.c: 415: lcd_komut(0x01);
  2470                           
  2471                           ;incstack = 0
  2472                           ; Regs used in _lcd_sil: [wreg+status,2+status,0+pclath+cstack]
  2473  0195  3001               	movlw	1
  2474  0196  2937               	ljmp	_lcd_komut
  2475  0197                     __end_of_lcd_sil:	
  2476  0197                     __ptext1:	
  2477 ;; *************** function _tustakimi_oku *****************
  2478 ;; Defined at:
  2479 ;;		line 26 in file "tustakimi.c"
  2480 ;; Parameters:    Size  Location     Type
  2481 ;;		None
  2482 ;; Auto vars:     Size  Location     Type
  2483 ;;		None
  2484 ;; Return value:  Size  Location     Type
  2485 ;;                  1    wreg      unsigned char 
  2486 ;; Registers used:
  2487 ;;		wreg, fsr0l, fsr0h, status,2, status,0, pclath, cstack
  2488 ;; Tracked objects:
  2489 ;;		On entry : 0/0
  2490 ;;		On exit  : 1F/0
  2491 ;;		Unchanged: 0/0
  2492 ;; Data sizes:     COMMON   BANK0   BANK1   BANK2   BANK3   BANK4
  2493 ;;      Params:         0       0       0       0       0       0
  2494 ;;      Locals:         0       0       0       0       0       0
  2495 ;;      Temps:          6       0       0       0       0       0
  2496 ;;      Totals:         6       0       0       0       0       0
  2497 ;;Total ram usage:        6 bytes
  2498 ;; Hardware stack levels used:    1
  2499 ;; Hardware stack levels required when called:    5
  2500 ;; This function calls:
  2501 ;;		_buton_kontrol
  2502 ;; This function is called by:
  2503 ;;		_main
  2504 ;; This function uses a non-reentrant model
  2505 ;;
  2506                           
  2507                           
  2508                           ;psect for function _tustakimi_oku
  2509  0197                     _tustakimi_oku:	
  2510                           
  2511                           ;tustakimi.c: 28: LATBbits.LATB0 = 0;
  2512                           
  2513                           ;incstack = 0
  2514                           ; Regs used in _tustakimi_oku: [wreg-fsr0h+status,2+status,0+pclath+cstack]
  2515  0197  0022               	movlb	2	; select bank2
  2516  0198  100D               	bcf	13,0	;volatile
  2517                           
  2518                           ;tustakimi.c: 29: LATBbits.LATB1 = 0;
  2519  0199  108D               	bcf	13,1	;volatile
  2520                           
  2521                           ;tustakimi.c: 30: LATBbits.LATB2 = 0;
  2522  019A  110D               	bcf	13,2	;volatile
  2523                           
  2524                           ;tustakimi.c: 31: LATBbits.LATB3 = 0;
  2525  019B  118D               	bcf	13,3	;volatile
  2526                           
  2527                           ;tustakimi.c: 33: sutunno = 0;
  2528  019C  0020               	movlb	0	; select bank0
  2529  019D  01AE               	clrf	_sutunno
  2530                           
  2531                           ;tustakimi.c: 34: satirno=0;
  2532  019E  01AF               	clrf	_satirno
  2533                           
  2534                           ;tustakimi.c: 36: if (!PORTBbits.RB4)
  2535  019F  1A0D               	btfsc	13,4	;volatile
  2536  01A0  29A4               	goto	l301
  2537                           
  2538                           ;tustakimi.c: 37: sutunno = 1;
  2539  01A1  01AE               	clrf	_sutunno
  2540  01A2  0AAE               	incf	_sutunno,f
  2541  01A3  29B0               	goto	l1576
  2542  01A4                     l301:	
  2543                           
  2544                           ;tustakimi.c: 38: else if (!PORTBbits.RB5)
  2545  01A4  1A8D               	btfsc	13,5	;volatile
  2546  01A5  29A8               	goto	l303
  2547                           
  2548                           ;tustakimi.c: 39: sutunno = 2;
  2549  01A6  3002               	movlw	2
  2550  01A7  29AF               	goto	L8
  2551  01A8                     l303:	
  2552                           
  2553                           ;tustakimi.c: 40: else if (!PORTBbits.RB6)
  2554  01A8  1B0D               	btfsc	13,6	;volatile
  2555  01A9  29AC               	goto	l305
  2556                           
  2557                           ;tustakimi.c: 41: sutunno = 3;
  2558  01AA  3003               	movlw	3
  2559  01AB  29AF               	goto	L8
  2560  01AC                     l305:	
  2561                           
  2562                           ;tustakimi.c: 42: else if (!PORTBbits.RB7)
  2563  01AC  1B8D               	btfsc	13,7	;volatile
  2564  01AD  29B0               	goto	l1576
  2565                           
  2566                           ;tustakimi.c: 43: sutunno = 4;
  2567  01AE  3004               	movlw	4
  2568  01AF                     L8:	
  2569  01AF  00AE               	movwf	_sutunno
  2570  01B0                     l1576:	
  2571                           
  2572                           ;tustakimi.c: 46: if (sutunno) {
  2573  01B0  082E               	movf	_sutunno,w
  2574  01B1  1903               	btfsc	3,2
  2575  01B2  29E5               	goto	l1606
  2576                           
  2577                           ;tustakimi.c: 47: for (satirno = 1; satirno <= 4; satirno++) {
  2578  01B3  01AF               	clrf	_satirno
  2579  01B4  0AAF               	incf	_satirno,f
  2580  01B5  29CB               	goto	l1586
  2581  01B6                     l312:	
  2582                           ;tustakimi.c: 49: case 1:
  2583                           
  2584                           
  2585                           ;tustakimi.c: 50: LATBbits.LATB0 = 0;
  2586  01B6  0022               	movlb	2	; select bank2
  2587  01B7  100D               	bcf	13,0	;volatile
  2588                           
  2589                           ;tustakimi.c: 51: LATBbits.LATB1 = 1;
  2590  01B8  148D               	bsf	13,1	;volatile
  2591  01B9  29BD               	goto	L9
  2592  01BA                     l314:	
  2593                           ;tustakimi.c: 55: case 2:
  2594                           
  2595                           ;tustakimi.c: 54: break;
  2596                           
  2597                           ;tustakimi.c: 53: LATBbits.LATB3 = 1;
  2598                           
  2599                           ;tustakimi.c: 52: LATBbits.LATB2 = 1;
  2600                           
  2601                           
  2602                           ;tustakimi.c: 56: LATBbits.LATB0 = 1;
  2603  01BA  0022               	movlb	2	; select bank2
  2604  01BB  140D               	bsf	13,0	;volatile
  2605                           
  2606                           ;tustakimi.c: 57: LATBbits.LATB1 = 0;
  2607  01BC  108D               	bcf	13,1	;volatile
  2608  01BD                     L9:	
  2609                           
  2610                           ;tustakimi.c: 58: LATBbits.LATB2 = 1;
  2611  01BD  150D               	bsf	13,2	;volatile
  2612  01BE  29C3               	goto	L10
  2613  01BF                     l315:	
  2614                           ;tustakimi.c: 61: case 3:
  2615                           
  2616                           ;tustakimi.c: 60: break;
  2617                           
  2618                           ;tustakimi.c: 59: LATBbits.LATB3 = 1;
  2619                           
  2620                           
  2621                           ;tustakimi.c: 62: LATBbits.LATB0 = 1;
  2622  01BF  0022               	movlb	2	; select bank2
  2623  01C0  140D               	bsf	13,0	;volatile
  2624                           
  2625                           ;tustakimi.c: 63: LATBbits.LATB1 = 1;
  2626  01C1  148D               	bsf	13,1	;volatile
  2627                           
  2628                           ;tustakimi.c: 64: LATBbits.LATB2 = 0;
  2629  01C2  110D               	bcf	13,2	;volatile
  2630  01C3                     L10:	
  2631                           
  2632                           ;tustakimi.c: 65: LATBbits.LATB3 = 1;
  2633  01C3  158D               	bsf	13,3	;volatile
  2634                           
  2635                           ;tustakimi.c: 66: break;
  2636  01C4  29D9               	goto	l313
  2637  01C5                     l316:	
  2638                           ;tustakimi.c: 67: case 4:
  2639                           
  2640                           
  2641                           ;tustakimi.c: 68: LATBbits.LATB0 = 1;
  2642  01C5  0022               	movlb	2	; select bank2
  2643  01C6  140D               	bsf	13,0	;volatile
  2644                           
  2645                           ;tustakimi.c: 69: LATBbits.LATB1 = 1;
  2646  01C7  148D               	bsf	13,1	;volatile
  2647                           
  2648                           ;tustakimi.c: 70: LATBbits.LATB2 = 1;
  2649  01C8  150D               	bsf	13,2	;volatile
  2650                           
  2651                           ;tustakimi.c: 71: LATBbits.LATB3 = 0;
  2652  01C9  118D               	bcf	13,3	;volatile
  2653                           
  2654                           ;tustakimi.c: 72: break;
  2655  01CA  29D9               	goto	l313
  2656  01CB                     l1586:	
  2657  01CB  082F               	movf	_satirno,w
  2658                           
  2659                           ; Switch size 1, requested type "space"
  2660                           ; Number of cases is 4, Range of values is 1 to 4
  2661                           ; switch strategies available:
  2662                           ; Name         Instructions Cycles
  2663                           ; simple_byte           13     7 (average)
  2664                           ; direct_byte           17     9 (fixed)
  2665                           ; jumptable            263     9 (fixed)
  2666                           ;	Chosen strategy is simple_byte
  2667  01CC  3A01               	xorlw	1	; case 1
  2668  01CD  1903               	skipnz
  2669  01CE  29B6               	goto	l312
  2670  01CF  3A03               	xorlw	3	; case 2
  2671  01D0  1903               	skipnz
  2672  01D1  29BA               	goto	l314
  2673  01D2  3A01               	xorlw	1	; case 3
  2674  01D3  1903               	skipnz
  2675  01D4  29BF               	goto	l315
  2676  01D5  3A07               	xorlw	7	; case 4
  2677  01D6  1903               	skipnz
  2678  01D7  29C5               	goto	l316
  2679  01D8  29D9               	goto	l313
  2680  01D9                     l313:	
  2681                           
  2682                           ;tustakimi.c: 76: if (!PORTBbits.RB4)
  2683  01D9  0020               	movlb	0	; select bank0
  2684  01DA  1A0D               	btfsc	13,4	;volatile
  2685                           
  2686                           ;tustakimi.c: 78: else if (!PORTBbits.RB5)
  2687  01DB  1E8D               	btfss	13,5	;volatile
  2688  01DC  29E5               	goto	l1606
  2689                           
  2690                           ;tustakimi.c: 80: else if (!PORTBbits.RB6)
  2691  01DD  1B0D               	btfsc	13,6	;volatile
  2692                           
  2693                           ;tustakimi.c: 82: else if (!PORTBbits.RB7)
  2694  01DE  1F8D               	btfss	13,7	;volatile
  2695  01DF  29E5               	goto	l1606
  2696  01E0  3005               	movlw	5
  2697  01E1  0AAF               	incf	_satirno,f
  2698  01E2  022F               	subwf	_satirno,w
  2699  01E3  1C03               	skipc
  2700  01E4  29CB               	goto	l1586
  2701  01E5                     l1606:	
  2702                           
  2703                           ;tustakimi.c: 84: }
  2704                           ;tustakimi.c: 85: }
  2705                           ;tustakimi.c: 90: if(satirno && sutunno)
  2706  01E5  082F               	movf	_satirno,w
  2707  01E6  1903               	btfsc	3,2
  2708  01E7  2A06               	goto	l1612
  2709  01E8  082E               	movf	_sutunno,w
  2710  01E9  1903               	btfsc	3,2
  2711  01EA  2A06               	goto	l1612
  2712                           
  2713                           ;tustakimi.c: 91: {
  2714                           ;tustakimi.c: 92: butonNo=tuslar[(satirno-1)*4+(sutunno-1)];
  2715  01EB  082F               	movf	_satirno,w
  2716  01EC  00F8               	movwf	??_tustakimi_oku
  2717  01ED  3019               	movlw	low ((_tuslar| (0+32768)+65531))
  2718  01EE  01F9               	clrf	??_tustakimi_oku+1
  2719  01EF  35F8               	lslf	??_tustakimi_oku,f
  2720  01F0  0DF9               	rlf	??_tustakimi_oku+1,f
  2721  01F1  35F8               	lslf	??_tustakimi_oku,f
  2722  01F2  0DF9               	rlf	??_tustakimi_oku+1,f
  2723  01F3  00FA               	movwf	??_tustakimi_oku+2
  2724  01F4  3083               	movlw	high ((_tuslar| (0+32768)+65531))
  2725  01F5  00FB               	movwf	??_tustakimi_oku+3
  2726  01F6  0878               	movf	??_tustakimi_oku,w
  2727  01F7  077A               	addwf	??_tustakimi_oku+2,w
  2728  01F8  00FC               	movwf	??_tustakimi_oku+4
  2729  01F9  0879               	movf	??_tustakimi_oku+1,w
  2730  01FA  3D7B               	addwfc	??_tustakimi_oku+3,w
  2731  01FB  00FD               	movwf	??_tustakimi_oku+5
  2732  01FC  082E               	movf	_sutunno,w
  2733  01FD  077C               	addwf	??_tustakimi_oku+4,w
  2734  01FE  0084               	movwf	4
  2735  01FF  087D               	movf	??_tustakimi_oku+5,w
  2736  0200  1803               	skipnc
  2737  0201  0A7D               	incf	??_tustakimi_oku+5,w
  2738  0202  0085               	movwf	5
  2739  0203  0800               	movf	0,w	;code access
  2740  0204  00B2               	movwf	_butonNo
  2741                           
  2742                           ;tustakimi.c: 93: }
  2743  0205  2A07               	goto	l1614
  2744  0206                     l1612:	
  2745                           
  2746                           ;tustakimi.c: 94: else
  2747                           ;tustakimi.c: 95: {
  2748                           ;tustakimi.c: 96: butonNo=0;
  2749  0206  01B2               	clrf	_butonNo
  2750  0207                     l1614:	
  2751                           
  2752                           ;tustakimi.c: 97: }
  2753                           ;tustakimi.c: 98: return buton_kontrol();
  2754  0207  2A1F               	ljmp	l1374
  2755  0208                     __end_of_tustakimi_oku:	
  2756  0208                     __ptext14:	
  2757 ;; *************** function _TMR6_Initialize *****************
  2758 ;; Defined at:
  2759 ;;		line 63 in file "mcc_generated_files/tmr6.c"
  2760 ;; Parameters:    Size  Location     Type
  2761 ;;		None
  2762 ;; Auto vars:     Size  Location     Type
  2763 ;;		None
  2764 ;; Return value:  Size  Location     Type
  2765 ;;                  1    wreg      void 
  2766 ;; Registers used:
  2767 ;;		wreg, status,2, status,0, pclath, cstack
  2768 ;; Tracked objects:
  2769 ;;		On entry : B1F/1
  2770 ;;		On exit  : 1F/8
  2771 ;;		Unchanged: 0/0
  2772 ;; Data sizes:     COMMON   BANK0   BANK1   BANK2   BANK3   BANK4
  2773 ;;      Params:         0       0       0       0       0       0
  2774 ;;      Locals:         0       0       0       0       0       0
  2775 ;;      Temps:          0       0       0       0       0       0
  2776 ;;      Totals:         0       0       0       0       0       0
  2777 ;;Total ram usage:        0 bytes
  2778 ;; Hardware stack levels used:    1
  2779 ;; Hardware stack levels required when called:    4
  2780 ;; This function calls:
  2781 ;;		_TMR6_SetInterruptHandler
  2782 ;;		_TMR6_StartTimer
  2783 ;; This function is called by:
  2784 ;;		_SYSTEM_Initialize
  2785 ;; This function uses a non-reentrant model
  2786 ;;
  2787                           
  2788                           
  2789                           ;psect for function _TMR6_Initialize
  2790  0208                     _TMR6_Initialize:	
  2791  0208                     l1356:	
  2792                           ;incstack = 0
  2793                           ; Regs used in _TMR6_Initialize: [wreg+status,2+status,0+pclath+cstack]
  2794                           
  2795                           
  2796                           ;tmr6.c: 68: T6CON = 0x0A;
  2797  0208  300A               	movlw	10
  2798  0209  0028               	movlb	8	; select bank8
  2799  020A  009E               	movwf	30	;volatile
  2800                           
  2801                           ;tmr6.c: 71: PR6 = 0xF9;
  2802  020B  30F9               	movlw	249
  2803  020C  009D               	movwf	29	;volatile
  2804                           
  2805                           ;tmr6.c: 74: TMR6 = 0x00;
  2806  020D  019C               	clrf	28	;volatile
  2807                           
  2808                           ;tmr6.c: 77: PIR3bits.TMR6IF = 0;
  2809  020E  0020               	movlb	0	; select bank0
  2810  020F  1193               	bcf	19,3	;volatile
  2811                           
  2812                           ;tmr6.c: 80: PIE3bits.TMR6IE = 1;
  2813  0210  0021               	movlb	1	; select bank1
  2814  0211  1593               	bsf	19,3	;volatile
  2815                           
  2816                           ;tmr6.c: 83: TMR6_SetInterruptHandler(TMR6_DefaultInterruptHandler);
  2817  0212  30A8               	movlw	low _TMR6_DefaultInterruptHandler
  2818  0213  00F0               	movwf	TMR6_SetInterruptHandler@InterruptHandler
  2819  0214  3003               	movlw	high _TMR6_DefaultInterruptHandler
  2820  0215  00F1               	movwf	TMR6_SetInterruptHandler@InterruptHandler+1
  2821  0216  216A  3180         	fcall	_TMR6_SetInterruptHandler
  2822                           
  2823                           ;tmr6.c: 86: TMR6_StartTimer();
  2824  0218  2A1C               	ljmp	l1284
  2825  0219                     __end_of_TMR6_Initialize:	
  2826  0219                     __ptext13:	
  2827 ;; *************** function _WDT_Initialize *****************
  2828 ;; Defined at:
  2829 ;;		line 90 in file "mcc_generated_files/mcc.c"
  2830 ;; Parameters:    Size  Location     Type
  2831 ;;		None
  2832 ;; Auto vars:     Size  Location     Type
  2833 ;;		None
  2834 ;; Return value:  Size  Location     Type
  2835 ;;                  1    wreg      void 
  2836 ;; Registers used:
  2837 ;;		wreg
  2838 ;; Tracked objects:
  2839 ;;		On entry : B1F/1
  2840 ;;		On exit  : B1F/1
  2841 ;;		Unchanged: B00/0
  2842 ;; Data sizes:     COMMON   BANK0   BANK1   BANK2   BANK3   BANK4
  2843 ;;      Params:         0       0       0       0       0       0
  2844 ;;      Locals:         0       0       0       0       0       0
  2845 ;;      Temps:          0       0       0       0       0       0
  2846 ;;      Totals:         0       0       0       0       0       0
  2847 ;;Total ram usage:        0 bytes
  2848 ;; Hardware stack levels used:    1
  2849 ;; Hardware stack levels required when called:    3
  2850 ;; This function calls:
  2851 ;;		Nothing
  2852 ;; This function is called by:
  2853 ;;		_SYSTEM_Initialize
  2854 ;; This function uses a non-reentrant model
  2855 ;;
  2856                           
  2857                           
  2858                           ;psect for function _WDT_Initialize
  2859  0219                     _WDT_Initialize:	
  2860                           
  2861                           ;mcc.c: 93: WDTCON = 0x16;
  2862                           
  2863                           ;incstack = 0
  2864                           ; Regs used in _WDT_Initialize: [wreg]
  2865  0219  3016               	movlw	22
  2866  021A  0097               	movwf	23	;volatile
  2867  021B  0008               	return
  2868  021C                     __end_of_WDT_Initialize:	
  2869  021C                     __ptext15:	
  2870 ;; *************** function _TMR6_StartTimer *****************
  2871 ;; Defined at:
  2872 ;;		line 89 in file "mcc_generated_files/tmr6.c"
  2873 ;; Parameters:    Size  Location     Type
  2874 ;;		None
  2875 ;; Auto vars:     Size  Location     Type
  2876 ;;		None
  2877 ;; Return value:  Size  Location     Type
  2878 ;;                  1    wreg      void 
  2879 ;; Registers used:
  2880 ;;		None
  2881 ;; Tracked objects:
  2882 ;;		On entry : 1F/0
  2883 ;;		On exit  : 1F/8
  2884 ;;		Unchanged: 0/0
  2885 ;; Data sizes:     COMMON   BANK0   BANK1   BANK2   BANK3   BANK4
  2886 ;;      Params:         0       0       0       0       0       0
  2887 ;;      Locals:         0       0       0       0       0       0
  2888 ;;      Temps:          0       0       0       0       0       0
  2889 ;;      Totals:         0       0       0       0       0       0
  2890 ;;Total ram usage:        0 bytes
  2891 ;; Hardware stack levels used:    1
  2892 ;; Hardware stack levels required when called:    3
  2893 ;; This function calls:
  2894 ;;		Nothing
  2895 ;; This function is called by:
  2896 ;;		_TMR6_Initialize
  2897 ;; This function uses a non-reentrant model
  2898 ;;
  2899                           
  2900                           
  2901                           ;psect for function _TMR6_StartTimer
  2902  021C                     _TMR6_StartTimer:	
  2903  021C                     l1284:	
  2904                           ;incstack = 0
  2905                           ; Regs used in _TMR6_StartTimer: []
  2906                           
  2907                           
  2908                           ;tmr6.c: 92: T6CONbits.TMR6ON = 1;
  2909  021C  0028               	movlb	8	; select bank8
  2910  021D  151E               	bsf	30,2	;volatile
  2911  021E  0008               	return
  2912  021F                     __end_of_TMR6_StartTimer:	
  2913  021F                     __ptext2:	
  2914 ;; *************** function _buton_kontrol *****************
  2915 ;; Defined at:
  2916 ;;		line 103 in file "tustakimi.c"
  2917 ;; Parameters:    Size  Location     Type
  2918 ;;		None
  2919 ;; Auto vars:     Size  Location     Type
  2920 ;;		None
  2921 ;; Return value:  Size  Location     Type
  2922 ;;                  1    wreg      unsigned char 
  2923 ;; Registers used:
  2924 ;;		wreg, fsr0l, fsr0h, status,2, status,0, pclath, cstack
  2925 ;; Tracked objects:
  2926 ;;		On entry : 1F/0
  2927 ;;		On exit  : 1F/0
  2928 ;;		Unchanged: 0/0
  2929 ;; Data sizes:     COMMON   BANK0   BANK1   BANK2   BANK3   BANK4
  2930 ;;      Params:         0       0       0       0       0       0
  2931 ;;      Locals:         0       0       0       0       0       0
  2932 ;;      Temps:          4       0       0       0       0       0
  2933 ;;      Totals:         4       0       0       0       0       0
  2934 ;;Total ram usage:        4 bytes
  2935 ;; Hardware stack levels used:    1
  2936 ;; Hardware stack levels required when called:    4
  2937 ;; This function calls:
  2938 ;;		_miliSaniye
  2939 ;; This function is called by:
  2940 ;;		_tustakimi_oku
  2941 ;; This function uses a non-reentrant model
  2942 ;;
  2943                           
  2944                           
  2945                           ;psect for function _buton_kontrol
  2946  021F                     _buton_kontrol:	
  2947  021F                     l1374:	
  2948                           ;incstack = 0
  2949                           ; Regs used in _buton_kontrol: [wreg-fsr0h+status,2+status,0+pclath+cstack]
  2950                           
  2951                           
  2952                           ;tustakimi.c: 104: switch (butonDurumu) {
  2953  021F  2AE7               	goto	l1500
  2954  0220                     l1376:	
  2955                           
  2956                           ;tustakimi.c: 106: if (butonNo) {
  2957  0220  0832               	movf	_butonNo,w
  2958  0221  1903               	btfsc	3,2
  2959  0222  2A2D               	goto	l1388
  2960                           
  2961                           ;tustakimi.c: 107: butonSure = miliSaniye();
  2962  0223  22F2  3180         	fcall	_miliSaniye
  2963  0225  2309               	fcall	PL4	;call to abstracted procedure
  2964                           
  2965                           ;tustakimi.c: 108: butonDurumu = DEBOUNCE;
  2966  0226  01B4               	clrf	_butonDurumu
  2967  0227  0AB4               	incf	_butonDurumu,f
  2968                           
  2969                           ;tustakimi.c: 109: butonNo_kayit = butonNo;
  2970  0228  0832               	movf	_butonNo,w
  2971  0229  00B1               	movwf	_butonNo_kayit
  2972                           
  2973                           ;tustakimi.c: 111: uzunBasildi = 0;
  2974  022A  10B5               	bcf	_uzunBasildi/(0+8),_uzunBasildi& (0+7)
  2975                           
  2976                           ;tustakimi.c: 112: kisaBasildi = 0;
  2977  022B  1035               	bcf	_kisaBasildi/(0+8),_kisaBasildi& (0+7)
  2978                           
  2979                           ;tustakimi.c: 113: } else {
  2980  022C  3400               	retlw	0
  2981  022D                     l1388:	
  2982                           
  2983                           ;tustakimi.c: 114: butonNo_kayit = 0;
  2984  022D  01B1               	clrf	_butonNo_kayit
  2985  022E  3400               	retlw	0
  2986  022F                     l1396:	
  2987                           
  2988                           ;tustakimi.c: 123: if (butonNo == butonNo_kayit) {
  2989  022F  0832               	movf	_butonNo,w
  2990  0230  0631               	xorwf	_butonNo_kayit,w
  2991  0231  1D03               	skipz
  2992  0232  2A4A               	goto	l1408
  2993                           
  2994                           ;tustakimi.c: 124: if (miliSaniye() - butonSure > 20u) {
  2995  0233  22F2  3180         	fcall	_miliSaniye
  2996  0235  22FB  3180         	fcall	PL2	;call to abstracted procedure
  2997  0237  1D03               	btfss	3,2
  2998  0238  2A43               	goto	l1400
  2999  0239  0876               	movf	??_buton_kontrol+2,w
  3000  023A  1D03               	btfss	3,2
  3001  023B  2A43               	goto	l1400
  3002  023C  0875               	movf	??_buton_kontrol+1,w
  3003  023D  1D03               	btfss	3,2
  3004  023E  2A43               	goto	l1400
  3005  023F  3015               	movlw	21
  3006  0240  0274               	subwf	??_buton_kontrol,w
  3007  0241  1C03               	btfss	3,0
  3008  0242  3400               	retlw	0
  3009  0243                     l1400:	
  3010                           
  3011                           ;tustakimi.c: 125: butonDurumu = BASILDI;
  3012  0243  3002               	movlw	2
  3013  0244                     L11:	
  3014  0244  00B4               	movwf	_butonDurumu
  3015                           
  3016                           ;tustakimi.c: 126: butonSure = miliSaniye();
  3017  0245  22F2  3180         	fcall	_miliSaniye
  3018  0247  2309               	fcall	PL4	;call to abstracted procedure
  3019  0248                     l1404:	
  3020                           
  3021                           ;tustakimi.c: 127: return butonNo;
  3022  0248  0832               	movf	_butonNo,w
  3023  0249  0008               	return
  3024  024A                     l1408:	
  3025                           
  3026                           ;tustakimi.c: 130: else {
  3027                           ;tustakimi.c: 132: butonNo_kayit = butonNo;
  3028  024A  0832               	movf	_butonNo,w
  3029  024B  00B1               	movwf	_butonNo_kayit
  3030                           
  3031                           ;tustakimi.c: 133: butonSure = miliSaniye();
  3032  024C  22F2  3180         	fcall	_miliSaniye
  3033  024E  2309               	fcall	PL4	;call to abstracted procedure
  3034                           
  3035                           ;tustakimi.c: 115: return 0x00;
  3036  024F  3400               	retlw	0
  3037  0250                     l1394:	
  3038                           
  3039                           ;tustakimi.c: 122: if (butonNo) {
  3040  0250  0832               	movf	_butonNo,w
  3041  0251  1D03               	btfss	3,2
  3042  0252  2A2F               	goto	l1396
  3043                           
  3044                           ;tustakimi.c: 137: butonDurumu = SERBEST;
  3045  0253  01B4               	clrf	_butonDurumu
  3046  0254  3400               	retlw	0
  3047  0255                     l1414:	
  3048                           
  3049                           ;tustakimi.c: 142: if (butonNo) {
  3050  0255  0832               	movf	_butonNo,w
  3051  0256  1903               	btfsc	3,2
  3052  0257  3400               	retlw	0
  3053                           
  3054                           ;tustakimi.c: 143: butonDurumu = BASILI_TUTULUYOR;
  3055  0258  3003               	movlw	3
  3056  0259  2A44               	goto	L11
  3057  025A                     l1424:	
  3058                           
  3059                           ;tustakimi.c: 150: if (butonNo) {
  3060  025A  0832               	movf	_butonNo,w
  3061  025B  1903               	btfsc	3,2
  3062  025C  2A8D               	goto	l1450
  3063                           
  3064                           ;tustakimi.c: 151: if (butonNo == butonNo_kayit) {
  3065  025D  0832               	movf	_butonNo,w
  3066  025E  0631               	xorwf	_butonNo_kayit,w
  3067  025F  1D03               	skipz
  3068  0260  3400               	retlw	0
  3069                           
  3070                           ;tustakimi.c: 152: if (kisaBasildi == 0) {
  3071  0261  1835               	btfsc	_kisaBasildi/(0+8),_kisaBasildi& (0+7)
  3072  0262  2A77               	goto	l346
  3073                           
  3074                           ;tustakimi.c: 153: if (miliSaniye() - butonSure > 300u) {
  3075  0263  22F2  3180         	fcall	_miliSaniye
  3076  0265  22FB  3180         	fcall	PL2	;call to abstracted procedure
  3077  0267  1D03               	btfss	3,2
  3078  0268  2A72               	goto	l1432
  3079  0269  0876               	movf	??_buton_kontrol+2,w
  3080  026A  1D03               	btfss	3,2
  3081  026B  2A72               	goto	l1432
  3082  026C  302D               	movlw	45
  3083  026D  0274               	subwf	??_buton_kontrol,w
  3084  026E  3001               	movlw	1
  3085  026F  3B75               	subwfb	??_buton_kontrol+1,w
  3086  0270  1C03               	btfss	3,0
  3087  0271  2A77               	goto	l346
  3088  0272                     l1432:	
  3089  0272  3005               	movlw	5
  3090                           
  3091                           ;tustakimi.c: 154: kisaBasildi = 1;
  3092  0273  1435               	bsf	_kisaBasildi/(0+8),_kisaBasildi& (0+7)
  3093                           
  3094                           ;tustakimi.c: 155: butonDurumu = KISA_BASILDI;
  3095  0274  00B4               	movwf	_butonDurumu
  3096                           
  3097                           ;tustakimi.c: 156: return butonNo;
  3098  0275  0832               	movf	_butonNo,w
  3099  0276  0008               	return
  3100  0277                     l346:	
  3101                           
  3102                           ;tustakimi.c: 157: }
  3103                           ;tustakimi.c: 158: }
  3104                           ;tustakimi.c: 159: if (uzunBasildi == 0) {
  3105  0277  18B5               	btfsc	_uzunBasildi/(0+8),_uzunBasildi& (0+7)
  3106  0278  2A48               	goto	l1404
  3107                           
  3108                           ;tustakimi.c: 160: if (miliSaniye() - butonSure > 1500u) {
  3109  0279  22F2  3180         	fcall	_miliSaniye
  3110  027B  22FB  3180         	fcall	PL2	;call to abstracted procedure
  3111  027D  1D03               	btfss	3,2
  3112  027E  2A88               	goto	l1440
  3113  027F  0876               	movf	??_buton_kontrol+2,w
  3114  0280  1D03               	btfss	3,2
  3115  0281  2A88               	goto	l1440
  3116  0282  30DD               	movlw	221
  3117  0283  0274               	subwf	??_buton_kontrol,w
  3118  0284  3005               	movlw	5
  3119  0285  3B75               	subwfb	??_buton_kontrol+1,w
  3120  0286  1C03               	btfss	3,0
  3121  0287  2A48               	goto	l1404
  3122  0288                     l1440:	
  3123  0288  3006               	movlw	6
  3124                           
  3125                           ;tustakimi.c: 161: uzunBasildi = 1;
  3126  0289  14B5               	bsf	_uzunBasildi/(0+8),_uzunBasildi& (0+7)
  3127                           
  3128                           ;tustakimi.c: 162: butonDurumu = UZUN_BASILDI;
  3129  028A  00B4               	movwf	_butonDurumu
  3130                           
  3131                           ;tustakimi.c: 163: return butonNo;
  3132  028B  0832               	movf	_butonNo,w
  3133  028C  0008               	return
  3134  028D                     l1450:	
  3135                           
  3136                           ;tustakimi.c: 170: butonSure = miliSaniye();
  3137  028D  22F2  3180         	fcall	_miliSaniye
  3138  028F  2309  3180         	fcall	PL4	;call to abstracted procedure
  3139                           
  3140                           ;tustakimi.c: 171: butonDurumu = DEBOUNCE2;
  3141  0291  3007               	movlw	7
  3142  0292  2AB2               	goto	L12
  3143  0293                     l1454:	
  3144                           
  3145                           ;tustakimi.c: 176: case UZUN_BASILDI:
  3146                           ;tustakimi.c: 177: if (butonNo) {
  3147  0293  0832               	movf	_butonNo,w
  3148  0294  1903               	btfsc	3,2
  3149  0295  3400               	retlw	0
  3150                           
  3151                           ;tustakimi.c: 178: butonDurumu = BASILI_TUTULUYOR;
  3152  0296  3003               	movlw	3
  3153  0297  00B4               	movwf	_butonDurumu
  3154                           
  3155                           ;tustakimi.c: 179: return butonNo;
  3156  0298  0832               	movf	_butonNo,w
  3157  0299  0008               	return
  3158  029A                     l1460:	
  3159                           
  3160                           ;tustakimi.c: 186: if (butonNo == 0) {
  3161  029A  0832               	movf	_butonNo,w
  3162  029B  1D03               	btfss	3,2
  3163  029C  2AB1               	goto	l1468
  3164                           
  3165                           ;tustakimi.c: 187: if (miliSaniye() - butonSure > 20u) {
  3166  029D  22F2  3180         	fcall	_miliSaniye
  3167  029F  22FB  3180         	fcall	PL2	;call to abstracted procedure
  3168  02A1  1D03               	btfss	3,2
  3169  02A2  2AAD               	goto	l1464
  3170  02A3  0876               	movf	??_buton_kontrol+2,w
  3171  02A4  1D03               	btfss	3,2
  3172  02A5  2AAD               	goto	l1464
  3173  02A6  0875               	movf	??_buton_kontrol+1,w
  3174  02A7  1D03               	btfss	3,2
  3175  02A8  2AAD               	goto	l1464
  3176  02A9  3015               	movlw	21
  3177  02AA  0274               	subwf	??_buton_kontrol,w
  3178  02AB  1C03               	btfss	3,0
  3179  02AC  3400               	retlw	0
  3180  02AD                     l1464:	
  3181                           
  3182                           ;tustakimi.c: 188: butonDurumu = BIRAKILDI;
  3183  02AD  3008               	movlw	8
  3184  02AE  00B4               	movwf	_butonDurumu
  3185                           
  3186                           ;tustakimi.c: 189: return butonNo_kayit;
  3187  02AF  0831               	movf	_butonNo_kayit,w
  3188  02B0  0008               	return
  3189  02B1                     l1468:	
  3190                           
  3191                           ;tustakimi.c: 192: butonDurumu = BASILI_TUTULUYOR;
  3192  02B1  3003               	movlw	3
  3193  02B2                     L12:	
  3194  02B2  00B4               	movwf	_butonDurumu
  3195  02B3  3400               	retlw	0
  3196  02B4                     l1470:	
  3197                           
  3198                           ;tustakimi.c: 197: butonDurumu = SERBEST;
  3199  02B4  01B4               	clrf	_butonDurumu
  3200                           
  3201                           ;tustakimi.c: 198: return butonNo_kayit;
  3202  02B5  0831               	movf	_butonNo_kayit,w
  3203  02B6  0008               	return
  3204  02B7                     l1478:	
  3205                           
  3206                           ;tustakimi.c: 206: if (butonNo_kayit == oncekiButonNo && miliSaniye() - ciftTiklamaSure 
      +                          < 250u) {
  3207  02B7  0831               	movf	_butonNo_kayit,w
  3208  02B8  0630               	xorwf	_oncekiButonNo,w
  3209  02B9  1D03               	skipz
  3210  02BA  2ADA               	goto	l1486
  3211  02BB  22F2  3180         	fcall	_miliSaniye
  3212  02BD  0824               	movf	_ciftTiklamaSure,w
  3213  02BE  0270               	subwf	?_miliSaniye,w
  3214  02BF  00F4               	movwf	??_buton_kontrol
  3215  02C0  0825               	movf	_ciftTiklamaSure+1,w
  3216  02C1  3B71               	subwfb	?_miliSaniye+1,w
  3217  02C2  00F5               	movwf	??_buton_kontrol+1
  3218  02C3  0826               	movf	_ciftTiklamaSure+2,w
  3219  02C4  3B72               	subwfb	?_miliSaniye+2,w
  3220  02C5  00F6               	movwf	??_buton_kontrol+2
  3221  02C6  0827               	movf	_ciftTiklamaSure+3,w
  3222  02C7  3B73               	subwfb	?_miliSaniye+3,w
  3223  02C8  00F7               	movwf	??_buton_kontrol+3
  3224  02C9  0877               	movf	??_buton_kontrol+3,w
  3225  02CA  1D03               	btfss	3,2
  3226  02CB  2ADA               	goto	l1486
  3227  02CC  0876               	movf	??_buton_kontrol+2,w
  3228  02CD  1D03               	btfss	3,2
  3229  02CE  2ADA               	goto	l1486
  3230  02CF  0875               	movf	??_buton_kontrol+1,w
  3231  02D0  1D03               	btfss	3,2
  3232  02D1  2ADA               	goto	l1486
  3233  02D2  30FA               	movlw	250
  3234  02D3  0274               	subwf	??_buton_kontrol,w
  3235  02D4  1803               	btfsc	3,0
  3236  02D5  2ADA               	goto	l1486
  3237                           
  3238                           ;tustakimi.c: 207: butonDurumu = CIFT_TIKLAMA;
  3239  02D6  3004               	movlw	4
  3240  02D7  00B4               	movwf	_butonDurumu
  3241                           
  3242                           ;tustakimi.c: 208: return butonNo_kayit;
  3243  02D8  0831               	movf	_butonNo_kayit,w
  3244  02D9  0008               	return
  3245  02DA                     l1486:	
  3246                           
  3247                           ;tustakimi.c: 209: }
  3248                           ;tustakimi.c: 211: oncekiButonNo = butonNo_kayit;
  3249  02DA  0831               	movf	_butonNo_kayit,w
  3250  02DB  00B0               	movwf	_oncekiButonNo
  3251                           
  3252                           ;tustakimi.c: 212: ciftTiklamaSure = miliSaniye();
  3253  02DC  22F2  3180         	fcall	_miliSaniye
  3254  02DE  0873               	movf	?_miliSaniye+3,w
  3255  02DF  00A7               	movwf	_ciftTiklamaSure+3
  3256  02E0  0872               	movf	?_miliSaniye+2,w
  3257  02E1  00A6               	movwf	_ciftTiklamaSure+2
  3258  02E2  0871               	movf	?_miliSaniye+1,w
  3259  02E3  00A5               	movwf	_ciftTiklamaSure+1
  3260  02E4  0870               	movf	?_miliSaniye,w
  3261  02E5  00A4               	movwf	_ciftTiklamaSure
  3262  02E6  2AB4               	goto	l1470
  3263  02E7                     l1500:	
  3264  02E7  0834               	movf	_butonDurumu,w
  3265                           
  3266                           ; Switch size 1, requested type "space"
  3267                           ; Number of cases is 9, Range of values is 0 to 8
  3268                           ; switch strategies available:
  3269                           ; Name         Instructions Cycles
  3270                           ; direct_byte           24     6 (fixed)
  3271                           ; simple_byte           28    15 (average)
  3272                           ; jumptable            260     6 (fixed)
  3273                           ;	Chosen strategy is direct_byte
  3274  02E8  0084               	movwf	4
  3275  02E9  3009               	movlw	9
  3276  02EA  0204               	subwf	4,w
  3277  02EB  1803               	skipnc
  3278  02EC  3400               	retlw	0
  3279  02ED  3183               	movlp	high S1674
  3280  02EE  3504               	lslf	4,w
  3281  02EF  3E3E               	addlw	low S1674
  3282  02F0  0082               	movwf	2
  3283  02F1  0008               	return
  3284  02F2                     __end_of_buton_kontrol:	
  3285  02F2                     __ptext3:	
  3286 ;; *************** function _miliSaniye *****************
  3287 ;; Defined at:
  3288 ;;		line 22 in file "zaman.c"
  3289 ;; Parameters:    Size  Location     Type
  3290 ;;		None
  3291 ;; Auto vars:     Size  Location     Type
  3292 ;;		None
  3293 ;; Return value:  Size  Location     Type
  3294 ;;                  4    0[COMMON] unsigned long 
  3295 ;; Registers used:
  3296 ;;		wreg
  3297 ;; Tracked objects:
  3298 ;;		On entry : 1F/0
  3299 ;;		On exit  : 1F/0
  3300 ;;		Unchanged: 0/0
  3301 ;; Data sizes:     COMMON   BANK0   BANK1   BANK2   BANK3   BANK4
  3302 ;;      Params:         4       0       0       0       0       0
  3303 ;;      Locals:         0       0       0       0       0       0
  3304 ;;      Temps:          0       0       0       0       0       0
  3305 ;;      Totals:         4       0       0       0       0       0
  3306 ;;Total ram usage:        4 bytes
  3307 ;; Hardware stack levels used:    1
  3308 ;; Hardware stack levels required when called:    3
  3309 ;; This function calls:
  3310 ;;		Nothing
  3311 ;; This function is called by:
  3312 ;;		_buton_kontrol
  3313 ;; This function uses a non-reentrant model
  3314 ;;
  3315                           
  3316                           
  3317                           ;psect for function _miliSaniye
  3318  02F2                     _miliSaniye:	
  3319                           
  3320                           ;zaman.c: 24: return _msaniye;
  3321                           
  3322                           ;incstack = 0
  3323                           ; Regs used in _miliSaniye: [wreg]
  3324  02F2  0823               	movf	__msaniye+3,w	;volatile
  3325  02F3  00F3               	movwf	?_miliSaniye+3
  3326  02F4  0822               	movf	__msaniye+2,w	;volatile
  3327  02F5  00F2               	movwf	?_miliSaniye+2
  3328  02F6  0821               	movf	__msaniye+1,w	;volatile
  3329  02F7  00F1               	movwf	?_miliSaniye+1
  3330  02F8  0820               	movf	__msaniye,w	;volatile
  3331  02F9  00F0               	movwf	?_miliSaniye
  3332  02FA  0008               	return
  3333  02FB                     __end_of_miliSaniye:	
  3334  02FB                     PL2:	
  3335  02FB  0828               	movf	_butonSure,w
  3336  02FC  0270               	subwf	?_miliSaniye,w
  3337  02FD  00F4               	movwf	??_buton_kontrol
  3338  02FE  0829               	movf	_butonSure+1,w
  3339  02FF  3B71               	subwfb	?_miliSaniye+1,w
  3340  0300  00F5               	movwf	??_buton_kontrol+1
  3341  0301  082A               	movf	_butonSure+2,w
  3342  0302  3B72               	subwfb	?_miliSaniye+2,w
  3343  0303  00F6               	movwf	??_buton_kontrol+2
  3344  0304  082B               	movf	_butonSure+3,w
  3345  0305  3B73               	subwfb	?_miliSaniye+3,w
  3346  0306  00F7               	movwf	??_buton_kontrol+3
  3347  0307  0877               	movf	??_buton_kontrol+3,w
  3348  0308  0008               	return
  3349  0309                     __end_ofPL2:	
  3350  0309                     PL4:	
  3351  0309  0873               	movf	?_miliSaniye+3,w
  3352  030A  00AB               	movwf	_butonSure+3
  3353  030B  0872               	movf	?_miliSaniye+2,w
  3354  030C  00AA               	movwf	_butonSure+2
  3355  030D  0871               	movf	?_miliSaniye+1,w
  3356  030E  00A9               	movwf	_butonSure+1
  3357  030F  0870               	movf	?_miliSaniye,w
  3358  0310  00A8               	movwf	_butonSure
  3359  0311  0008               	return
  3360  0312                     __end_ofPL4:	
  3361  0312                     PL6:	
  3362  0312  080D               	movf	13,w	;volatile
  3363  0313  39F0               	andlw	240
  3364  0314  0470               	iorwf	??_lcd_harfyaz,w
  3365  0315  008D               	movwf	13	;volatile
  3366  0316  178C               	bsf	12,7	;volatile
  3367  0317  0008               	return
  3368  0318                     __end_ofPL6:	
  3369  0318                     PL8:	
  3370  0318  080D               	movf	13,w	;volatile
  3371  0319  39F0               	andlw	240
  3372  031A  0470               	iorwf	??_lcd_komut,w
  3373  031B  008D               	movwf	13	;volatile
  3374  031C  178C               	bsf	12,7	;volatile
  3375  031D  0008               	return
  3376  031E                     __end_ofPL8:	
  3377                           
  3378                           	psect	bitbssBANK0
  3379  01A8                     __pbitbssBANK0:	
  3380  01A8                     _kisaBasildi:	
  3381  01A8                     	ds	1
  3382  01A9                     _uzunBasildi:	
  3383  01A9                     	ds	1
  3384                           
  3385                           	psect	bssBANK0
  3386  0020                     __pbssBANK0:	
  3387  0020                     __msaniye:	
  3388  0020                     	ds	4
  3389  0024                     _ciftTiklamaSure:	
  3390  0024                     	ds	4
  3391  0028                     _butonSure:	
  3392  0028                     	ds	4
  3393  002C                     _TMR6_InterruptHandler:	
  3394  002C                     	ds	2
  3395  002E                     _sutunno:	
  3396  002E                     	ds	1
  3397  002F                     _satirno:	
  3398  002F                     	ds	1
  3399  0030                     _oncekiButonNo:	
  3400  0030                     	ds	1
  3401  0031                     _butonNo_kayit:	
  3402  0031                     	ds	1
  3403  0032                     _butonNo:	
  3404  0032                     	ds	1
  3405  0033                     _tusno:	
  3406  0033                     	ds	1
  3407  0034                     _butonDurumu:	
  3408  0034                     	ds	1
  3409                           
  3410                           	psect	clrtext
  3411  03A2                     clear_ram0:	
  3412                           ;	Called with FSR0 containing the base address, and
  3413                           ;	WREG with the size to clear
  3414                           
  3415  03A2  0064               	clrwdt	;clear the watchdog before getting into this loop
  3416  03A3                     clrloop0:	
  3417  03A3  0180               	clrf	0	;clear RAM location pointed to by FSR
  3418  03A4  3101               	addfsr 0,1
  3419  03A5  0B89               	decfsz	9,f	;Have we reached the end of clearing yet?
  3420  03A6  2BA3               	goto	clrloop0	;have we reached the end yet?
  3421  03A7  3400               	retlw	0	;all done for this memory range, return
  3422                           
  3423                           	psect	cstackCOMMON
  3424  0070                     __pcstackCOMMON:	
  3425  0070                     ?_PIN_MANAGER_Initialize:	
  3426  0070                     ??_PIN_MANAGER_Initialize:	
  3427                           ; 1 bytes @ 0x0
  3428                           
  3429  0070                     ?_OSCILLATOR_Initialize:	
  3430                           ; 1 bytes @ 0x0
  3431                           
  3432  0070                     ??_OSCILLATOR_Initialize:	
  3433                           ; 1 bytes @ 0x0
  3434                           
  3435  0070                     ?_WDT_Initialize:	
  3436                           ; 1 bytes @ 0x0
  3437                           
  3438  0070                     ??_WDT_Initialize:	
  3439                           ; 1 bytes @ 0x0
  3440                           
  3441  0070                     ?_TMR6_Initialize:	
  3442                           ; 1 bytes @ 0x0
  3443                           
  3444  0070                     ?_TMR6_ISR:	
  3445                           ; 1 bytes @ 0x0
  3446                           
  3447  0070                     ??_TMR6_ISR:	
  3448                           ; 1 bytes @ 0x0
  3449                           
  3450  0070                     ?_TMR6_SetInterruptHandler:	
  3451                           ; 1 bytes @ 0x0
  3452                           
  3453  0070                     ?_TMR6_DefaultInterruptHandler:	
  3454                           ; 1 bytes @ 0x0
  3455                           
  3456  0070                     ??_TMR6_DefaultInterruptHandler:	
  3457                           ; 1 bytes @ 0x0
  3458                           
  3459  0070                     ?_TMR6_StartTimer:	
  3460                           ; 1 bytes @ 0x0
  3461                           
  3462  0070                     ??_TMR6_StartTimer:	
  3463                           ; 1 bytes @ 0x0
  3464                           
  3465  0070                     ?_lcd_komut:	
  3466                           ; 1 bytes @ 0x0
  3467                           
  3468  0070                     ??_lcd_komut:	
  3469                           ; 1 bytes @ 0x0
  3470                           
  3471  0070                     ?_lcd_harfyaz:	
  3472                           ; 1 bytes @ 0x0
  3473                           
  3474  0070                     ??_lcd_harfyaz:	
  3475                           ; 1 bytes @ 0x0
  3476                           
  3477  0070                     ?__miliSaat:	
  3478                           ; 1 bytes @ 0x0
  3479                           
  3480  0070                     ??__miliSaat:	
  3481                           ; 1 bytes @ 0x0
  3482                           
  3483  0070                     ?_tustakimi_oku:	
  3484                           ; 1 bytes @ 0x0
  3485                           
  3486  0070                     ?_buton_kontrol:	
  3487                           ; 1 bytes @ 0x0
  3488                           
  3489  0070                     ?_SYSTEM_Initialize:	
  3490                           ; 1 bytes @ 0x0
  3491                           
  3492  0070                     ?_INTERRUPT_InterruptManager:	
  3493                           ; 1 bytes @ 0x0
  3494                           
  3495  0070                     ??_INTERRUPT_InterruptManager:	
  3496                           ; 1 bytes @ 0x0
  3497                           
  3498  0070                     ?_lcd_baslat:	
  3499                           ; 1 bytes @ 0x0
  3500                           
  3501  0070                     ?_lcd_mesgulmu:	
  3502                           ; 1 bytes @ 0x0
  3503                           
  3504  0070                     ??_lcd_mesgulmu:	
  3505                           ; 1 bytes @ 0x0
  3506                           
  3507  0070                     ?_lcd_sil:	
  3508                           ; 1 bytes @ 0x0
  3509                           
  3510  0070                     ?_tusbilgilerini_yaz:	
  3511                           ; 1 bytes @ 0x0
  3512                           
  3513  0070                     ?_main:	
  3514                           ; 1 bytes @ 0x0
  3515                           
  3516  0070                     ?_miliSaniye:	
  3517                           ; 1 bytes @ 0x0
  3518                           
  3519  0070                     TMR6_SetInterruptHandler@InterruptHandler:	
  3520                           ; 4 bytes @ 0x0
  3521                           
  3522                           
  3523                           ; 2 bytes @ 0x0
  3524  0070                     	ds	1
  3525  0071                     lcd_harfyaz@harf:	
  3526  0071                     lcd_komut@komut:	
  3527                           ; 1 bytes @ 0x1
  3528                           
  3529                           
  3530                           ; 1 bytes @ 0x1
  3531  0071                     	ds	1
  3532  0072                     ??_TMR6_Initialize:	
  3533  0072                     ??_TMR6_SetInterruptHandler:	
  3534                           ; 1 bytes @ 0x2
  3535                           
  3536  0072                     ??_SYSTEM_Initialize:	
  3537                           ; 1 bytes @ 0x2
  3538                           
  3539  0072                     ??_lcd_baslat:	
  3540                           ; 1 bytes @ 0x2
  3541                           
  3542  0072                     ?_lcd_git:	
  3543                           ; 1 bytes @ 0x2
  3544                           
  3545  0072                     ??_lcd_sil:	
  3546                           ; 1 bytes @ 0x2
  3547                           
  3548  0072                     lcd_git@sutun:	
  3549                           ; 1 bytes @ 0x2
  3550                           
  3551                           
  3552                           ; 1 bytes @ 0x2
  3553  0072                     	ds	1
  3554  0073                     ??_lcd_git:	
  3555  0073                     lcd_git@satir:	
  3556                           ; 1 bytes @ 0x3
  3557                           
  3558                           
  3559                           ; 1 bytes @ 0x3
  3560  0073                     	ds	1
  3561  0074                     ??_buton_kontrol:	
  3562  0074                     ??_miliSaniye:	
  3563                           ; 1 bytes @ 0x4
  3564                           
  3565  0074                     lcd_git@temp:	
  3566                           ; 1 bytes @ 0x4
  3567                           
  3568                           
  3569                           ; 1 bytes @ 0x4
  3570  0074                     	ds	1
  3571  0075                     ?_lcd_mesajyaz:	
  3572  0075                     lcd_mesajyaz@sutun:	
  3573                           ; 1 bytes @ 0x5
  3574                           
  3575                           
  3576                           ; 1 bytes @ 0x5
  3577  0075                     	ds	1
  3578  0076                     lcd_mesajyaz@mesaj:	
  3579                           
  3580                           ; 2 bytes @ 0x6
  3581  0076                     	ds	2
  3582  0078                     ??_tustakimi_oku:	
  3583  0078                     ??_lcd_mesajyaz:	
  3584                           ; 1 bytes @ 0x8
  3585                           
  3586                           
  3587                           ; 1 bytes @ 0x8
  3588  0078                     	ds	1
  3589  0079                     lcd_mesajyaz@satir:	
  3590                           
  3591                           ; 1 bytes @ 0x9
  3592  0079                     	ds	1
  3593  007A                     ??_tusbilgilerini_yaz:	
  3594                           
  3595                           ; 1 bytes @ 0xA
  3596  007A                     	ds	4
  3597  007E                     ??_main:	
  3598                           
  3599                           	psect	swtext1
  3600  033E                     __pswtext1:	
  3601  033E                     S1674:	
  3602  033E  3182  2A20         	ljmp	l1376
  3603  0340  3182  2A50         	ljmp	l1394
  3604  0342  3182  2A55         	ljmp	l1414
  3605  0344  3182  2A5A         	ljmp	l1424
  3606  0346  3182  2AB4         	ljmp	l1470
  3607  0348  3182  2A93         	ljmp	l1454
  3608  034A  3182  2A93         	ljmp	l1454
  3609  034C  3182  2A9A         	ljmp	l1460
  3610  034E  3182  2AB7         	ljmp	l1478
  3611                           
  3612                           	psect	intentry
  3613  0004                     __pintentry:	
  3614 ;; *************** function _INTERRUPT_InterruptManager *****************
  3615 ;; Defined at:
  3616 ;;		line 51 in file "mcc_generated_files/interrupt_manager.c"
  3617 ;; Parameters:    Size  Location     Type
  3618 ;;		None
  3619 ;; Auto vars:     Size  Location     Type
  3620 ;;		None
  3621 ;; Return value:  Size  Location     Type
  3622 ;;                  1    wreg      void 
  3623 ;; Registers used:
  3624 ;;		wreg, status,2, status,0, pclath, cstack
  3625 ;; Tracked objects:
  3626 ;;		On entry : 0/0
  3627 ;;		On exit  : 0/0
  3628 ;;		Unchanged: 0/0
  3629 ;; Data sizes:     COMMON   BANK0   BANK1   BANK2   BANK3   BANK4
  3630 ;;      Params:         0       0       0       0       0       0
  3631 ;;      Locals:         0       0       0       0       0       0
  3632 ;;      Temps:          0       0       0       0       0       0
  3633 ;;      Totals:         0       0       0       0       0       0
  3634 ;;Total ram usage:        0 bytes
  3635 ;; Hardware stack levels used:    1
  3636 ;; Hardware stack levels required when called:    2
  3637 ;; This function calls:
  3638 ;;		_TMR6_ISR
  3639 ;; This function is called by:
  3640 ;;		Interrupt level 1
  3641 ;; This function uses a non-reentrant model
  3642 ;;
  3643                           
  3644  0004                     _INTERRUPT_InterruptManager:	
  3645                           
  3646                           ;incstack = 0
  3647  0004  147E               	bsf	126,0	;set compiler interrupt flag (level 1)
  3648                           
  3649                           ; Regs used in _INTERRUPT_InterruptManager: [wreg+status,2+status,0+pclath+cstack]
  3650  0005  3180               	pagesel	$
  3651                           
  3652                           ;interrupt_manager.c: 54: if(INTCONbits.PEIE == 1 && PIE3bits.TMR6IE == 1 && PIR3bits.TM
      +                          R6IF == 1)
  3653  0006  1F0B               	btfss	11,6	;volatile
  3654  0007  2810               	goto	i1l71
  3655  0008  0021               	movlb	1	; select bank1
  3656  0009  1D93               	btfss	19,3	;volatile
  3657  000A  2810               	goto	i1l71
  3658  000B  0020               	movlb	0	; select bank0
  3659  000C  1D93               	btfss	19,3	;volatile
  3660  000D  2810               	goto	i1l71
  3661                           
  3662                           ;interrupt_manager.c: 55: {
  3663                           ;interrupt_manager.c: 56: TMR6_ISR();
  3664  000E  3183  2386         	fcall	_TMR6_ISR
  3665  0010                     i1l71:	
  3666                           ;interrupt_manager.c: 57: }
  3667                           
  3668  0010  107E               	bcf	126,0	;clear compiler interrupt flag (level 1)
  3669  0011  0009               	retfie
  3670  0012                     __end_of_INTERRUPT_InterruptManager:	
  3671                           
  3672                           	psect	text20
  3673  0386                     __ptext20:	
  3674 ;; *************** function _TMR6_ISR *****************
  3675 ;; Defined at:
  3676 ;;		line 121 in file "mcc_generated_files/tmr6.c"
  3677 ;; Parameters:    Size  Location     Type
  3678 ;;		None
  3679 ;; Auto vars:     Size  Location     Type
  3680 ;;		None
  3681 ;; Return value:  Size  Location     Type
  3682 ;;                  1    wreg      void 
  3683 ;; Registers used:
  3684 ;;		wreg, status,2, status,0, pclath, cstack
  3685 ;; Tracked objects:
  3686 ;;		On entry : 1F/0
  3687 ;;		On exit  : 0/0
  3688 ;;		Unchanged: 0/0
  3689 ;; Data sizes:     COMMON   BANK0   BANK1   BANK2   BANK3   BANK4
  3690 ;;      Params:         0       0       0       0       0       0
  3691 ;;      Locals:         0       0       0       0       0       0
  3692 ;;      Temps:          0       0       0       0       0       0
  3693 ;;      Totals:         0       0       0       0       0       0
  3694 ;;Total ram usage:        0 bytes
  3695 ;; Hardware stack levels used:    1
  3696 ;; Hardware stack levels required when called:    1
  3697 ;; This function calls:
  3698 ;;		Absolute function
  3699 ;;		_TMR6_DefaultInterruptHandler
  3700 ;;		__miliSaat
  3701 ;; This function is called by:
  3702 ;;		_INTERRUPT_InterruptManager
  3703 ;; This function uses a non-reentrant model
  3704 ;;
  3705                           
  3706                           
  3707                           ;psect for function _TMR6_ISR
  3708  0386                     _TMR6_ISR:	
  3709                           
  3710                           ;tmr6.c: 125: PIR3bits.TMR6IF = 0;
  3711                           
  3712                           ;incstack = 0
  3713                           ; Regs used in _TMR6_ISR: [wreg+status,2+status,0+pclath+cstack]
  3714  0386  1193               	bcf	19,3	;volatile
  3715                           
  3716                           ;tmr6.c: 127: if(TMR6_InterruptHandler)
  3717  0387  082C               	movf	_TMR6_InterruptHandler,w
  3718  0388  042D               	iorwf	_TMR6_InterruptHandler+1,w
  3719  0389  1903               	btfsc	3,2
  3720  038A  0008               	return
  3721                           
  3722                           ;tmr6.c: 128: {
  3723                           ;tmr6.c: 129: TMR6_InterruptHandler();
  3724  038B  082D               	movf	_TMR6_InterruptHandler+1,w
  3725  038C  008A               	movwf	10
  3726  038D  082C               	movf	_TMR6_InterruptHandler,w
  3727  038E  000A               	callw
  3728  038F  3183               	pagesel	$
  3729  0390  0008               	return
  3730  0391                     __end_of_TMR6_ISR:	
  3731                           
  3732                           	psect	text21
  3733  03A8                     __ptext21:	
  3734 ;; *************** function _TMR6_DefaultInterruptHandler *****************
  3735 ;; Defined at:
  3736 ;;		line 138 in file "mcc_generated_files/tmr6.c"
  3737 ;; Parameters:    Size  Location     Type
  3738 ;;		None
  3739 ;; Auto vars:     Size  Location     Type
  3740 ;;		None
  3741 ;; Return value:  Size  Location     Type
  3742 ;;                  1    wreg      void 
  3743 ;; Registers used:
  3744 ;;		None
  3745 ;; Tracked objects:
  3746 ;;		On entry : 1F/0
  3747 ;;		On exit  : 1F/0
  3748 ;;		Unchanged: 1F/0
  3749 ;; Data sizes:     COMMON   BANK0   BANK1   BANK2   BANK3   BANK4
  3750 ;;      Params:         0       0       0       0       0       0
  3751 ;;      Locals:         0       0       0       0       0       0
  3752 ;;      Temps:          0       0       0       0       0       0
  3753 ;;      Totals:         0       0       0       0       0       0
  3754 ;;Total ram usage:        0 bytes
  3755 ;; Hardware stack levels used:    1
  3756 ;; This function calls:
  3757 ;;		Nothing
  3758 ;; This function is called by:
  3759 ;;		_TMR6_Initialize
  3760 ;;		_TMR6_ISR
  3761 ;; This function uses a non-reentrant model
  3762 ;;
  3763                           
  3764                           
  3765                           ;psect for function _TMR6_DefaultInterruptHandler
  3766  03A8                     _TMR6_DefaultInterruptHandler:	
  3767                           
  3768                           ;incstack = 0
  3769                           ; Regs used in _TMR6_DefaultInterruptHandler: []
  3770  03A8  0008               	return
  3771  03A9                     __end_of_TMR6_DefaultInterruptHandler:	
  3772                           
  3773                           	psect	text22
  3774  039B                     __ptext22:	
  3775 ;; *************** function __miliSaat *****************
  3776 ;; Defined at:
  3777 ;;		line 16 in file "zaman.c"
  3778 ;; Parameters:    Size  Location     Type
  3779 ;;		None
  3780 ;; Auto vars:     Size  Location     Type
  3781 ;;		None
  3782 ;; Return value:  Size  Location     Type
  3783 ;;                  1    wreg      void 
  3784 ;; Registers used:
  3785 ;;		wreg, status,2, status,0
  3786 ;; Tracked objects:
  3787 ;;		On entry : 1F/0
  3788 ;;		On exit  : 1F/0
  3789 ;;		Unchanged: 0/0
  3790 ;; Data sizes:     COMMON   BANK0   BANK1   BANK2   BANK3   BANK4
  3791 ;;      Params:         0       0       0       0       0       0
  3792 ;;      Locals:         0       0       0       0       0       0
  3793 ;;      Temps:          0       0       0       0       0       0
  3794 ;;      Totals:         0       0       0       0       0       0
  3795 ;;Total ram usage:        0 bytes
  3796 ;; Hardware stack levels used:    1
  3797 ;; This function calls:
  3798 ;;		Nothing
  3799 ;; This function is called by:
  3800 ;;		_main
  3801 ;;		_TMR6_ISR
  3802 ;; This function uses a non-reentrant model
  3803 ;;
  3804                           
  3805                           
  3806                           ;psect for function __miliSaat
  3807  039B                     __miliSaat:	
  3808                           
  3809                           ;zaman.c: 18: _msaniye++;
  3810                           
  3811                           ;incstack = 0
  3812                           ; Regs used in __miliSaat: [wreg+status,2+status,0]
  3813  039B  3001               	movlw	1
  3814  039C  07A0               	addwf	__msaniye,f	;volatile
  3815  039D  3000               	movlw	0
  3816  039E  3DA1               	addwfc	__msaniye+1,f	;volatile
  3817  039F  3DA2               	addwfc	__msaniye+2,f	;volatile
  3818  03A0  3DA3               	addwfc	__msaniye+3,f	;volatile
  3819  03A1  0008               	return
  3820  03A2                     __end_of__miliSaat:	
  3821  007E                     btemp	set	126	;btemp
  3822  007E                     int$flags	set	126
  3823  007E                     wtemp0	set	126


Data Sizes:
    Strings     80
    Constant    16
    Data        0
    BSS         21
    Persistent  0
    Stack       0

Auto Spaces:
    Space          Size  Autos    Used
    COMMON           14     14      14
    BANK0            80      0      22
    BANK1            80      0       0
    BANK2            80      0       0
    BANK3            80      0       0
    BANK4            48      0       0

Pointer List with Targets:

    lcd_mesajyaz@mesaj	PTR const unsigned char  size(2) Largest target is 16
		 -> STR_7(CODE[10]), STR_6(CODE[13]), STR_5(CODE[13]), STR_4(CODE[13]), 
		 -> STR_3(CODE[8]), STR_2(CODE[15]), STR_1(CODE[16]), 

    TMR6_SetInterruptHandler@InterruptHandler	PTR void  size(2) Largest target is 1
		 -> _miliSaat(), TMR6_DefaultInterruptHandler(), 

    TMR6_InterruptHandler	PTR FTN()void  size(2) Largest target is 1
		 -> _miliSaat(), Absolute function(), TMR6_DefaultInterruptHandler(), 


Critical Paths under _main in COMMON

    _main->_tustakimi_oku
    _tustakimi_oku->_buton_kontrol
    _buton_kontrol->_miliSaniye
    _tusbilgilerini_yaz->_lcd_mesajyaz
    _lcd_mesajyaz->_lcd_git
    _lcd_git->_lcd_komut
    _lcd_sil->_lcd_komut
    _lcd_baslat->_lcd_komut
    _TMR6_Initialize->_TMR6_SetInterruptHandler

Critical Paths under _INTERRUPT_InterruptManager in COMMON

    None.

Critical Paths under _main in BANK0

    None.

Critical Paths under _INTERRUPT_InterruptManager in BANK0

    None.

Critical Paths under _main in BANK1

    None.

Critical Paths under _INTERRUPT_InterruptManager in BANK1

    None.

Critical Paths under _main in BANK2

    None.

Critical Paths under _INTERRUPT_InterruptManager in BANK2

    None.

Critical Paths under _main in BANK3

    None.

Critical Paths under _INTERRUPT_InterruptManager in BANK3

    None.

Critical Paths under _main in BANK4

    None.

Critical Paths under _INTERRUPT_InterruptManager in BANK4

    None.

Call Graph Tables:

 ---------------------------------------------------------------------------------
 (Depth) Function   	        Calls       Base Space   Used Autos Params    Refs
 ---------------------------------------------------------------------------------
 (0) _main                                                 0     0      0    2996
                  _SYSTEM_Initialize
           _TMR6_SetInterruptHandler
                         _lcd_baslat
                       _lcd_mesajyaz
                            _lcd_sil
                 _tusbilgilerini_yaz
                      _tustakimi_oku
 ---------------------------------------------------------------------------------
 (1) _tustakimi_oku                                        6     6      0       0
                                              8 COMMON     6     6      0
                      _buton_kontrol
 ---------------------------------------------------------------------------------
 (2) _buton_kontrol                                        4     4      0       0
                                              4 COMMON     4     4      0
                         _miliSaniye
 ---------------------------------------------------------------------------------
 (3) _miliSaniye                                           4     0      4       0
                                              0 COMMON     4     0      4
 ---------------------------------------------------------------------------------
 (1) _tusbilgilerini_yaz                                   0     0      0    1491
                            _lcd_git
                        _lcd_harfyaz
                       _lcd_mesajyaz
 ---------------------------------------------------------------------------------
 (2) _lcd_mesajyaz                                         5     2      3    1161
                                              5 COMMON     5     2      3
                            _lcd_git
                        _lcd_harfyaz
 ---------------------------------------------------------------------------------
 (3) _lcd_harfyaz                                          2     2      0      44
                                              0 COMMON     2     2      0
                       _lcd_mesgulmu
 ---------------------------------------------------------------------------------
 (3) _lcd_git                                              3     2      1     286
                                              2 COMMON     3     2      1
                          _lcd_komut
 ---------------------------------------------------------------------------------
 (1) _lcd_sil                                              0     0      0      44
                          _lcd_komut
 ---------------------------------------------------------------------------------
 (1) _lcd_baslat                                           1     1      0      44
                                              2 COMMON     1     1      0
                          _lcd_komut
 ---------------------------------------------------------------------------------
 (4) _lcd_komut                                            2     2      0      44
                                              0 COMMON     2     2      0
                       _lcd_mesgulmu
 ---------------------------------------------------------------------------------
 (4) _lcd_mesgulmu                                         0     0      0       0
 ---------------------------------------------------------------------------------
 (1) _SYSTEM_Initialize                                    0     0      0     128
              _OSCILLATOR_Initialize
             _PIN_MANAGER_Initialize
                    _TMR6_Initialize
                     _WDT_Initialize
 ---------------------------------------------------------------------------------
 (2) _WDT_Initialize                                       0     0      0       0
 ---------------------------------------------------------------------------------
 (2) _TMR6_Initialize                                      0     0      0     128
           _TMR6_SetInterruptHandler
                    _TMR6_StartTimer
 ---------------------------------------------------------------------------------
 (3) _TMR6_StartTimer                                      0     0      0       0
 ---------------------------------------------------------------------------------
 (1) _TMR6_SetInterruptHandler                             2     0      2     128
                                              0 COMMON     2     0      2
 ---------------------------------------------------------------------------------
 (2) _PIN_MANAGER_Initialize                               0     0      0       0
 ---------------------------------------------------------------------------------
 (2) _OSCILLATOR_Initialize                                0     0      0       0
 ---------------------------------------------------------------------------------
 Estimated maximum stack depth 4
 ---------------------------------------------------------------------------------
 (Depth) Function   	        Calls       Base Space   Used Autos Params    Refs
 ---------------------------------------------------------------------------------
 (6) _INTERRUPT_InterruptManager                           0     0      0       0
                           _TMR6_ISR
 ---------------------------------------------------------------------------------
 (7) _TMR6_ISR                                             0     0      0       0
                   Absolute function *
       _TMR6_DefaultInterruptHandler *
                          __miliSaat *
 ---------------------------------------------------------------------------------
 (8) __miliSaat                                            0     0      0       0
 ---------------------------------------------------------------------------------
 (8) _TMR6_DefaultInterruptHandler                         0     0      0       0
 ---------------------------------------------------------------------------------
 (8) Absolute function(Fake)                               0     0      0       0
 ---------------------------------------------------------------------------------
 Estimated maximum stack depth 8
 ---------------------------------------------------------------------------------

 Call Graph Graphs:

 _main (ROOT)
   _SYSTEM_Initialize
     _OSCILLATOR_Initialize
     _PIN_MANAGER_Initialize
     _TMR6_Initialize
       _TMR6_SetInterruptHandler
       _TMR6_StartTimer
     _WDT_Initialize
   _TMR6_SetInterruptHandler
   _lcd_baslat
     _lcd_komut
       _lcd_mesgulmu
   _lcd_mesajyaz
     _lcd_git
       _lcd_komut
         _lcd_mesgulmu
     _lcd_harfyaz
       _lcd_mesgulmu
   _lcd_sil
     _lcd_komut
       _lcd_mesgulmu
   _tusbilgilerini_yaz
     _lcd_git
       _lcd_komut
         _lcd_mesgulmu
     _lcd_harfyaz
       _lcd_mesgulmu
     _lcd_mesajyaz
       _lcd_git
         _lcd_komut
           _lcd_mesgulmu
       _lcd_harfyaz
         _lcd_mesgulmu
   _tustakimi_oku
     _buton_kontrol
       _miliSaniye

 _INTERRUPT_InterruptManager (ROOT)
   _TMR6_ISR
     Absolute function(Fake) *
     _TMR6_DefaultInterruptHandler *
     __miliSaat *

 Address spaces:
Name               Size   Autos  Total    Cost      Usage
BIGRAM             170      0       0       0        0.0%
EEDATA             100      0       0       0        0.0%
NULL                 0      0       0       0        0.0%
CODE                 0      0       0       0        0.0%
BITCOMMON            E      0       0       1        0.0%
BITSFR0              0      0       0       1        0.0%
SFR0                 0      0       0       1        0.0%
COMMON               E      E       E       2      100.0%
BITSFR1              0      0       0       2        0.0%
SFR1                 0      0       0       2        0.0%
BITSFR2              0      0       0       3        0.0%
SFR2                 0      0       0       3        0.0%
STACK                0      0       0       3        0.0%
BITSFR3              0      0       0       4        0.0%
SFR3                 0      0       0       4        0.0%
ABS                  0      0      24       4        0.0%
BITBANK0            50      0       1       5        1.3%
BITSFR4              0      0       0       5        0.0%
SFR4                 0      0       0       5        0.0%
BANK0               50      0      16       6       27.5%
BITSFR5              0      0       0       6        0.0%
SFR5                 0      0       0       6        0.0%
BITBANK1            50      0       0       7        0.0%
BITSFR6              0      0       0       7        0.0%
SFR6                 0      0       0       7        0.0%
BANK1               50      0       0       8        0.0%
BITSFR7              0      0       0       8        0.0%
SFR7                 0      0       0       8        0.0%
BITBANK2            50      0       0       9        0.0%
BITSFR8              0      0       0       9        0.0%
SFR8                 0      0       0       9        0.0%
BANK2               50      0       0      10        0.0%
BITSFR9              0      0       0      10        0.0%
SFR9                 0      0       0      10        0.0%
BITBANK3            50      0       0      11        0.0%
BITSFR10             0      0       0      11        0.0%
SFR10                0      0       0      11        0.0%
BANK3               50      0       0      12        0.0%
BITSFR11             0      0       0      12        0.0%
SFR11                0      0       0      12        0.0%
BITBANK4            30      0       0      13        0.0%
BITSFR12             0      0       0      13        0.0%
SFR12                0      0       0      13        0.0%
BANK4               30      0       0      14        0.0%
BITSFR13             0      0       0      14        0.0%
SFR13                0      0       0      14        0.0%
BITSFR14             0      0       0      15        0.0%
SFR14                0      0       0      15        0.0%
DATA                 0      0      24      15        0.0%
BITSFR15             0      0       0      16        0.0%
SFR15                0      0       0      16        0.0%
BITSFR16             0      0       0      17        0.0%
SFR16                0      0       0      17        0.0%
BITSFR17             0      0       0      18        0.0%
SFR17                0      0       0      18        0.0%
BITSFR18             0      0       0      19        0.0%
SFR18                0      0       0      19        0.0%
BITSFR19             0      0       0      20        0.0%
SFR19                0      0       0      20        0.0%
BITSFR20             0      0       0      21        0.0%
SFR20                0      0       0      21        0.0%
BITSFR21             0      0       0      22        0.0%
SFR21                0      0       0      22        0.0%
BITSFR22             0      0       0      23        0.0%
SFR22                0      0       0      23        0.0%
BITSFR23             0      0       0      24        0.0%
SFR23                0      0       0      24        0.0%
BITSFR24             0      0       0      25        0.0%
SFR24                0      0       0      25        0.0%
BITSFR25             0      0       0      26        0.0%
SFR25                0      0       0      26        0.0%
BITSFR26             0      0       0      27        0.0%
SFR26                0      0       0      27        0.0%
BITSFR27             0      0       0      28        0.0%
SFR27                0      0       0      28        0.0%
BITSFR28             0      0       0      29        0.0%
SFR28                0      0       0      29        0.0%
BITSFR29             0      0       0      30        0.0%
SFR29                0      0       0      30        0.0%
BITSFR30             0      0       0      31        0.0%
SFR30                0      0       0      31        0.0%
BITSFR31             0      0       0      32        0.0%
SFR31                0      0       0      32        0.0%


Microchip Technology PIC Macro Assembler V1.42 build -159332390 
Symbol Table                                                                                   Thu Jun 22 23:39:33 2017

                                       pc 0002                               __CFG_CP$OFF 0000  
                                      PL2 02FB                                        PL4 0309  
                                      PL6 0312                                        PL8 0318  
                                      l22 017B                         ??_TMR6_StartTimer 0070  
                             lcd_git@temp 0074                                       l301 01A4  
                                     l303 01A8                                       l312 01B6  
                                     l313 01D9                                       l305 01AC  
                                     l314 01BA                                       l315 01BF  
                                     l156 0097                                       l316 01C5  
                                     l257 007C                                       l346 0277  
                            __CFG_CPD$OFF 0000                                       _PR6 041D  
                                     u385 013F                                       u395 00B1  
                                     u807 0121                                       u817 0128  
                                     u827 0131                                       u837 014D  
                                     u757 00BD                                       u847 0160  
                                     u767 00D0                                       u857 0166  
                                     u777 00F8                                       u787 0104  
                                     u797 0119                              __CFG_BORV$LO 0000  
                                     wreg 0009                              __CFG_IESO$ON 0000  
                            lcd_git@satir 0073                                      S1674 033E  
                            lcd_git@sutun 0072                              __CFG_LVP$OFF 0000  
                                    l1300 00F4                                      l1400 0243  
                                    l1404 0248                                      l1500 02E7  
                                    l1414 0255                                      l1440 0288  
                                    l1432 0272                                      l1424 025A  
                                    l1408 024A                                      l1290 00DC  
                                    l1450 028D                                      l1284 021C  
                                    l1356 0208                                      l1292 00DF  
                                    l1460 029A                                      l1612 0206  
                                    l1294 00E2                                      l1470 02B4  
                                    l1454 0293                                      l1374 021F  
                                    l1614 0207                                      l1606 01E5  
                                    l1288 00D9                                      l1464 02AD  
                                    l1376 0220                                      l1640 003E  
                                    l1298 00E6                                      l1394 0250  
                                    l1642 0046                                      l1634 0037  
                                    l1468 02B1                                      l1396 022F  
                                    l1388 022D                                      l1644 004E  
                                    l1652 0068                                      l1486 02DA  
                                    l1478 02B7                                      l1646 0056  
                                    l1576 01B0                                      l1648 005E  
                                    l1586 01CB                                      STR_1 032E  
                                    STR_2 0350                                      STR_3 0371  
                                    STR_4 035F                                      STR_5 036C  
                                    STR_6 0379                                      STR_7 0391  
                                    _LATA 010C                                      _LATB 010D  
                                    i1l71 0010                                      _PLLR 04D6  
                                    _TMR6 041C                                      _WPUA 020C  
                                    _WPUB 020D                              __CFG_WRT$OFF 0000  
                           __CFG_FCMEN$ON 0000                                      _main 0020  
                                    fsr0h 0005                                      indf0 0000  
                                    fsr0l 0004                                      btemp 007E  
                           __CFG_BOREN$ON 0000                                      start 0012  
                          ??_lcd_mesajyaz 0078                            ??_lcd_mesgulmu 0070  
                           __CFG_PLLEN$ON 0000            __size_of_OSCILLATOR_Initialize 0007  
           __end_of_OSCILLATOR_Initialize 017E                                     ?_main 0070  
                           __CFG_WDTE$OFF 0000                                     _LATA6 0866  
                                   _LATA7 0867                                     _T6CON 041E  
                                   _TRISA 008C                                     _TRISB 008D  
                           __CFG_PWRTE$ON 0000         __size_of_TMR6_SetInterruptHandler 0006  
               ?_TMR6_SetInterruptHandler 0070                           __end_of_lcd_git 00FC  
                         __end_of_lcd_sil 0197                          __end_of_TMR6_ISR 0391  
                          _WDT_Initialize 0219                                     _tusno 0033  
                                   pclath 000A                                     status 0003  
                                   wtemp0 007E                         lcd_mesajyaz@mesaj 0076  
                       lcd_mesajyaz@satir 0079            ??_TMR6_DefaultInterruptHandler 0070  
                       lcd_mesajyaz@sutun 0075                            __CFG_MCLRE$OFF 0000  
                         __initialization 0014                               _uzunBasildi 01A9  
                            __end_of_main 007D               ?_INTERRUPT_InterruptManager 0070  
                                  ??_main 007E                    __size_of_buton_kontrol 00D3  
                  __end_of_WDT_Initialize 021C                           _TMR6_Initialize 0208  
                                  _ANSELA 018C                                    _ANSELB 018D  
                                  _OSCCON 0099                                    _WDTCON 0097  
                                  _TRISA6 0466                                    _TRISA7 0467  
                    __size_of_lcd_harfyaz 002E                            __CFG_STVREN$ON 0000  
                      _tusbilgilerini_yaz 007D                             _butonNo_kayit 0031  
                               ??_lcd_git 0073                                 ??_lcd_sil 0072  
                                  _tuslar 031E                       ?_tusbilgilerini_yaz 0070  
                    __end_of_lcd_mesajyaz 00A9                           ?_WDT_Initialize 0070  
                    __end_of_lcd_mesgulmu 016A  TMR6_SetInterruptHandler@InterruptHandler 0070  
                       _SYSTEM_Initialize 0170                   __end_of__initialization 001D  
                      ?_SYSTEM_Initialize 0070                           _TMR6_StartTimer 021C  
                    ??_tusbilgilerini_yaz 007A                             _buton_kontrol 021F  
                          __pcstackCOMMON 0070                       ??_SYSTEM_Initialize 0072  
                               ?_TMR6_ISR 0070                        __size_of__miliSaat 0007  
                              __end_ofPL2 0309                   __end_of_TMR6_Initialize 0219  
                              __end_ofPL4 0312                                __end_ofPL6 0318  
                              __end_ofPL8 031E                            _OPTION_REGbits 0095  
                      __size_of_lcd_komut 002E                 __end_of_SYSTEM_Initialize 0177  
                              __pbssBANK0 0020                           lcd_harfyaz@harf 0071  
                          lcd_komut@komut 0071                            ?_buton_kontrol 0070  
                              __pmaintext 0020          __end_of_TMR6_SetInterruptHandler 0170  
                              ??_TMR6_ISR 0070                                __pintentry 0004  
                                 _APFCON0 011D                                   _APFCON1 011E  
                              _lcd_baslat 00FC                                   _OSCTUNE 0098  
                  __size_of_tustakimi_oku 0071                   __end_of_TMR6_StartTimer 021F  
                       __end_of__miliSaat 03A2                         __end_of_lcd_komut 0165  
                              _miliSaniye 02F2                          ?_TMR6_Initialize 0070  
                   __size_of_lcd_mesajyaz 0018                                   __ptext1 0197  
                                 __ptext2 021F                                   __ptext3 02F2  
                                 __ptext4 007D                     __size_of_lcd_mesgulmu 0005  
                                 __ptext5 0091                                   __ptext6 00A9  
                                 __ptext7 00D7                                   __ptext8 0195  
                                 __ptext9 00FC                                   _lcd_git 00D7  
                                 _lcd_sil 0195                                   _butonNo 0032  
                   _OSCILLATOR_Initialize 0177                  ??_PIN_MANAGER_Initialize 0070  
                                 _satirno 002F                                 _T6CONbits 041E  
              __size_of_SYSTEM_Initialize 0007                                   clrloop0 03A3  
                    end_of_initialization 001D                                   _sutunno 002E  
                         ??_buton_kontrol 0074                              _lcd_mesajyaz 0091  
                            _lcd_mesgulmu 0165                             _tustakimi_oku 0197  
                        ??_WDT_Initialize 0070                                 _PORTBbits 000D  
                _TMR6_SetInterruptHandler 016A                               ?_lcd_baslat 0070  
                        __CFG_FOSC$INTOSC 0000                             _oncekiButonNo 0030  
                        ?_TMR6_StartTimer 0070                             ??_lcd_harfyaz 0070  
                         _ciftTiklamaSure 0024                            ?_tustakimi_oku 0070  
                             ?_miliSaniye 0070                         __size_of_TMR6_ISR 000B  
                  ?_OSCILLATOR_Initialize 0070                             __pbitbssBANK0 01A8  
                          __end_of_tuslar 032E                       start_initialization 0014  
         __size_of_PIN_MANAGER_Initialize 0017               __size_of_tusbilgilerini_yaz 0014  
                     __size_of_lcd_baslat 003B                       __end_of_lcd_harfyaz 00D7  
                               ___latbits 0001                       __size_of_miliSaniye 0009  
                               __miliSaat 039B                     _TMR6_InterruptHandler 002C  
                         ??_tustakimi_oku 0078                    _PIN_MANAGER_Initialize 017E  
            ??_INTERRUPT_InterruptManager 0070                                 _lcd_komut 0137  
                               __pswtext1 033E                                  ?_lcd_git 0072  
                                ?_lcd_sil 0070                                 _butonSure 0028  
                                _LATBbits 010D                                ?__miliSaat 0070  
                               clear_ram0 03A2                                  _PIE3bits 0093  
                             _lcd_harfyaz 00A9       __size_of_INTERRUPT_InterruptManager 000E  
                                _PIR3bits 0013                ??_TMR6_SetInterruptHandler 0072  
                                _TMR6_ISR 0386                                ?_lcd_komut 0070  
                            ??_lcd_baslat 0072                  __size_of_TMR6_Initialize 0011  
                             _kisaBasildi 01A8                     __end_of_buton_kontrol 02F2  
                      __end_of_lcd_baslat 0137                               _butonDurumu 0034  
                 ??_OSCILLATOR_Initialize 0070                              ??_miliSaniye 0074  
                        __size_of_lcd_git 0025                          __size_of_lcd_sil 0002  
                                __msaniye 0020                                  __ptext10 0137  
                                __ptext11 0165                                  __ptext20 0386  
                                __ptext12 0170                                  __ptext21 03A8  
                                __ptext13 0219                                  __ptext22 039B  
                                __ptext14 0208                                  __ptext15 021C  
                                __ptext16 016A                                  __ptext17 017E  
                                __ptext18 0177                             __size_of_main 005D  
                      __end_of_miliSaniye 02FB                               ??__miliSaat 0070  
                __size_of_TMR6_StartTimer 0003                                  int$flags 007E  
      __end_of_INTERRUPT_InterruptManager 0012                _INTERRUPT_InterruptManager 0004  
                             ??_lcd_komut 0070                                _INTCONbits 000B  
    __end_of_TMR6_DefaultInterruptHandler 03A9     __size_of_TMR6_DefaultInterruptHandler 0001  
            _TMR6_DefaultInterruptHandler 03A8                   __size_of_WDT_Initialize 0003  
                                intlevel1 0000                __end_of_tusbilgilerini_yaz 0091  
                 ?_PIN_MANAGER_Initialize 0070                         ??_TMR6_Initialize 0072  
                       __CFG_CLKOUTEN$OFF 0000                             __pstringtext1 031E  
                           __pstringtext2 0350                             __pstringtext3 035F  
                           __pstringtext4 036C                             __pstringtext5 0379  
                           __pstringtext6 0391                             __pstringtext7 0000  
          __end_of_PIN_MANAGER_Initialize 0195             ?_TMR6_DefaultInterruptHandler 0070  
                            ?_lcd_harfyaz 0070                             ?_lcd_mesajyaz 0075  
                   __end_of_tustakimi_oku 0208                             ?_lcd_mesgulmu 0070  
