

Microchip Technology PIC LITE Macro Assembler V1.45 build -152302408 
                                                                                               Sat Feb 03 23:04:22 2018

Microchip Technology Omniscient Code Generator v1.45 (Free mode) build 201711160504
     1                           	processor	16F1827
     2                           	opt	pw 120
     3                           	opt	lm
     4                           	psect	stringtext1,global,class=STRCODE,delta=2
     5                           	psect	nvBANK0,global,class=BANK0,space=1,delta=1
     6                           	psect	stringtext2,global,class=STRCODE,delta=2
     7                           	psect	stringtext3,global,class=STRCODE,delta=2
     8                           	psect	stringtext4,global,class=STRCODE,delta=2
     9                           	psect	stringtext5,global,class=STRCODE,delta=2
    10                           	psect	cinit,global,class=CODE,merge=1,delta=2
    11                           	psect	bssCOMMON,global,class=COMMON,space=1,delta=1
    12                           	psect	bssBANK0,global,class=BANK0,space=1,delta=1
    13                           	psect	cstackCOMMON,global,class=COMMON,space=1,delta=1
    14                           	psect	cstackBANK0,global,class=BANK0,space=1,delta=1
    15                           	psect	maintext,global,class=CODE,merge=1,split=1,delta=2
    16                           	psect	text1,local,class=CODE,merge=1,delta=2
    17                           	psect	text2,local,class=CODE,merge=1,delta=2
    18                           	psect	text3,local,class=CODE,merge=1,delta=2
    19                           	psect	text4,local,class=CODE,merge=1,delta=2,group=2
    20                           	psect	text5,local,class=CODE,merge=1,delta=2,group=2
    21                           	psect	text6,local,class=CODE,merge=1,delta=2,group=2
    22                           	psect	text7,local,class=CODE,merge=1,delta=2,group=2
    23                           	psect	text8,local,class=CODE,merge=1,delta=2
    24                           	psect	text9,local,class=CODE,merge=1,delta=2
    25                           	psect	text10,local,class=CODE,merge=1,delta=2
    26                           	psect	text11,local,class=CODE,merge=1,delta=2
    27                           	psect	text12,local,class=CODE,merge=1,delta=2
    28                           	psect	text13,local,class=CODE,merge=1,delta=2
    29                           	psect	text14,local,class=CODE,merge=1,delta=2
    30                           	psect	text15,local,class=CODE,merge=1,delta=2
    31                           	psect	text16,local,class=CODE,merge=1,delta=2
    32                           	psect	text17,local,class=CODE,merge=1,delta=2
    33                           	psect	text18,local,class=CODE,merge=1,delta=2
    34                           	psect	text19,local,class=CODE,merge=1,delta=2
    35                           	psect	text20,local,class=CODE,merge=1,delta=2
    36                           	psect	text21,local,class=CODE,merge=1,delta=2
    37                           	psect	text22,local,class=CODE,merge=1,delta=2
    38                           	psect	text23,local,class=CODE,merge=1,delta=2
    39                           	psect	text24,local,class=CODE,merge=1,delta=2
    40                           	psect	text25,local,class=CODE,merge=1,delta=2
    41                           	psect	text26,local,class=CODE,merge=1,delta=2
    42                           	psect	text27,local,class=CODE,merge=1,delta=2
    43                           	psect	intentry,global,class=CODE,delta=2
    44                           	psect	text29,local,class=CODE,merge=1,delta=2
    45                           	psect	text30,local,class=CODE,merge=1,delta=2
    46                           	psect	text31,local,class=CODE,merge=1,delta=2
    47                           	psect	text32,local,class=CODE,merge=1,delta=2
    48                           	dabs	1,0x7E,2
    49  0000                     
    50                           ; Version 1.45
    51                           ; Generated 16/11/2017 GMT
    52                           ; 
    53                           ; Copyright © 2017, Microchip Technology Inc. and its subsidiaries ("Microchip")
    54                           ; All rights reserved.
    55                           ; 
    56                           ; This software is developed by Microchip Technology Inc. and its subsidiaries ("Microch
      +                          ip").
    57                           ; 
    58                           ; Redistribution and use in source and binary forms, with or without modification, are
    59                           ; permitted provided that the following conditions are met:
    60                           ; 
    61                           ;     1. Redistributions of source code must retain the above copyright notice, this lis
      +                          t of
    62                           ;        conditions and the following disclaimer.
    63                           ; 
    64                           ;     2. Redistributions in binary form must reproduce the above copyright notice, this 
      +                          list
    65                           ;        of conditions and the following disclaimer in the documentation and/or other
    66                           ;        materials provided with the distribution.
    67                           ; 
    68                           ;     3. Microchip's name may not be used to endorse or promote products derived from th
      +                          is
    69                           ;        software without specific prior written permission.
    70                           ; 
    71                           ; THIS SOFTWARE IS PROVIDED BY MICROCHIP "AS IS" AND ANY EXPRESS OR IMPLIED WARRANTIES,
    72                           ; INCLUDING, BUT NOT LIMITED TO, THE IMPLIED WARRANTIES OF MERCHANTABILITY AND FITNESS F
      +                          OR
    73                           ; PURPOSE ARE DISCLAIMED.  IN NO EVENT SHALL MICROCHIP BE LIABLE FOR ANY DIRECT, INDIREC
      +                          T,
    74                           ; INCIDENTAL, SPECIAL, EXEMPLARY, OR CONSEQUENTIAL DAMAGES (INCLUDING BUT NOT LIMITED TO
    75                           ; PROCUREMENT OF SUBSTITUTE GOODS OR SERVICES; LOSS OF USE, DATA OR PROFITS; OR BUSINESS
    76                           ; INTERRUPTION) HOWSOEVER CAUSED AND ON ANY THEORY OF LIABILITY, WHETHER IN CONTRACT, ST
      +                          RICT
    77                           ; LIABILITY, OR TORT (INCLUDING NEGLIGENCE OR OTHERWISE) ARISING IN ANY WAY OUT OF THE U
      +                          SE OF
    78                           ; THIS SOFTWARE, EVEN IF ADVISED OF THE POSSIBILITY OF SUCH DAMAGE.
    79                           ; 
    80                           ; 
    81                           ; Code-generator required, PIC16F1827 Definitions
    82                           ; 
    83                           ; SFR Addresses
    84  0000                     	;# 
    85  0001                     	;# 
    86  0002                     	;# 
    87  0003                     	;# 
    88  0004                     	;# 
    89  0005                     	;# 
    90  0006                     	;# 
    91  0007                     	;# 
    92  0008                     	;# 
    93  0009                     	;# 
    94  000A                     	;# 
    95  000B                     	;# 
    96  000C                     	;# 
    97  000D                     	;# 
    98  0011                     	;# 
    99  0012                     	;# 
   100  0013                     	;# 
   101  0014                     	;# 
   102  0015                     	;# 
   103  0016                     	;# 
   104  0016                     	;# 
   105  0017                     	;# 
   106  0018                     	;# 
   107  0019                     	;# 
   108  001A                     	;# 
   109  001B                     	;# 
   110  001C                     	;# 
   111  001E                     	;# 
   112  001F                     	;# 
   113  008C                     	;# 
   114  008D                     	;# 
   115  0091                     	;# 
   116  0092                     	;# 
   117  0093                     	;# 
   118  0094                     	;# 
   119  0095                     	;# 
   120  0096                     	;# 
   121  0097                     	;# 
   122  0098                     	;# 
   123  0099                     	;# 
   124  009A                     	;# 
   125  009B                     	;# 
   126  009B                     	;# 
   127  009C                     	;# 
   128  009D                     	;# 
   129  009E                     	;# 
   130  010C                     	;# 
   131  010D                     	;# 
   132  0111                     	;# 
   133  0112                     	;# 
   134  0113                     	;# 
   135  0114                     	;# 
   136  0115                     	;# 
   137  0116                     	;# 
   138  0117                     	;# 
   139  0118                     	;# 
   140  0119                     	;# 
   141  011A                     	;# 
   142  011B                     	;# 
   143  011D                     	;# 
   144  011E                     	;# 
   145  018C                     	;# 
   146  018D                     	;# 
   147  0191                     	;# 
   148  0191                     	;# 
   149  0192                     	;# 
   150  0193                     	;# 
   151  0193                     	;# 
   152  0193                     	;# 
   153  0194                     	;# 
   154  0195                     	;# 
   155  0196                     	;# 
   156  0199                     	;# 
   157  019A                     	;# 
   158  019B                     	;# 
   159  019B                     	;# 
   160  019B                     	;# 
   161  019B                     	;# 
   162  019C                     	;# 
   163  019C                     	;# 
   164  019D                     	;# 
   165  019E                     	;# 
   166  019F                     	;# 
   167  020C                     	;# 
   168  020D                     	;# 
   169  0211                     	;# 
   170  0211                     	;# 
   171  0212                     	;# 
   172  0212                     	;# 
   173  0213                     	;# 
   174  0213                     	;# 
   175  0214                     	;# 
   176  0214                     	;# 
   177  0215                     	;# 
   178  0215                     	;# 
   179  0215                     	;# 
   180  0216                     	;# 
   181  0216                     	;# 
   182  0217                     	;# 
   183  0217                     	;# 
   184  0219                     	;# 
   185  021A                     	;# 
   186  021B                     	;# 
   187  021C                     	;# 
   188  021D                     	;# 
   189  021E                     	;# 
   190  021F                     	;# 
   191  0291                     	;# 
   192  0291                     	;# 
   193  0292                     	;# 
   194  0293                     	;# 
   195  0294                     	;# 
   196  0295                     	;# 
   197  0295                     	;# 
   198  0296                     	;# 
   199  0298                     	;# 
   200  0298                     	;# 
   201  0299                     	;# 
   202  029A                     	;# 
   203  029B                     	;# 
   204  029C                     	;# 
   205  029C                     	;# 
   206  029D                     	;# 
   207  029E                     	;# 
   208  029E                     	;# 
   209  0311                     	;# 
   210  0311                     	;# 
   211  0312                     	;# 
   212  0313                     	;# 
   213  0318                     	;# 
   214  0318                     	;# 
   215  0319                     	;# 
   216  031A                     	;# 
   217  0394                     	;# 
   218  0395                     	;# 
   219  0396                     	;# 
   220  039A                     	;# 
   221  039C                     	;# 
   222  039D                     	;# 
   223  039E                     	;# 
   224  039F                     	;# 
   225  0415                     	;# 
   226  0416                     	;# 
   227  0417                     	;# 
   228  041C                     	;# 
   229  041D                     	;# 
   230  041E                     	;# 
   231  0FE4                     	;# 
   232  0FE5                     	;# 
   233  0FE6                     	;# 
   234  0FE7                     	;# 
   235  0FE8                     	;# 
   236  0FE9                     	;# 
   237  0FEA                     	;# 
   238  0FEB                     	;# 
   239  0FED                     	;# 
   240  0FEE                     	;# 
   241  0FEF                     	;# 
   242  0000                     	;# 
   243  0001                     	;# 
   244  0002                     	;# 
   245  0003                     	;# 
   246  0004                     	;# 
   247  0005                     	;# 
   248  0006                     	;# 
   249  0007                     	;# 
   250  0008                     	;# 
   251  0009                     	;# 
   252  000A                     	;# 
   253  000B                     	;# 
   254  000C                     	;# 
   255  000D                     	;# 
   256  0011                     	;# 
   257  0012                     	;# 
   258  0013                     	;# 
   259  0014                     	;# 
   260  0015                     	;# 
   261  0016                     	;# 
   262  0016                     	;# 
   263  0017                     	;# 
   264  0018                     	;# 
   265  0019                     	;# 
   266  001A                     	;# 
   267  001B                     	;# 
   268  001C                     	;# 
   269  001E                     	;# 
   270  001F                     	;# 
   271  008C                     	;# 
   272  008D                     	;# 
   273  0091                     	;# 
   274  0092                     	;# 
   275  0093                     	;# 
   276  0094                     	;# 
   277  0095                     	;# 
   278  0096                     	;# 
   279  0097                     	;# 
   280  0098                     	;# 
   281  0099                     	;# 
   282  009A                     	;# 
   283  009B                     	;# 
   284  009B                     	;# 
   285  009C                     	;# 
   286  009D                     	;# 
   287  009E                     	;# 
   288  010C                     	;# 
   289  010D                     	;# 
   290  0111                     	;# 
   291  0112                     	;# 
   292  0113                     	;# 
   293  0114                     	;# 
   294  0115                     	;# 
   295  0116                     	;# 
   296  0117                     	;# 
   297  0118                     	;# 
   298  0119                     	;# 
   299  011A                     	;# 
   300  011B                     	;# 
   301  011D                     	;# 
   302  011E                     	;# 
   303  018C                     	;# 
   304  018D                     	;# 
   305  0191                     	;# 
   306  0191                     	;# 
   307  0192                     	;# 
   308  0193                     	;# 
   309  0193                     	;# 
   310  0193                     	;# 
   311  0194                     	;# 
   312  0195                     	;# 
   313  0196                     	;# 
   314  0199                     	;# 
   315  019A                     	;# 
   316  019B                     	;# 
   317  019B                     	;# 
   318  019B                     	;# 
   319  019B                     	;# 
   320  019C                     	;# 
   321  019C                     	;# 
   322  019D                     	;# 
   323  019E                     	;# 
   324  019F                     	;# 
   325  020C                     	;# 
   326  020D                     	;# 
   327  0211                     	;# 
   328  0211                     	;# 
   329  0212                     	;# 
   330  0212                     	;# 
   331  0213                     	;# 
   332  0213                     	;# 
   333  0214                     	;# 
   334  0214                     	;# 
   335  0215                     	;# 
   336  0215                     	;# 
   337  0215                     	;# 
   338  0216                     	;# 
   339  0216                     	;# 
   340  0217                     	;# 
   341  0217                     	;# 
   342  0219                     	;# 
   343  021A                     	;# 
   344  021B                     	;# 
   345  021C                     	;# 
   346  021D                     	;# 
   347  021E                     	;# 
   348  021F                     	;# 
   349  0291                     	;# 
   350  0291                     	;# 
   351  0292                     	;# 
   352  0293                     	;# 
   353  0294                     	;# 
   354  0295                     	;# 
   355  0295                     	;# 
   356  0296                     	;# 
   357  0298                     	;# 
   358  0298                     	;# 
   359  0299                     	;# 
   360  029A                     	;# 
   361  029B                     	;# 
   362  029C                     	;# 
   363  029C                     	;# 
   364  029D                     	;# 
   365  029E                     	;# 
   366  029E                     	;# 
   367  0311                     	;# 
   368  0311                     	;# 
   369  0312                     	;# 
   370  0313                     	;# 
   371  0318                     	;# 
   372  0318                     	;# 
   373  0319                     	;# 
   374  031A                     	;# 
   375  0394                     	;# 
   376  0395                     	;# 
   377  0396                     	;# 
   378  039A                     	;# 
   379  039C                     	;# 
   380  039D                     	;# 
   381  039E                     	;# 
   382  039F                     	;# 
   383  0415                     	;# 
   384  0416                     	;# 
   385  0417                     	;# 
   386  041C                     	;# 
   387  041D                     	;# 
   388  041E                     	;# 
   389  0FE4                     	;# 
   390  0FE5                     	;# 
   391  0FE6                     	;# 
   392  0FE7                     	;# 
   393  0FE8                     	;# 
   394  0FE9                     	;# 
   395  0FEA                     	;# 
   396  0FEB                     	;# 
   397  0FED                     	;# 
   398  0FEE                     	;# 
   399  0FEF                     	;# 
   400  0000                     	;# 
   401  0001                     	;# 
   402  0002                     	;# 
   403  0003                     	;# 
   404  0004                     	;# 
   405  0005                     	;# 
   406  0006                     	;# 
   407  0007                     	;# 
   408  0008                     	;# 
   409  0009                     	;# 
   410  000A                     	;# 
   411  000B                     	;# 
   412  000C                     	;# 
   413  000D                     	;# 
   414  0011                     	;# 
   415  0012                     	;# 
   416  0013                     	;# 
   417  0014                     	;# 
   418  0015                     	;# 
   419  0016                     	;# 
   420  0016                     	;# 
   421  0017                     	;# 
   422  0018                     	;# 
   423  0019                     	;# 
   424  001A                     	;# 
   425  001B                     	;# 
   426  001C                     	;# 
   427  001E                     	;# 
   428  001F                     	;# 
   429  008C                     	;# 
   430  008D                     	;# 
   431  0091                     	;# 
   432  0092                     	;# 
   433  0093                     	;# 
   434  0094                     	;# 
   435  0095                     	;# 
   436  0096                     	;# 
   437  0097                     	;# 
   438  0098                     	;# 
   439  0099                     	;# 
   440  009A                     	;# 
   441  009B                     	;# 
   442  009B                     	;# 
   443  009C                     	;# 
   444  009D                     	;# 
   445  009E                     	;# 
   446  010C                     	;# 
   447  010D                     	;# 
   448  0111                     	;# 
   449  0112                     	;# 
   450  0113                     	;# 
   451  0114                     	;# 
   452  0115                     	;# 
   453  0116                     	;# 
   454  0117                     	;# 
   455  0118                     	;# 
   456  0119                     	;# 
   457  011A                     	;# 
   458  011B                     	;# 
   459  011D                     	;# 
   460  011E                     	;# 
   461  018C                     	;# 
   462  018D                     	;# 
   463  0191                     	;# 
   464  0191                     	;# 
   465  0192                     	;# 
   466  0193                     	;# 
   467  0193                     	;# 
   468  0193                     	;# 
   469  0194                     	;# 
   470  0195                     	;# 
   471  0196                     	;# 
   472  0199                     	;# 
   473  019A                     	;# 
   474  019B                     	;# 
   475  019B                     	;# 
   476  019B                     	;# 
   477  019B                     	;# 
   478  019C                     	;# 
   479  019C                     	;# 
   480  019D                     	;# 
   481  019E                     	;# 
   482  019F                     	;# 
   483  020C                     	;# 
   484  020D                     	;# 
   485  0211                     	;# 
   486  0211                     	;# 
   487  0212                     	;# 
   488  0212                     	;# 
   489  0213                     	;# 
   490  0213                     	;# 
   491  0214                     	;# 
   492  0214                     	;# 
   493  0215                     	;# 
   494  0215                     	;# 
   495  0215                     	;# 
   496  0216                     	;# 
   497  0216                     	;# 
   498  0217                     	;# 
   499  0217                     	;# 
   500  0219                     	;# 
   501  021A                     	;# 
   502  021B                     	;# 
   503  021C                     	;# 
   504  021D                     	;# 
   505  021E                     	;# 
   506  021F                     	;# 
   507  0291                     	;# 
   508  0291                     	;# 
   509  0292                     	;# 
   510  0293                     	;# 
   511  0294                     	;# 
   512  0295                     	;# 
   513  0295                     	;# 
   514  0296                     	;# 
   515  0298                     	;# 
   516  0298                     	;# 
   517  0299                     	;# 
   518  029A                     	;# 
   519  029B                     	;# 
   520  029C                     	;# 
   521  029C                     	;# 
   522  029D                     	;# 
   523  029E                     	;# 
   524  029E                     	;# 
   525  0311                     	;# 
   526  0311                     	;# 
   527  0312                     	;# 
   528  0313                     	;# 
   529  0318                     	;# 
   530  0318                     	;# 
   531  0319                     	;# 
   532  031A                     	;# 
   533  0394                     	;# 
   534  0395                     	;# 
   535  0396                     	;# 
   536  039A                     	;# 
   537  039C                     	;# 
   538  039D                     	;# 
   539  039E                     	;# 
   540  039F                     	;# 
   541  0415                     	;# 
   542  0416                     	;# 
   543  0417                     	;# 
   544  041C                     	;# 
   545  041D                     	;# 
   546  041E                     	;# 
   547  0FE4                     	;# 
   548  0FE5                     	;# 
   549  0FE6                     	;# 
   550  0FE7                     	;# 
   551  0FE8                     	;# 
   552  0FE9                     	;# 
   553  0FEA                     	;# 
   554  0FEB                     	;# 
   555  0FED                     	;# 
   556  0FEE                     	;# 
   557  0FEF                     	;# 
   558  0000                     	;# 
   559  0001                     	;# 
   560  0002                     	;# 
   561  0003                     	;# 
   562  0004                     	;# 
   563  0005                     	;# 
   564  0006                     	;# 
   565  0007                     	;# 
   566  0008                     	;# 
   567  0009                     	;# 
   568  000A                     	;# 
   569  000B                     	;# 
   570  000C                     	;# 
   571  000D                     	;# 
   572  0011                     	;# 
   573  0012                     	;# 
   574  0013                     	;# 
   575  0014                     	;# 
   576  0015                     	;# 
   577  0016                     	;# 
   578  0016                     	;# 
   579  0017                     	;# 
   580  0018                     	;# 
   581  0019                     	;# 
   582  001A                     	;# 
   583  001B                     	;# 
   584  001C                     	;# 
   585  001E                     	;# 
   586  001F                     	;# 
   587  008C                     	;# 
   588  008D                     	;# 
   589  0091                     	;# 
   590  0092                     	;# 
   591  0093                     	;# 
   592  0094                     	;# 
   593  0095                     	;# 
   594  0096                     	;# 
   595  0097                     	;# 
   596  0098                     	;# 
   597  0099                     	;# 
   598  009A                     	;# 
   599  009B                     	;# 
   600  009B                     	;# 
   601  009C                     	;# 
   602  009D                     	;# 
   603  009E                     	;# 
   604  010C                     	;# 
   605  010D                     	;# 
   606  0111                     	;# 
   607  0112                     	;# 
   608  0113                     	;# 
   609  0114                     	;# 
   610  0115                     	;# 
   611  0116                     	;# 
   612  0117                     	;# 
   613  0118                     	;# 
   614  0119                     	;# 
   615  011A                     	;# 
   616  011B                     	;# 
   617  011D                     	;# 
   618  011E                     	;# 
   619  018C                     	;# 
   620  018D                     	;# 
   621  0191                     	;# 
   622  0191                     	;# 
   623  0192                     	;# 
   624  0193                     	;# 
   625  0193                     	;# 
   626  0193                     	;# 
   627  0194                     	;# 
   628  0195                     	;# 
   629  0196                     	;# 
   630  0199                     	;# 
   631  019A                     	;# 
   632  019B                     	;# 
   633  019B                     	;# 
   634  019B                     	;# 
   635  019B                     	;# 
   636  019C                     	;# 
   637  019C                     	;# 
   638  019D                     	;# 
   639  019E                     	;# 
   640  019F                     	;# 
   641  020C                     	;# 
   642  020D                     	;# 
   643  0211                     	;# 
   644  0211                     	;# 
   645  0212                     	;# 
   646  0212                     	;# 
   647  0213                     	;# 
   648  0213                     	;# 
   649  0214                     	;# 
   650  0214                     	;# 
   651  0215                     	;# 
   652  0215                     	;# 
   653  0215                     	;# 
   654  0216                     	;# 
   655  0216                     	;# 
   656  0217                     	;# 
   657  0217                     	;# 
   658  0219                     	;# 
   659  021A                     	;# 
   660  021B                     	;# 
   661  021C                     	;# 
   662  021D                     	;# 
   663  021E                     	;# 
   664  021F                     	;# 
   665  0291                     	;# 
   666  0291                     	;# 
   667  0292                     	;# 
   668  0293                     	;# 
   669  0294                     	;# 
   670  0295                     	;# 
   671  0295                     	;# 
   672  0296                     	;# 
   673  0298                     	;# 
   674  0298                     	;# 
   675  0299                     	;# 
   676  029A                     	;# 
   677  029B                     	;# 
   678  029C                     	;# 
   679  029C                     	;# 
   680  029D                     	;# 
   681  029E                     	;# 
   682  029E                     	;# 
   683  0311                     	;# 
   684  0311                     	;# 
   685  0312                     	;# 
   686  0313                     	;# 
   687  0318                     	;# 
   688  0318                     	;# 
   689  0319                     	;# 
   690  031A                     	;# 
   691  0394                     	;# 
   692  0395                     	;# 
   693  0396                     	;# 
   694  039A                     	;# 
   695  039C                     	;# 
   696  039D                     	;# 
   697  039E                     	;# 
   698  039F                     	;# 
   699  0415                     	;# 
   700  0416                     	;# 
   701  0417                     	;# 
   702  041C                     	;# 
   703  041D                     	;# 
   704  041E                     	;# 
   705  0FE4                     	;# 
   706  0FE5                     	;# 
   707  0FE6                     	;# 
   708  0FE7                     	;# 
   709  0FE8                     	;# 
   710  0FE9                     	;# 
   711  0FEA                     	;# 
   712  0FEB                     	;# 
   713  0FED                     	;# 
   714  0FEE                     	;# 
   715  0FEF                     	;# 
   716  0000                     	;# 
   717  0001                     	;# 
   718  0002                     	;# 
   719  0003                     	;# 
   720  0004                     	;# 
   721  0005                     	;# 
   722  0006                     	;# 
   723  0007                     	;# 
   724  0008                     	;# 
   725  0009                     	;# 
   726  000A                     	;# 
   727  000B                     	;# 
   728  000C                     	;# 
   729  000D                     	;# 
   730  0011                     	;# 
   731  0012                     	;# 
   732  0013                     	;# 
   733  0014                     	;# 
   734  0015                     	;# 
   735  0016                     	;# 
   736  0016                     	;# 
   737  0017                     	;# 
   738  0018                     	;# 
   739  0019                     	;# 
   740  001A                     	;# 
   741  001B                     	;# 
   742  001C                     	;# 
   743  001E                     	;# 
   744  001F                     	;# 
   745  008C                     	;# 
   746  008D                     	;# 
   747  0091                     	;# 
   748  0092                     	;# 
   749  0093                     	;# 
   750  0094                     	;# 
   751  0095                     	;# 
   752  0096                     	;# 
   753  0097                     	;# 
   754  0098                     	;# 
   755  0099                     	;# 
   756  009A                     	;# 
   757  009B                     	;# 
   758  009B                     	;# 
   759  009C                     	;# 
   760  009D                     	;# 
   761  009E                     	;# 
   762  010C                     	;# 
   763  010D                     	;# 
   764  0111                     	;# 
   765  0112                     	;# 
   766  0113                     	;# 
   767  0114                     	;# 
   768  0115                     	;# 
   769  0116                     	;# 
   770  0117                     	;# 
   771  0118                     	;# 
   772  0119                     	;# 
   773  011A                     	;# 
   774  011B                     	;# 
   775  011D                     	;# 
   776  011E                     	;# 
   777  018C                     	;# 
   778  018D                     	;# 
   779  0191                     	;# 
   780  0191                     	;# 
   781  0192                     	;# 
   782  0193                     	;# 
   783  0193                     	;# 
   784  0193                     	;# 
   785  0194                     	;# 
   786  0195                     	;# 
   787  0196                     	;# 
   788  0199                     	;# 
   789  019A                     	;# 
   790  019B                     	;# 
   791  019B                     	;# 
   792  019B                     	;# 
   793  019B                     	;# 
   794  019C                     	;# 
   795  019C                     	;# 
   796  019D                     	;# 
   797  019E                     	;# 
   798  019F                     	;# 
   799  020C                     	;# 
   800  020D                     	;# 
   801  0211                     	;# 
   802  0211                     	;# 
   803  0212                     	;# 
   804  0212                     	;# 
   805  0213                     	;# 
   806  0213                     	;# 
   807  0214                     	;# 
   808  0214                     	;# 
   809  0215                     	;# 
   810  0215                     	;# 
   811  0215                     	;# 
   812  0216                     	;# 
   813  0216                     	;# 
   814  0217                     	;# 
   815  0217                     	;# 
   816  0219                     	;# 
   817  021A                     	;# 
   818  021B                     	;# 
   819  021C                     	;# 
   820  021D                     	;# 
   821  021E                     	;# 
   822  021F                     	;# 
   823  0291                     	;# 
   824  0291                     	;# 
   825  0292                     	;# 
   826  0293                     	;# 
   827  0294                     	;# 
   828  0295                     	;# 
   829  0295                     	;# 
   830  0296                     	;# 
   831  0298                     	;# 
   832  0298                     	;# 
   833  0299                     	;# 
   834  029A                     	;# 
   835  029B                     	;# 
   836  029C                     	;# 
   837  029C                     	;# 
   838  029D                     	;# 
   839  029E                     	;# 
   840  029E                     	;# 
   841  0311                     	;# 
   842  0311                     	;# 
   843  0312                     	;# 
   844  0313                     	;# 
   845  0318                     	;# 
   846  0318                     	;# 
   847  0319                     	;# 
   848  031A                     	;# 
   849  0394                     	;# 
   850  0395                     	;# 
   851  0396                     	;# 
   852  039A                     	;# 
   853  039C                     	;# 
   854  039D                     	;# 
   855  039E                     	;# 
   856  039F                     	;# 
   857  0415                     	;# 
   858  0416                     	;# 
   859  0417                     	;# 
   860  041C                     	;# 
   861  041D                     	;# 
   862  041E                     	;# 
   863  0FE4                     	;# 
   864  0FE5                     	;# 
   865  0FE6                     	;# 
   866  0FE7                     	;# 
   867  0FE8                     	;# 
   868  0FE9                     	;# 
   869  0FEA                     	;# 
   870  0FEB                     	;# 
   871  0FED                     	;# 
   872  0FEE                     	;# 
   873  0FEF                     	;# 
   874  0000                     	;# 
   875  0001                     	;# 
   876  0002                     	;# 
   877  0003                     	;# 
   878  0004                     	;# 
   879  0005                     	;# 
   880  0006                     	;# 
   881  0007                     	;# 
   882  0008                     	;# 
   883  0009                     	;# 
   884  000A                     	;# 
   885  000B                     	;# 
   886  000C                     	;# 
   887  000D                     	;# 
   888  0011                     	;# 
   889  0012                     	;# 
   890  0013                     	;# 
   891  0014                     	;# 
   892  0015                     	;# 
   893  0016                     	;# 
   894  0016                     	;# 
   895  0017                     	;# 
   896  0018                     	;# 
   897  0019                     	;# 
   898  001A                     	;# 
   899  001B                     	;# 
   900  001C                     	;# 
   901  001E                     	;# 
   902  001F                     	;# 
   903  008C                     	;# 
   904  008D                     	;# 
   905  0091                     	;# 
   906  0092                     	;# 
   907  0093                     	;# 
   908  0094                     	;# 
   909  0095                     	;# 
   910  0096                     	;# 
   911  0097                     	;# 
   912  0098                     	;# 
   913  0099                     	;# 
   914  009A                     	;# 
   915  009B                     	;# 
   916  009B                     	;# 
   917  009C                     	;# 
   918  009D                     	;# 
   919  009E                     	;# 
   920  010C                     	;# 
   921  010D                     	;# 
   922  0111                     	;# 
   923  0112                     	;# 
   924  0113                     	;# 
   925  0114                     	;# 
   926  0115                     	;# 
   927  0116                     	;# 
   928  0117                     	;# 
   929  0118                     	;# 
   930  0119                     	;# 
   931  011A                     	;# 
   932  011B                     	;# 
   933  011D                     	;# 
   934  011E                     	;# 
   935  018C                     	;# 
   936  018D                     	;# 
   937  0191                     	;# 
   938  0191                     	;# 
   939  0192                     	;# 
   940  0193                     	;# 
   941  0193                     	;# 
   942  0193                     	;# 
   943  0194                     	;# 
   944  0195                     	;# 
   945  0196                     	;# 
   946  0199                     	;# 
   947  019A                     	;# 
   948  019B                     	;# 
   949  019B                     	;# 
   950  019B                     	;# 
   951  019B                     	;# 
   952  019C                     	;# 
   953  019C                     	;# 
   954  019D                     	;# 
   955  019E                     	;# 
   956  019F                     	;# 
   957  020C                     	;# 
   958  020D                     	;# 
   959  0211                     	;# 
   960  0211                     	;# 
   961  0212                     	;# 
   962  0212                     	;# 
   963  0213                     	;# 
   964  0213                     	;# 
   965  0214                     	;# 
   966  0214                     	;# 
   967  0215                     	;# 
   968  0215                     	;# 
   969  0215                     	;# 
   970  0216                     	;# 
   971  0216                     	;# 
   972  0217                     	;# 
   973  0217                     	;# 
   974  0219                     	;# 
   975  021A                     	;# 
   976  021B                     	;# 
   977  021C                     	;# 
   978  021D                     	;# 
   979  021E                     	;# 
   980  021F                     	;# 
   981  0291                     	;# 
   982  0291                     	;# 
   983  0292                     	;# 
   984  0293                     	;# 
   985  0294                     	;# 
   986  0295                     	;# 
   987  0295                     	;# 
   988  0296                     	;# 
   989  0298                     	;# 
   990  0298                     	;# 
   991  0299                     	;# 
   992  029A                     	;# 
   993  029B                     	;# 
   994  029C                     	;# 
   995  029C                     	;# 
   996  029D                     	;# 
   997  029E                     	;# 
   998  029E                     	;# 
   999  0311                     	;# 
  1000  0311                     	;# 
  1001  0312                     	;# 
  1002  0313                     	;# 
  1003  0318                     	;# 
  1004  0318                     	;# 
  1005  0319                     	;# 
  1006  031A                     	;# 
  1007  0394                     	;# 
  1008  0395                     	;# 
  1009  0396                     	;# 
  1010  039A                     	;# 
  1011  039C                     	;# 
  1012  039D                     	;# 
  1013  039E                     	;# 
  1014  039F                     	;# 
  1015  0415                     	;# 
  1016  0416                     	;# 
  1017  0417                     	;# 
  1018  041C                     	;# 
  1019  041D                     	;# 
  1020  041E                     	;# 
  1021  0FE4                     	;# 
  1022  0FE5                     	;# 
  1023  0FE6                     	;# 
  1024  0FE7                     	;# 
  1025  0FE8                     	;# 
  1026  0FE9                     	;# 
  1027  0FEA                     	;# 
  1028  0FEB                     	;# 
  1029  0FED                     	;# 
  1030  0FEE                     	;# 
  1031  0FEF                     	;# 
  1032  0000                     	;# 
  1033  0001                     	;# 
  1034  0002                     	;# 
  1035  0003                     	;# 
  1036  0004                     	;# 
  1037  0005                     	;# 
  1038  0006                     	;# 
  1039  0007                     	;# 
  1040  0008                     	;# 
  1041  0009                     	;# 
  1042  000A                     	;# 
  1043  000B                     	;# 
  1044  000C                     	;# 
  1045  000D                     	;# 
  1046  0011                     	;# 
  1047  0012                     	;# 
  1048  0013                     	;# 
  1049  0014                     	;# 
  1050  0015                     	;# 
  1051  0016                     	;# 
  1052  0016                     	;# 
  1053  0017                     	;# 
  1054  0018                     	;# 
  1055  0019                     	;# 
  1056  001A                     	;# 
  1057  001B                     	;# 
  1058  001C                     	;# 
  1059  001E                     	;# 
  1060  001F                     	;# 
  1061  008C                     	;# 
  1062  008D                     	;# 
  1063  0091                     	;# 
  1064  0092                     	;# 
  1065  0093                     	;# 
  1066  0094                     	;# 
  1067  0095                     	;# 
  1068  0096                     	;# 
  1069  0097                     	;# 
  1070  0098                     	;# 
  1071  0099                     	;# 
  1072  009A                     	;# 
  1073  009B                     	;# 
  1074  009B                     	;# 
  1075  009C                     	;# 
  1076  009D                     	;# 
  1077  009E                     	;# 
  1078  010C                     	;# 
  1079  010D                     	;# 
  1080  0111                     	;# 
  1081  0112                     	;# 
  1082  0113                     	;# 
  1083  0114                     	;# 
  1084  0115                     	;# 
  1085  0116                     	;# 
  1086  0117                     	;# 
  1087  0118                     	;# 
  1088  0119                     	;# 
  1089  011A                     	;# 
  1090  011B                     	;# 
  1091  011D                     	;# 
  1092  011E                     	;# 
  1093  018C                     	;# 
  1094  018D                     	;# 
  1095  0191                     	;# 
  1096  0191                     	;# 
  1097  0192                     	;# 
  1098  0193                     	;# 
  1099  0193                     	;# 
  1100  0193                     	;# 
  1101  0194                     	;# 
  1102  0195                     	;# 
  1103  0196                     	;# 
  1104  0199                     	;# 
  1105  019A                     	;# 
  1106  019B                     	;# 
  1107  019B                     	;# 
  1108  019B                     	;# 
  1109  019B                     	;# 
  1110  019C                     	;# 
  1111  019C                     	;# 
  1112  019D                     	;# 
  1113  019E                     	;# 
  1114  019F                     	;# 
  1115  020C                     	;# 
  1116  020D                     	;# 
  1117  0211                     	;# 
  1118  0211                     	;# 
  1119  0212                     	;# 
  1120  0212                     	;# 
  1121  0213                     	;# 
  1122  0213                     	;# 
  1123  0214                     	;# 
  1124  0214                     	;# 
  1125  0215                     	;# 
  1126  0215                     	;# 
  1127  0215                     	;# 
  1128  0216                     	;# 
  1129  0216                     	;# 
  1130  0217                     	;# 
  1131  0217                     	;# 
  1132  0219                     	;# 
  1133  021A                     	;# 
  1134  021B                     	;# 
  1135  021C                     	;# 
  1136  021D                     	;# 
  1137  021E                     	;# 
  1138  021F                     	;# 
  1139  0291                     	;# 
  1140  0291                     	;# 
  1141  0292                     	;# 
  1142  0293                     	;# 
  1143  0294                     	;# 
  1144  0295                     	;# 
  1145  0295                     	;# 
  1146  0296                     	;# 
  1147  0298                     	;# 
  1148  0298                     	;# 
  1149  0299                     	;# 
  1150  029A                     	;# 
  1151  029B                     	;# 
  1152  029C                     	;# 
  1153  029C                     	;# 
  1154  029D                     	;# 
  1155  029E                     	;# 
  1156  029E                     	;# 
  1157  0311                     	;# 
  1158  0311                     	;# 
  1159  0312                     	;# 
  1160  0313                     	;# 
  1161  0318                     	;# 
  1162  0318                     	;# 
  1163  0319                     	;# 
  1164  031A                     	;# 
  1165  0394                     	;# 
  1166  0395                     	;# 
  1167  0396                     	;# 
  1168  039A                     	;# 
  1169  039C                     	;# 
  1170  039D                     	;# 
  1171  039E                     	;# 
  1172  039F                     	;# 
  1173  0415                     	;# 
  1174  0416                     	;# 
  1175  0417                     	;# 
  1176  041C                     	;# 
  1177  041D                     	;# 
  1178  041E                     	;# 
  1179  0FE4                     	;# 
  1180  0FE5                     	;# 
  1181  0FE6                     	;# 
  1182  0FE7                     	;# 
  1183  0FE8                     	;# 
  1184  0FE9                     	;# 
  1185  0FEA                     	;# 
  1186  0FEB                     	;# 
  1187  0FED                     	;# 
  1188  0FEE                     	;# 
  1189  0FEF                     	;# 
  1190  0000                     	;# 
  1191  0001                     	;# 
  1192  0002                     	;# 
  1193  0003                     	;# 
  1194  0004                     	;# 
  1195  0005                     	;# 
  1196  0006                     	;# 
  1197  0007                     	;# 
  1198  0008                     	;# 
  1199  0009                     	;# 
  1200  000A                     	;# 
  1201  000B                     	;# 
  1202  000C                     	;# 
  1203  000D                     	;# 
  1204  0011                     	;# 
  1205  0012                     	;# 
  1206  0013                     	;# 
  1207  0014                     	;# 
  1208  0015                     	;# 
  1209  0016                     	;# 
  1210  0016                     	;# 
  1211  0017                     	;# 
  1212  0018                     	;# 
  1213  0019                     	;# 
  1214  001A                     	;# 
  1215  001B                     	;# 
  1216  001C                     	;# 
  1217  001E                     	;# 
  1218  001F                     	;# 
  1219  008C                     	;# 
  1220  008D                     	;# 
  1221  0091                     	;# 
  1222  0092                     	;# 
  1223  0093                     	;# 
  1224  0094                     	;# 
  1225  0095                     	;# 
  1226  0096                     	;# 
  1227  0097                     	;# 
  1228  0098                     	;# 
  1229  0099                     	;# 
  1230  009A                     	;# 
  1231  009B                     	;# 
  1232  009B                     	;# 
  1233  009C                     	;# 
  1234  009D                     	;# 
  1235  009E                     	;# 
  1236  010C                     	;# 
  1237  010D                     	;# 
  1238  0111                     	;# 
  1239  0112                     	;# 
  1240  0113                     	;# 
  1241  0114                     	;# 
  1242  0115                     	;# 
  1243  0116                     	;# 
  1244  0117                     	;# 
  1245  0118                     	;# 
  1246  0119                     	;# 
  1247  011A                     	;# 
  1248  011B                     	;# 
  1249  011D                     	;# 
  1250  011E                     	;# 
  1251  018C                     	;# 
  1252  018D                     	;# 
  1253  0191                     	;# 
  1254  0191                     	;# 
  1255  0192                     	;# 
  1256  0193                     	;# 
  1257  0193                     	;# 
  1258  0193                     	;# 
  1259  0194                     	;# 
  1260  0195                     	;# 
  1261  0196                     	;# 
  1262  0199                     	;# 
  1263  019A                     	;# 
  1264  019B                     	;# 
  1265  019B                     	;# 
  1266  019B                     	;# 
  1267  019B                     	;# 
  1268  019C                     	;# 
  1269  019C                     	;# 
  1270  019D                     	;# 
  1271  019E                     	;# 
  1272  019F                     	;# 
  1273  020C                     	;# 
  1274  020D                     	;# 
  1275  0211                     	;# 
  1276  0211                     	;# 
  1277  0212                     	;# 
  1278  0212                     	;# 
  1279  0213                     	;# 
  1280  0213                     	;# 
  1281  0214                     	;# 
  1282  0214                     	;# 
  1283  0215                     	;# 
  1284  0215                     	;# 
  1285  0215                     	;# 
  1286  0216                     	;# 
  1287  0216                     	;# 
  1288  0217                     	;# 
  1289  0217                     	;# 
  1290  0219                     	;# 
  1291  021A                     	;# 
  1292  021B                     	;# 
  1293  021C                     	;# 
  1294  021D                     	;# 
  1295  021E                     	;# 
  1296  021F                     	;# 
  1297  0291                     	;# 
  1298  0291                     	;# 
  1299  0292                     	;# 
  1300  0293                     	;# 
  1301  0294                     	;# 
  1302  0295                     	;# 
  1303  0295                     	;# 
  1304  0296                     	;# 
  1305  0298                     	;# 
  1306  0298                     	;# 
  1307  0299                     	;# 
  1308  029A                     	;# 
  1309  029B                     	;# 
  1310  029C                     	;# 
  1311  029C                     	;# 
  1312  029D                     	;# 
  1313  029E                     	;# 
  1314  029E                     	;# 
  1315  0311                     	;# 
  1316  0311                     	;# 
  1317  0312                     	;# 
  1318  0313                     	;# 
  1319  0318                     	;# 
  1320  0318                     	;# 
  1321  0319                     	;# 
  1322  031A                     	;# 
  1323  0394                     	;# 
  1324  0395                     	;# 
  1325  0396                     	;# 
  1326  039A                     	;# 
  1327  039C                     	;# 
  1328  039D                     	;# 
  1329  039E                     	;# 
  1330  039F                     	;# 
  1331  0415                     	;# 
  1332  0416                     	;# 
  1333  0417                     	;# 
  1334  041C                     	;# 
  1335  041D                     	;# 
  1336  041E                     	;# 
  1337  0FE4                     	;# 
  1338  0FE5                     	;# 
  1339  0FE6                     	;# 
  1340  0FE7                     	;# 
  1341  0FE8                     	;# 
  1342  0FE9                     	;# 
  1343  0FEA                     	;# 
  1344  0FEB                     	;# 
  1345  0FED                     	;# 
  1346  0FEE                     	;# 
  1347  0FEF                     	;# 
  1348                           
  1349                           	psect	stringtext1
  1350  04AA                     __pstringtext1:	
  1351  04AA                     _dpowers:	
  1352  04AA  3401               	retlw	1
  1353  04AB  3400               	retlw	0
  1354  04AC  340A               	retlw	10
  1355  04AD  3400               	retlw	0
  1356  04AE  3464               	retlw	100
  1357  04AF  3400               	retlw	0
  1358  04B0  34E8               	retlw	232
  1359  04B1  3403               	retlw	3
  1360  04B2  3410               	retlw	16
  1361  04B3  3427               	retlw	39
  1362  04B4                     __end_of_dpowers:	
  1363                           
  1364                           	psect	nvBANK0
  1365  003A                     __pnvBANK0:	
  1366  003A                     _Sayi:	
  1367  003A                     	ds	2
  1368  003C                     _TMR1_InterruptHandler:	
  1369  003C                     	ds	2
  1370  003E                     _timer1ReloadVal:	
  1371  003E                     	ds	2
  1372  000B                     _INTCONbits	set	11
  1373  0019                     _T1GCONbits	set	25
  1374  0018                     _T1CONbits	set	24
  1375  0011                     _PIR1bits	set	17
  1376  0016                     _TMR1L	set	22
  1377  0017                     _TMR1H	set	23
  1378  0019                     _T1GCON	set	25
  1379  0018                     _T1CON	set	24
  1380  0018                     _CARRY	set	24
  1381  006D                     _RB5	set	109
  1382  0095                     _OPTION_REGbits	set	149
  1383  008D                     _TRISB	set	141
  1384  008C                     _TRISA	set	140
  1385  0097                     _WDTCON	set	151
  1386  0098                     _OSCTUNE	set	152
  1387  0099                     _OSCCON	set	153
  1388  0091                     _PIE1bits	set	145
  1389  046D                     _TRISB5	set	1133
  1390  046C                     _TRISB4	set	1132
  1391  010D                     _LATBbits	set	269
  1392  011D                     _APFCON0	set	285
  1393  011E                     _APFCON1	set	286
  1394  010D                     _LATB	set	269
  1395  010C                     _LATA	set	268
  1396  086C                     _LATB4	set	2156
  1397  018C                     _ANSELA	set	396
  1398  018D                     _ANSELB	set	397
  1399  020C                     _WPUA	set	524
  1400  020D                     _WPUB	set	525
  1401                           
  1402                           	psect	stringtext2
  1403  0457                     __pstringtext2:	
  1404  0457                     STR_3:	
  1405  0457  3453               	retlw	83	;'S'
  1406  0458  3431               	retlw	49	;'1'
  1407  0459  343A               	retlw	58	;':'
  1408  045A  3425               	retlw	37	;'%'
  1409  045B  3430               	retlw	48	;'0'
  1410  045C  3434               	retlw	52	;'4'
  1411  045D  3464               	retlw	100	;'d'
  1412  045E  3420               	retlw	32	;' '
  1413  045F  3453               	retlw	83	;'S'
  1414  0460  3432               	retlw	50	;'2'
  1415  0461  343A               	retlw	58	;':'
  1416  0462  3425               	retlw	37	;'%'
  1417  0463  3430               	retlw	48	;'0'
  1418  0464  3434               	retlw	52	;'4'
  1419  0465  3464               	retlw	100	;'d'
  1420  0466  3400               	retlw	0
  1421                           
  1422                           	psect	stringtext3
  1423  0467                     __pstringtext3:	
  1424  0467                     STR_1:	
  1425  0467  3457               	retlw	87	;'W'
  1426  0468  3461               	retlw	97	;'a'
  1427  0469  3474               	retlw	116	;'t'
  1428  046A  3463               	retlw	99	;'c'
  1429  046B  3468               	retlw	104	;'h'
  1430  046C  3464               	retlw	100	;'d'
  1431  046D  346F               	retlw	111	;'o'
  1432  046E  3467               	retlw	103	;'g'
  1433  046F  3420               	retlw	32	;' '
  1434  0470  3452               	retlw	82	;'R'
  1435  0471  3465               	retlw	101	;'e'
  1436  0472  3473               	retlw	115	;'s'
  1437  0473  3465               	retlw	101	;'e'
  1438  0474  3474               	retlw	116	;'t'
  1439  0475  3400               	retlw	0
  1440                           
  1441                           	psect	stringtext4
  1442  04BE                     __pstringtext4:	
  1443  04BE                     STR_2:	
  1444  04BE  344D               	retlw	77	;'M'
  1445  04BF  3465               	retlw	101	;'e'
  1446  04C0  3472               	retlw	114	;'r'
  1447  04C1  3468               	retlw	104	;'h'
  1448  04C2  3461               	retlw	97	;'a'
  1449  04C3  3462               	retlw	98	;'b'
  1450  04C4  3461               	retlw	97	;'a'
  1451  04C5  3400               	retlw	0
  1452                           
  1453                           	psect	stringtext5
  1454  0000                     __pstringtext5:	
  1455                           
  1456                           ; #config settings
  1457  0000                     
  1458                           	psect	cinit
  1459  001D                     start_initialization:	
  1460  001D                     __initialization:	
  1461                           
  1462                           ; Clear objects allocated to COMMON
  1463  001D  01FC               	clrf	__pbssCOMMON& (0+127)
  1464                           
  1465                           ; Clear objects allocated to BANK0
  1466  001E  0020               	movlb	0	; select bank0
  1467  001F  01C0               	clrf	__pbssBANK0& (0+127)
  1468  0020  01C1               	clrf	(__pbssBANK0+1)& (0+127)
  1469  0021  01C2               	clrf	(__pbssBANK0+2)& (0+127)
  1470  0022  01C3               	clrf	(__pbssBANK0+3)& (0+127)
  1471  0023  01C4               	clrf	(__pbssBANK0+4)& (0+127)
  1472  0024  01C5               	clrf	(__pbssBANK0+5)& (0+127)
  1473  0025                     end_of_initialization:	
  1474                           ;End of C runtime variable initialization code
  1475                           
  1476  0025                     __end_of__initialization:	
  1477  0025  107E               	bcf	int$flags,0	;clear compiler interrupt flag (level 1)
  1478  0026  0020               	movlb	0
  1479  0027  3181  2984         	ljmp	_main	;jump to C main() function
  1480                           
  1481                           	psect	bssCOMMON
  1482  007C                     __pbssCOMMON:	
  1483  007C                     _pcf_port:	
  1484  007C                     	ds	1
  1485                           
  1486                           	psect	bssBANK0
  1487  0040                     __pbssBANK0:	
  1488  0040                     _Sayi2:	
  1489  0040                     	ds	2
  1490  0042                     TMR1_ISR@CountCallBack:	
  1491  0042                     	ds	2
  1492  0044                     _display_kursor_blink:	
  1493  0044                     	ds	1
  1494  0045                     _sayac:	
  1495  0045                     	ds	1
  1496                           
  1497                           	psect	cstackCOMMON
  1498  0070                     __pcstackCOMMON:	
  1499  0070                     ?_isdigit:	
  1500  0070                     ?_TMR1_DefaultInterruptHandler:	
  1501                           ; 1 bit 
  1502                           
  1503  0070                     ??_TMR1_DefaultInterruptHandler:	
  1504                           ; 1 bytes @ 0x0
  1505                           
  1506  0070                     ?_TMR1_StartTimer:	
  1507                           ; 1 bytes @ 0x0
  1508                           
  1509  0070                     ?_TMR1_CallBack:	
  1510                           ; 1 bytes @ 0x0
  1511                           
  1512  0070                     ??_TMR1_CallBack:	
  1513                           ; 1 bytes @ 0x0
  1514                           
  1515  0070                     ?_PIN_MANAGER_Initialize:	
  1516                           ; 1 bytes @ 0x0
  1517                           
  1518  0070                     ?_OSCILLATOR_Initialize:	
  1519                           ; 1 bytes @ 0x0
  1520                           
  1521  0070                     ?_WDT_Initialize:	
  1522                           ; 1 bytes @ 0x0
  1523                           
  1524  0070                     ?_softi2c_kur:	
  1525                           ; 1 bytes @ 0x0
  1526                           
  1527  0070                     ?_lcd_baslat:	
  1528                           ; 1 bytes @ 0x0
  1529                           
  1530  0070                     ?_softi2c_baslat:	
  1531                           ; 1 bytes @ 0x0
  1532                           
  1533  0070                     ?_softi2c_yaz:	
  1534                           ; 1 bytes @ 0x0
  1535                           
  1536  0070                     ?_softi2c_durdur:	
  1537                           ; 1 bytes @ 0x0
  1538                           
  1539  0070                     ?_pcf8574_yaz:	
  1540                           ; 1 bytes @ 0x0
  1541                           
  1542  0070                     ?_lcd_komut:	
  1543                           ; 1 bytes @ 0x0
  1544                           
  1545  0070                     ?_lcd_sil:	
  1546                           ; 1 bytes @ 0x0
  1547                           
  1548  0070                     ?_lcd_aydinlatma_ac:	
  1549                           ; 1 bytes @ 0x0
  1550                           
  1551  0070                     ?_lcd_harfyaz:	
  1552                           ; 1 bytes @ 0x0
  1553                           
  1554  0070                     ?_TMR1_Initialize:	
  1555                           ; 1 bytes @ 0x0
  1556                           
  1557  0070                     ?_TMR1_ISR:	
  1558                           ; 1 bytes @ 0x0
  1559                           
  1560  0070                     ??_TMR1_ISR:	
  1561                           ; 1 bytes @ 0x0
  1562                           
  1563  0070                     ?_SYSTEM_Initialize:	
  1564                           ; 1 bytes @ 0x0
  1565                           
  1566  0070                     ?_INTERRUPT_InterruptManager:	
  1567                           ; 1 bytes @ 0x0
  1568                           
  1569  0070                     ??_INTERRUPT_InterruptManager:	
  1570                           ; 1 bytes @ 0x0
  1571                           
  1572  0070                     ?_Sayi_Say:	
  1573                           ; 1 bytes @ 0x0
  1574                           
  1575  0070                     ??_Sayi_Say:	
  1576                           ; 1 bytes @ 0x0
  1577                           
  1578  0070                     ?_main:	
  1579                           ; 1 bytes @ 0x0
  1580                           
  1581  0070                     ?_pcf8574_yaz_wEnable:	
  1582                           ; 1 bytes @ 0x0
  1583                           
  1584  0070                     ?_lcd_mesgulmu:	
  1585                           ; 1 bytes @ 0x0
  1586                           
  1587  0070                     ?_putch:	
  1588                           ; 1 bytes @ 0x0
  1589                           
  1590                           
  1591                           ; 1 bytes @ 0x0
  1592  0070                     	ds	1
  1593  0071                     ?_TMR1_SetInterruptHandler:	
  1594  0071                     ??_TMR1_StartTimer:	
  1595                           ; 1 bytes @ 0x1
  1596                           
  1597  0071                     ??_PIN_MANAGER_Initialize:	
  1598                           ; 1 bytes @ 0x1
  1599                           
  1600  0071                     ??_OSCILLATOR_Initialize:	
  1601                           ; 1 bytes @ 0x1
  1602                           
  1603  0071                     ??_WDT_Initialize:	
  1604                           ; 1 bytes @ 0x1
  1605                           
  1606  0071                     ??_softi2c_kur:	
  1607                           ; 1 bytes @ 0x1
  1608                           
  1609  0071                     ??_softi2c_baslat:	
  1610                           ; 1 bytes @ 0x1
  1611                           
  1612  0071                     ??_softi2c_yaz:	
  1613                           ; 1 bytes @ 0x1
  1614                           
  1615  0071                     ??_softi2c_durdur:	
  1616                           ; 1 bytes @ 0x1
  1617                           
  1618  0071                     ??_isdigit:	
  1619                           ; 1 bytes @ 0x1
  1620                           
  1621  0071                     ??_lcd_mesgulmu:	
  1622                           ; 1 bytes @ 0x1
  1623                           
  1624  0071                     ?___wmul:	
  1625                           ; 1 bytes @ 0x1
  1626                           
  1627  0071                     ?___lwdiv:	
  1628                           ; 2 bytes @ 0x1
  1629                           
  1630  0071                     _isdigit$825:	
  1631                           ; 2 bytes @ 0x1
  1632                           
  1633  0071                     TMR1_SetInterruptHandler@InterruptHandler:	
  1634                           ; 1 bytes @ 0x1
  1635                           
  1636  0071                     ___wmul@multiplier:	
  1637                           ; 2 bytes @ 0x1
  1638                           
  1639  0071                     ___lwdiv@divisor:	
  1640                           ; 2 bytes @ 0x1
  1641                           
  1642                           
  1643                           ; 2 bytes @ 0x1
  1644  0071                     	ds	1
  1645  0072                     softi2c_yaz@temp:	
  1646  0072                     isdigit@c:	
  1647                           ; 1 bytes @ 0x2
  1648                           
  1649                           
  1650                           ; 1 bytes @ 0x2
  1651  0072                     	ds	1
  1652  0073                     ??_TMR1_SetInterruptHandler:	
  1653  0073                     ??_TMR1_Initialize:	
  1654                           ; 1 bytes @ 0x3
  1655                           
  1656  0073                     ??_SYSTEM_Initialize:	
  1657                           ; 1 bytes @ 0x3
  1658                           
  1659  0073                     softi2c_yaz@veri:	
  1660                           ; 1 bytes @ 0x3
  1661                           
  1662  0073                     ___wmul@multiplicand:	
  1663                           ; 1 bytes @ 0x3
  1664                           
  1665  0073                     ___lwdiv@dividend:	
  1666                           ; 2 bytes @ 0x3
  1667                           
  1668                           
  1669                           ; 2 bytes @ 0x3
  1670  0073                     	ds	1
  1671  0074                     softi2c_yaz@i:	
  1672                           
  1673                           ; 1 bytes @ 0x4
  1674  0074                     	ds	1
  1675  0075                     ??_pcf8574_yaz:	
  1676  0075                     ??_lcd_komut:	
  1677                           ; 1 bytes @ 0x5
  1678                           
  1679  0075                     ??_lcd_harfyaz:	
  1680                           ; 1 bytes @ 0x5
  1681                           
  1682  0075                     ??_pcf8574_yaz_wEnable:	
  1683                           ; 1 bytes @ 0x5
  1684                           
  1685  0075                     ??___wmul:	
  1686                           ; 1 bytes @ 0x5
  1687                           
  1688  0075                     ??___lwdiv:	
  1689                           ; 1 bytes @ 0x5
  1690                           
  1691  0075                     pcf8574_yaz@veri:	
  1692                           ; 1 bytes @ 0x5
  1693                           
  1694  0075                     ___wmul@product:	
  1695                           ; 1 bytes @ 0x5
  1696                           
  1697                           
  1698                           ; 2 bytes @ 0x5
  1699  0075                     	ds	1
  1700  0076                     ??_lcd_aydinlatma_ac:	
  1701  0076                     ___lwdiv@quotient:	
  1702                           ; 1 bytes @ 0x6
  1703                           
  1704                           
  1705                           ; 2 bytes @ 0x6
  1706  0076                     	ds	1
  1707  0077                     lcd_harfyaz@harf:	
  1708  0077                     lcd_komut@komut:	
  1709                           ; 1 bytes @ 0x7
  1710                           
  1711                           
  1712                           ; 1 bytes @ 0x7
  1713  0077                     	ds	1
  1714  0078                     ??_lcd_baslat:	
  1715  0078                     ?_lcd_git:	
  1716                           ; 1 bytes @ 0x8
  1717                           
  1718  0078                     ??_lcd_sil:	
  1719                           ; 1 bytes @ 0x8
  1720                           
  1721  0078                     ??_putch:	
  1722                           ; 1 bytes @ 0x8
  1723                           
  1724  0078                     lcd_git@sutun:	
  1725                           ; 1 bytes @ 0x8
  1726                           
  1727  0078                     putch@byte:	
  1728                           ; 1 bytes @ 0x8
  1729                           
  1730  0078                     ___lwdiv@counter:	
  1731                           ; 1 bytes @ 0x8
  1732                           
  1733                           
  1734                           ; 1 bytes @ 0x8
  1735  0078                     	ds	1
  1736  0079                     ??_lcd_git:	
  1737  0079                     ??___lwmod:	
  1738                           ; 1 bytes @ 0x9
  1739                           
  1740  0079                     lcd_baslat@i:	
  1741                           ; 1 bytes @ 0x9
  1742                           
  1743                           
  1744                           ; 1 bytes @ 0x9
  1745  0079                     	ds	1
  1746  007A                     lcd_git@satir:	
  1747  007A                     ___lwmod@counter:	
  1748                           ; 1 bytes @ 0xA
  1749                           
  1750                           
  1751                           ; 1 bytes @ 0xA
  1752  007A                     	ds	1
  1753  007B                     lcd_git@temp:	
  1754                           
  1755                           ; 1 bytes @ 0xB
  1756  007B                     	ds	1
  1757                           
  1758                           	psect	cstackBANK0
  1759  0021                     __pcstackBANK0:	
  1760  0021                     ?_lcd_mesajyaz:	
  1761  0021                     ?___lwmod:	
  1762                           ; 1 bytes @ 0x0
  1763                           
  1764  0021                     lcd_mesajyaz@sutun:	
  1765                           ; 2 bytes @ 0x0
  1766                           
  1767  0021                     ___lwmod@divisor:	
  1768                           ; 1 bytes @ 0x0
  1769                           
  1770                           
  1771                           ; 2 bytes @ 0x0
  1772  0021                     	ds	1
  1773  0022                     lcd_mesajyaz@mesaj:	
  1774                           
  1775                           ; 2 bytes @ 0x1
  1776  0022                     	ds	1
  1777  0023                     ___lwmod@dividend:	
  1778                           
  1779                           ; 2 bytes @ 0x2
  1780  0023                     	ds	1
  1781  0024                     ??_lcd_mesajyaz:	
  1782                           
  1783                           ; 1 bytes @ 0x3
  1784  0024                     	ds	1
  1785  0025                     ?_printf:	
  1786  0025                     lcd_mesajyaz@satir:	
  1787                           ; 2 bytes @ 0x4
  1788                           
  1789  0025                     printf@f:	
  1790                           ; 1 bytes @ 0x4
  1791                           
  1792                           
  1793                           ; 2 bytes @ 0x4
  1794  0025                     	ds	6
  1795  002B                     ??_printf:	
  1796                           
  1797                           ; 1 bytes @ 0xA
  1798  002B                     	ds	4
  1799  002F                     printf@ap:	
  1800                           
  1801                           ; 1 bytes @ 0xE
  1802  002F                     	ds	1
  1803  0030                     printf@prec:	
  1804                           
  1805                           ; 1 bytes @ 0xF
  1806  0030                     	ds	1
  1807  0031                     printf@val:	
  1808                           
  1809                           ; 2 bytes @ 0x10
  1810  0031                     	ds	2
  1811  0033                     printf@flag:	
  1812                           
  1813                           ; 1 bytes @ 0x12
  1814  0033                     	ds	1
  1815  0034                     printf@width:	
  1816                           
  1817                           ; 2 bytes @ 0x13
  1818  0034                     	ds	2
  1819  0036                     printf@c:	
  1820                           
  1821                           ; 1 bytes @ 0x15
  1822  0036                     	ds	1
  1823  0037                     ??_main:	
  1824                           
  1825                           ; 1 bytes @ 0x16
  1826  0037                     	ds	2
  1827  0039                     main@i:	
  1828                           
  1829                           ; 1 bytes @ 0x18
  1830  0039                     	ds	1
  1831                           
  1832                           	psect	maintext
  1833  0184                     __pmaintext:	
  1834 ;;
  1835 ;;Main: autosize = 0, tempsize = 2, incstack = 0, save=0
  1836 ;;
  1837 ;; *************** function _main *****************
  1838 ;; Defined at:
  1839 ;;		line 65 in file "main.c"
  1840 ;; Parameters:    Size  Location     Type
  1841 ;;		None
  1842 ;; Auto vars:     Size  Location     Type
  1843 ;;  i               1   24[BANK0 ] unsigned char 
  1844 ;; Return value:  Size  Location     Type
  1845 ;;                  1    wreg      void 
  1846 ;; Registers used:
  1847 ;;		wreg, fsr0l, fsr0h, fsr1l, fsr1h, status,2, status,0, pclath, cstack
  1848 ;; Tracked objects:
  1849 ;;		On entry : B1F/0
  1850 ;;		On exit  : 0/0
  1851 ;;		Unchanged: 0/0
  1852 ;; Data sizes:     COMMON   BANK0   BANK1   BANK2   BANK3   BANK4
  1853 ;;      Params:         0       0       0       0       0       0
  1854 ;;      Locals:         0       1       0       0       0       0
  1855 ;;      Temps:          0       2       0       0       0       0
  1856 ;;      Totals:         0       3       0       0       0       0
  1857 ;;Total ram usage:        3 bytes
  1858 ;; Hardware stack levels required when called:    9
  1859 ;; This function calls:
  1860 ;;		_SYSTEM_Initialize
  1861 ;;		_TMR1_SetInterruptHandler
  1862 ;;		_lcd_baslat
  1863 ;;		_lcd_git
  1864 ;;		_lcd_mesajyaz
  1865 ;;		_printf
  1866 ;;		_softi2c_kur
  1867 ;; This function is called by:
  1868 ;;		Startup code after reset
  1869 ;; This function uses a non-reentrant model
  1870 ;;
  1871                           
  1872                           
  1873                           ;psect for function _main
  1874  0184                     _main:	
  1875                           
  1876                           ;main.c: 67: char i;
  1877                           ;main.c: 70: SYSTEM_Initialize();
  1878                           
  1879                           ;incstack = 0
  1880                           ; Regs used in _main: [wreg-fsr1h+status,2+status,0+pclath+cstack]
  1881  0184  3184  2493  3181   	fcall	_SYSTEM_Initialize
  1882                           
  1883                           ;main.c: 72: TMR1_SetInterruptHandler(Sayi_Say);
  1884  0187  30B4               	movlw	low _Sayi_Say
  1885  0188  00F1               	movwf	TMR1_SetInterruptHandler@InterruptHandler
  1886  0189  3004               	movlw	high _Sayi_Say
  1887  018A  00F2               	movwf	TMR1_SetInterruptHandler@InterruptHandler+1
  1888  018B  3184  24CE  3181   	fcall	_TMR1_SetInterruptHandler
  1889                           
  1890                           ;main.c: 78: (INTCONbits.GIE = 1);
  1891  018E  178B               	bsf	11,7	;volatile
  1892                           
  1893                           ;main.c: 81: (INTCONbits.PEIE = 1);
  1894  018F  170B               	bsf	11,6	;volatile
  1895                           
  1896                           ;main.c: 89: softi2c_kur();
  1897  0190  3184  24C6  3181   	fcall	_softi2c_kur
  1898                           
  1899                           ;main.c: 90: lcd_baslat();
  1900  0193  3182  2215  3181   	fcall	_lcd_baslat
  1901                           
  1902                           ;main.c: 93: if(__timeout == 0)
  1903  0196  0020               	movlb	0	; select bank0
  1904  0197  1A20               	btfsc	___timeout/(0+8),___timeout& (0+7)
  1905  0198  29B1               	goto	l2157
  1906                           
  1907                           ;main.c: 94: {
  1908                           ;main.c: 96: lcd_mesajyaz(2,1,"Watchdog Reset");
  1909  0199  01A1               	clrf	lcd_mesajyaz@sutun
  1910  019A  0AA1               	incf	lcd_mesajyaz@sutun,f
  1911  019B  3067               	movlw	low (STR_1| (0+32768))
  1912  019C  00A2               	movwf	lcd_mesajyaz@mesaj
  1913  019D  3084               	movlw	high (STR_1| (0+32768))
  1914  019E  00A3               	movwf	lcd_mesajyaz@mesaj+1
  1915  019F  3002               	movlw	2
  1916  01A0  3183  2399  3181   	fcall	_lcd_mesajyaz
  1917                           
  1918                           ;main.c: 97: _delay((unsigned long)((500)*(32000000/4000.0)));
  1919  01A3  3015               	movlw	21
  1920  01A4  0020               	movlb	0	; select bank0
  1921  01A5  00B8               	movwf	??_main+1
  1922  01A6  304B               	movlw	75
  1923  01A7  00B7               	movwf	??_main
  1924  01A8  30BE               	movlw	190
  1925  01A9                     u1607:	
  1926  01A9  0B89               	decfsz	9,f
  1927  01AA  29A9               	goto	u1607
  1928  01AB  0BB7               	decfsz	??_main,f
  1929  01AC  29A9               	goto	u1607
  1930  01AD  0BB8               	decfsz	??_main+1,f
  1931  01AE  29A9               	goto	u1607
  1932  01AF  0000               	nop
  1933                           
  1934                           ;main.c: 98: }
  1935  01B0  29B6               	goto	l2159
  1936  01B1                     l2157:	
  1937                           
  1938                           ;main.c: 99: else
  1939                           ;main.c: 100: {
  1940                           ;main.c: 101: Sayi=0;
  1941  01B1  0020               	movlb	0	; select bank0
  1942  01B2  01BA               	clrf	_Sayi	;volatile
  1943  01B3  01BB               	clrf	_Sayi+1	;volatile
  1944                           
  1945                           ;main.c: 102: Sayi2=0;
  1946  01B4  01C0               	clrf	_Sayi2	;volatile
  1947  01B5  01C1               	clrf	_Sayi2+1	;volatile
  1948  01B6                     l2159:	
  1949                           
  1950                           ;main.c: 104: }
  1951                           ;main.c: 107: lcd_mesajyaz(1,1,"Merhaba");
  1952  01B6  0020               	movlb	0	; select bank0
  1953  01B7  01A1               	clrf	lcd_mesajyaz@sutun
  1954  01B8  0AA1               	incf	lcd_mesajyaz@sutun,f
  1955  01B9  30BE               	movlw	low (STR_2| (0+32768))
  1956  01BA  00A2               	movwf	lcd_mesajyaz@mesaj
  1957  01BB  3084               	movlw	high (STR_2| (0+32768))
  1958  01BC  00A3               	movwf	lcd_mesajyaz@mesaj+1
  1959  01BD  3001               	movlw	1
  1960  01BE  3183  2399  3181   	fcall	_lcd_mesajyaz
  1961                           
  1962                           ;main.c: 109: for(i=0;i<2;i++)
  1963  01C1  0020               	movlb	0	; select bank0
  1964  01C2  01B9               	clrf	main@i
  1965  01C3  3002               	movlw	2
  1966  01C4  0239               	subwf	main@i,w
  1967  01C5  1803               	btfsc	3,0
  1968  01C6  29E8               	goto	l2175
  1969                           
  1970                           ;main.c: 110: {
  1971                           ;main.c: 111: do { LATBbits.LATB0 = ~LATBbits.LATB0; } while(0);
  1972  01C7  1003               	clrc
  1973  01C8                     L1:	
  1974  01C8  0022               	movlb	2	; select bank2
  1975  01C9  1C0D               	btfss	13,0	;volatile
  1976  01CA  1403               	setc
  1977  01CB  1C03               	btfss	3,0
  1978  01CC  29D0               	goto	u1560
  1979  01CD  0022               	movlb	2	; select bank2
  1980  01CE  140D               	bsf	13,0	;volatile
  1981  01CF  29D2               	goto	l2169
  1982  01D0                     u1560:	
  1983  01D0  0022               	movlb	2	; select bank2
  1984  01D1  100D               	bcf	13,0	;volatile
  1985  01D2                     l2169:	
  1986                           
  1987                           ;main.c: 112: _delay((unsigned long)((250)*(32000000/4000.0)));
  1988  01D2  300B               	movlw	11
  1989  01D3  0020               	movlb	0	; select bank0
  1990  01D4  00B8               	movwf	??_main+1
  1991  01D5  3026               	movlw	38
  1992  01D6  00B7               	movwf	??_main
  1993  01D7  305D               	movlw	93
  1994  01D8                     u1617:	
  1995  01D8  0B89               	decfsz	9,f
  1996  01D9  29D8               	goto	u1617
  1997  01DA  0BB7               	decfsz	??_main,f
  1998  01DB  29D8               	goto	u1617
  1999  01DC  0BB8               	decfsz	??_main+1,f
  2000  01DD  29D8               	goto	u1617
  2001  01DE  3200               	nop2
  2002  01DF  3001               	movlw	1
  2003  01E0  0020               	movlb	0	; select bank0
  2004  01E1  00B7               	movwf	??_main
  2005  01E2  0837               	movf	??_main,w
  2006  01E3  07B9               	addwf	main@i,f
  2007  01E4  3002               	movlw	2
  2008  01E5  0239               	subwf	main@i,w
  2009  01E6  1C03               	skipc
  2010  01E7  29C8               	goto	L1
  2011  01E8                     l2175:	
  2012                           ;main.c: 113: }
  2013                           ;main.c: 115: while (1)
  2014                           
  2015                           
  2016                           ;main.c: 116: {
  2017                           ;main.c: 118: lcd_git(2,1);
  2018  01E8  01F8               	clrf	lcd_git@sutun
  2019  01E9  0AF8               	incf	lcd_git@sutun,f
  2020  01EA  3002               	movlw	2
  2021  01EB  3183  2371  3181   	fcall	_lcd_git
  2022                           
  2023                           ;main.c: 119: printf("S1:%04d S2:%04d",Sayi,Sayi2);
  2024  01EE  3057               	movlw	low (STR_3| (0+32768))
  2025  01EF  0020               	movlb	0	; select bank0
  2026  01F0  00A5               	movwf	printf@f
  2027  01F1  3084               	movlw	high (STR_3| (0+32768))
  2028  01F2  00A6               	movwf	printf@f+1
  2029  01F3  083B               	movf	_Sayi+1,w	;volatile
  2030  01F4  00A8               	movwf	?_printf+3
  2031  01F5  083A               	movf	_Sayi,w	;volatile
  2032  01F6  00A7               	movwf	?_printf+2
  2033  01F7  0841               	movf	_Sayi2+1,w	;volatile
  2034  01F8  00AA               	movwf	?_printf+5
  2035  01F9  0840               	movf	_Sayi2,w	;volatile
  2036  01FA  00A9               	movwf	?_printf+4
  2037  01FB  3180  2029  3181   	fcall	_printf
  2038                           
  2039                           ;main.c: 120: _delay((unsigned long)((100)*(32000000/4000.0)));
  2040  01FE  3005               	movlw	5
  2041  01FF  0020               	movlb	0	; select bank0
  2042  0200  00B8               	movwf	??_main+1
  2043  0201  300F               	movlw	15
  2044  0202  00B7               	movwf	??_main
  2045  0203  30F1               	movlw	241
  2046  0204                     u1627:	
  2047  0204  0B89               	decfsz	9,f
  2048  0205  2A04               	goto	u1627
  2049  0206  0BB7               	decfsz	??_main,f
  2050  0207  2A04               	goto	u1627
  2051  0208  0BB8               	decfsz	??_main+1,f
  2052  0209  2A04               	goto	u1627
  2053  020A  0064               	clrwdt	;# 
  2054                           
  2055                           ;main.c: 126: sayac++;
  2056  020B  3001               	movlw	1
  2057  020C  0020               	movlb	0	; select bank0
  2058  020D  00B7               	movwf	??_main
  2059  020E  0837               	movf	??_main,w
  2060  020F  07C5               	addwf	_sayac,f
  2061                           
  2062                           ;main.c: 127: if(sayac==50)
  2063  0210  3032               	movlw	50
  2064  0211  0645               	xorwf	_sayac,w
  2065  0212  1D03               	btfss	3,2
  2066  0213  29E8               	goto	l2175
  2067  0214                     l181:	
  2068                           ;main.c: 128: {
  2069                           ;main.c: 129: while(1);
  2070                           
  2071  0214  2A14               	goto	l181
  2072  0215                     __end_of_main:	
  2073                           
  2074                           	psect	text1
  2075  04C6                     __ptext1:	
  2076 ;; *************** function _softi2c_kur *****************
  2077 ;; Defined at:
  2078 ;;		line 16 in file "softi2c.c"
  2079 ;; Parameters:    Size  Location     Type
  2080 ;;		None
  2081 ;; Auto vars:     Size  Location     Type
  2082 ;;		None
  2083 ;; Return value:  Size  Location     Type
  2084 ;;                  1    wreg      void 
  2085 ;; Registers used:
  2086 ;;		None
  2087 ;; Tracked objects:
  2088 ;;		On entry : 0/0
  2089 ;;		On exit  : 0/0
  2090 ;;		Unchanged: 0/0
  2091 ;; Data sizes:     COMMON   BANK0   BANK1   BANK2   BANK3   BANK4
  2092 ;;      Params:         0       0       0       0       0       0
  2093 ;;      Locals:         0       0       0       0       0       0
  2094 ;;      Temps:          0       0       0       0       0       0
  2095 ;;      Totals:         0       0       0       0       0       0
  2096 ;;Total ram usage:        0 bytes
  2097 ;; Hardware stack levels used:    1
  2098 ;; Hardware stack levels required when called:    4
  2099 ;; This function calls:
  2100 ;;		Nothing
  2101 ;; This function is called by:
  2102 ;;		_main
  2103 ;; This function uses a non-reentrant model
  2104 ;;
  2105                           
  2106                           
  2107                           ;psect for function _softi2c_kur
  2108  04C6                     _softi2c_kur:	
  2109                           
  2110                           ;softi2c.c: 18: LATB4=1;
  2111                           
  2112                           ;incstack = 0
  2113                           ; Regs used in _softi2c_kur: []
  2114  04C6  0022               	movlb	2	; select bank2
  2115  04C7  160D               	bsf	13,4	;volatile
  2116                           
  2117                           ;softi2c.c: 19: RB5=1;
  2118  04C8  0020               	movlb	0	; select bank0
  2119  04C9  168D               	bsf	13,5	;volatile
  2120                           
  2121                           ;softi2c.c: 20: TRISB4=0;
  2122  04CA  0021               	movlb	1	; select bank1
  2123  04CB  120D               	bcf	13,4	;volatile
  2124                           
  2125                           ;softi2c.c: 21: TRISB5=1;
  2126  04CC  168D               	bsf	13,5	;volatile
  2127  04CD  0008               	return
  2128  04CE                     __end_of_softi2c_kur:	
  2129                           
  2130                           	psect	text2
  2131  0029                     __ptext2:	
  2132 ;; *************** function _printf *****************
  2133 ;; Defined at:
  2134 ;;		line 464 in file "C:\Program Files (x86)\Microchip\xc8\v1.45\sources\common\doprnt.c"
  2135 ;; Parameters:    Size  Location     Type
  2136 ;;  f               2    4[BANK0 ] PTR const unsigned char 
  2137 ;;		 -> STR_3(16), 
  2138 ;; Auto vars:     Size  Location     Type
  2139 ;;  tmpval          4    0        struct .
  2140 ;;  width           2   19[BANK0 ] int 
  2141 ;;  val             2   16[BANK0 ] unsigned int 
  2142 ;;  cp              2    0        PTR const unsigned char 
  2143 ;;  len             2    0        unsigned int 
  2144 ;;  c               1   21[BANK0 ] char 
  2145 ;;  flag            1   18[BANK0 ] unsigned char 
  2146 ;;  prec            1   15[BANK0 ] char 
  2147 ;;  ap              1   14[BANK0 ] PTR void [1]
  2148 ;;		 -> ?_printf(2), 
  2149 ;; Return value:  Size  Location     Type
  2150 ;;                  2    4[BANK0 ] int 
  2151 ;; Registers used:
  2152 ;;		wreg, fsr0l, fsr0h, fsr1l, fsr1h, status,2, status,0, pclath, cstack
  2153 ;; Tracked objects:
  2154 ;;		On entry : 0/0
  2155 ;;		On exit  : 0/0
  2156 ;;		Unchanged: 0/0
  2157 ;; Data sizes:     COMMON   BANK0   BANK1   BANK2   BANK3   BANK4
  2158 ;;      Params:         0       6       0       0       0       0
  2159 ;;      Locals:         0       8       0       0       0       0
  2160 ;;      Temps:          0       4       0       0       0       0
  2161 ;;      Totals:         0      18       0       0       0       0
  2162 ;;Total ram usage:       18 bytes
  2163 ;; Hardware stack levels used:    1
  2164 ;; Hardware stack levels required when called:    8
  2165 ;; This function calls:
  2166 ;;		___lwdiv
  2167 ;;		___lwmod
  2168 ;;		___wmul
  2169 ;;		_isdigit
  2170 ;;		_putch
  2171 ;; This function is called by:
  2172 ;;		_main
  2173 ;; This function uses a non-reentrant model
  2174 ;;
  2175                           
  2176                           
  2177                           ;psect for function _printf
  2178  0029                     _printf:	
  2179                           
  2180                           ;doprnt.c: 466: va_list ap;
  2181                           ;doprnt.c: 499: signed char c;
  2182                           ;doprnt.c: 501: int width;
  2183                           ;doprnt.c: 506: signed char prec;
  2184                           ;doprnt.c: 508: unsigned char flag;
  2185                           ;doprnt.c: 523: union {
  2186                           ;doprnt.c: 524: unsigned long vd;
  2187                           ;doprnt.c: 525: double integ;
  2188                           ;doprnt.c: 526: } tmpval;
  2189                           ;doprnt.c: 528: unsigned int val;
  2190                           ;doprnt.c: 529: unsigned len;
  2191                           ;doprnt.c: 530: const char * cp;
  2192                           ;doprnt.c: 533: *ap = __va_start();
  2193                           
  2194                           ;incstack = 0
  2195                           ; Regs used in _printf: [wreg-fsr1h+status,2+status,0+pclath+cstack]
  2196  0029  3027               	movlw	(low ((?_printf| 0+2)))& (0+255)
  2197  002A  0020               	movlb	0	; select bank0
  2198  002B  00AB               	movwf	??_printf
  2199  002C  082B               	movf	??_printf,w
  2200  002D  00AF               	movwf	printf@ap
  2201  002E                     l2139:	
  2202                           ;doprnt.c: 536: while(c = *f++) {
  2203                           
  2204  002E  0020               	movlb	0	; select bank0
  2205  002F  0826               	movf	printf@f+1,w
  2206  0030  00AC               	movwf	??_printf+1
  2207  0031  0825               	movf	printf@f,w
  2208  0032  00AB               	movwf	??_printf
  2209  0033  0AA5               	incf	printf@f,f
  2210  0034  1903               	skipnz
  2211  0035  0AA6               	incf	printf@f+1,f
  2212  0036  082B               	movf	??_printf,w
  2213  0037  0084               	movwf	4
  2214  0038  082C               	movf	??_printf+1,w
  2215  0039  0085               	movwf	5
  2216  003A  0800               	movf	0,w	;code access
  2217  003B  00AD               	movwf	??_printf+2
  2218  003C  082D               	movf	??_printf+2,w
  2219  003D  00B6               	movwf	printf@c
  2220  003E  0836               	movf	printf@c,w
  2221  003F  1903               	btfsc	3,2
  2222  0040  0008               	return
  2223                           
  2224                           ;doprnt.c: 538: if(c != '%')
  2225  0041  3025               	movlw	37
  2226  0042  0636               	xorwf	printf@c,w
  2227  0043  1903               	btfsc	3,2
  2228  0044  284A               	goto	l2053
  2229                           
  2230                           ;doprnt.c: 540: {
  2231                           ;doprnt.c: 541: (putch(c) );
  2232  0045  0836               	movf	printf@c,w
  2233  0046  3184  24D4  3180   	fcall	_putch
  2234                           
  2235                           ;doprnt.c: 542: continue;
  2236  0049  282E               	goto	l2139
  2237  004A                     l2053:	
  2238                           
  2239                           ;doprnt.c: 543: }
  2240                           ;doprnt.c: 546: width = 0;
  2241  004A  0020               	movlb	0	; select bank0
  2242  004B  01B4               	clrf	printf@width
  2243  004C  01B5               	clrf	printf@width+1
  2244                           
  2245                           ;doprnt.c: 548: flag = 0;
  2246  004D  01B3               	clrf	printf@flag
  2247                           
  2248                           ;doprnt.c: 551: switch(*f) {
  2249                           
  2250                           ;doprnt.c: 550: for(;;) {
  2251  004E  2854               	goto	l2059
  2252  004F                     l367:	
  2253                           ;doprnt.c: 579: case '0':
  2254                           
  2255                           
  2256                           ;doprnt.c: 580: flag |= 0x04;
  2257  004F  1533               	bsf	printf@flag,2
  2258                           
  2259                           ;doprnt.c: 581: f++;
  2260  0050  3001               	movlw	1
  2261  0051  07A5               	addwf	printf@f,f
  2262  0052  3000               	movlw	0
  2263  0053  3DA6               	addwfc	printf@f+1,f
  2264  0054                     l2059:	
  2265                           ;doprnt.c: 584: }
  2266                           
  2267                           ;doprnt.c: 582: continue;
  2268                           
  2269  0054  0825               	movf	printf@f,w
  2270  0055  0084               	movwf	4
  2271  0056  0826               	movf	printf@f+1,w
  2272  0057  0085               	movwf	5
  2273  0058  0800               	movf	0,w	;code access
  2274                           
  2275                           ; Switch size 1, requested type "space"
  2276                           ; Number of cases is 1, Range of values is 48 to 48
  2277                           ; switch strategies available:
  2278                           ; Name         Instructions Cycles
  2279                           ; simple_byte            4     3 (average)
  2280                           ; direct_byte           11     9 (fixed)
  2281                           ; jumptable            263     9 (fixed)
  2282                           ;	Chosen strategy is simple_byte
  2283  0059  3A30               	xorlw	48	; case 48
  2284  005A  1903               	skipnz
  2285  005B  284F               	goto	l367
  2286  005C  285D               	goto	l2061
  2287  005D                     l2061:	
  2288                           ;doprnt.c: 586: }
  2289                           
  2290                           ;doprnt.c: 585: break;
  2291                           
  2292                           
  2293                           ;doprnt.c: 597: if(isdigit((unsigned)*f)) {
  2294  005D  0825               	movf	printf@f,w
  2295  005E  0084               	movwf	4
  2296  005F  0826               	movf	printf@f+1,w
  2297  0060  0085               	movwf	5
  2298  0061  0800               	movf	0,w	;code access
  2299  0062  3184  2485  3180   	fcall	_isdigit
  2300  0065  1C03               	btfss	3,0
  2301  0066  2898               	goto	l2075
  2302                           
  2303                           ;doprnt.c: 598: width = 0;
  2304  0067  0020               	movlb	0	; select bank0
  2305  0068  01B4               	clrf	printf@width
  2306  0069  01B5               	clrf	printf@width+1
  2307  006A                     l2065:	
  2308                           ;doprnt.c: 599: do {
  2309                           
  2310                           
  2311                           ;doprnt.c: 600: width *= 10;
  2312  006A  300A               	movlw	10
  2313  006B  00F1               	movwf	___wmul@multiplier
  2314  006C  3000               	movlw	0
  2315  006D  00F2               	movwf	___wmul@multiplier+1
  2316  006E  0020               	movlb	0	; select bank0
  2317  006F  0835               	movf	printf@width+1,w
  2318  0070  00F4               	movwf	___wmul@multiplicand+1
  2319  0071  0834               	movf	printf@width,w
  2320  0072  00F3               	movwf	___wmul@multiplicand
  2321  0073  3183  23B9  3180   	fcall	___wmul
  2322  0076  0872               	movf	?___wmul+1,w
  2323  0077  0020               	movlb	0	; select bank0
  2324  0078  00B5               	movwf	printf@width+1
  2325  0079  0871               	movf	?___wmul,w
  2326  007A  00B4               	movwf	printf@width
  2327                           
  2328                           ;doprnt.c: 601: width += *f++ - '0';
  2329  007B  0825               	movf	printf@f,w
  2330  007C  0084               	movwf	4
  2331  007D  0826               	movf	printf@f+1,w
  2332  007E  0085               	movwf	5
  2333  007F  0800               	movf	0,w	;code access
  2334  0080  3ED0               	addlw	208
  2335  0081  00AB               	movwf	??_printf
  2336  0082  30FF               	movlw	255
  2337  0083  1803               	skipnc
  2338  0084  3000               	movlw	0
  2339  0085  00AC               	movwf	??_printf+1
  2340  0086  082B               	movf	??_printf,w
  2341  0087  07B4               	addwf	printf@width,f
  2342  0088  082C               	movf	??_printf+1,w
  2343  0089  3DB5               	addwfc	printf@width+1,f
  2344  008A  3001               	movlw	1
  2345  008B  07A5               	addwf	printf@f,f
  2346  008C  3000               	movlw	0
  2347  008D  3DA6               	addwfc	printf@f+1,f
  2348                           
  2349                           ;doprnt.c: 602: } while(isdigit((unsigned)*f));
  2350  008E  0825               	movf	printf@f,w
  2351  008F  0084               	movwf	4
  2352  0090  0826               	movf	printf@f+1,w
  2353  0091  0085               	movwf	5
  2354  0092  0800               	movf	0,w	;code access
  2355  0093  3184  2485  3180   	fcall	_isdigit
  2356  0096  1803               	btfsc	3,0
  2357  0097  286A               	goto	l2065
  2358  0098                     l2075:	
  2359                           ;doprnt.c: 822: }
  2360                           
  2361                           ;doprnt.c: 813: continue;
  2362                           
  2363                           ;doprnt.c: 802: default:
  2364                           
  2365                           ;doprnt.c: 698: case 'i':
  2366                           ;doprnt.c: 699: break;
  2367                           
  2368                           ;doprnt.c: 697: case 'd':
  2369                           
  2370                           ;doprnt.c: 638: goto alldone;
  2371                           
  2372                           ;doprnt.c: 637: case 0:
  2373                           
  2374                           ;doprnt.c: 608: }
  2375                           ;doprnt.c: 635: switch(c = *f++) {
  2376                           
  2377  0098  0020               	movlb	0	; select bank0
  2378  0099  0826               	movf	printf@f+1,w
  2379  009A  00AC               	movwf	??_printf+1
  2380  009B  0825               	movf	printf@f,w
  2381  009C  00AB               	movwf	??_printf
  2382  009D  0AA5               	incf	printf@f,f
  2383  009E  1903               	skipnz
  2384  009F  0AA6               	incf	printf@f+1,f
  2385  00A0  082B               	movf	??_printf,w
  2386  00A1  0084               	movwf	4
  2387  00A2  082C               	movf	??_printf+1,w
  2388  00A3  0085               	movwf	5
  2389  00A4  0800               	movf	0,w	;code access
  2390  00A5  00B6               	movwf	printf@c
  2391                           
  2392                           ; Switch size 1, requested type "space"
  2393                           ; Number of cases is 3, Range of values is 0 to 105
  2394                           ; switch strategies available:
  2395                           ; Name         Instructions Cycles
  2396                           ; simple_byte           10     6 (average)
  2397                           ; direct_byte          218     6 (fixed)
  2398                           ; jumptable            260     6 (fixed)
  2399                           ;	Chosen strategy is simple_byte
  2400  00A6  3A00               	xorlw	0	; case 0
  2401  00A7  1903               	skipnz
  2402  00A8  2983               	goto	l402
  2403  00A9  3A64               	xorlw	100	; case 100
  2404  00AA  1903               	skipnz
  2405  00AB  28B0               	goto	l2077
  2406  00AC  3A0D               	xorlw	13	; case 105
  2407  00AD  1903               	skipnz
  2408  00AE  28B0               	goto	l2077
  2409  00AF  282E               	goto	l2139
  2410  00B0                     l2077:	
  2411                           
  2412                           ;doprnt.c: 1253: {
  2413                           ;doprnt.c: 1259: val = (int)(*(int *)__va_arg((*(int **)ap), (int)0));
  2414  00B0  0020               	movlb	0	; select bank0
  2415  00B1  082F               	movf	printf@ap,w
  2416  00B2  0086               	movwf	6
  2417  00B3  0187               	clrf	7
  2418  00B4  3F40               	moviw [0]fsr1
  2419  00B5  00B1               	movwf	printf@val
  2420  00B6  3F41               	moviw [1]fsr1
  2421  00B7  00B2               	movwf	printf@val+1
  2422  00B8  3002               	movlw	2
  2423  00B9  00AB               	movwf	??_printf
  2424  00BA  082B               	movf	??_printf,w
  2425  00BB  07AF               	addwf	printf@ap,f
  2426                           
  2427                           ;doprnt.c: 1261: if((int)val < 0) {
  2428  00BC  1FB2               	btfss	printf@val+1,7
  2429  00BD  28C7               	goto	l2087
  2430                           
  2431                           ;doprnt.c: 1262: flag |= 0x03;
  2432  00BE  3003               	movlw	3
  2433  00BF  00AB               	movwf	??_printf
  2434  00C0  082B               	movf	??_printf,w
  2435  00C1  04B3               	iorwf	printf@flag,f
  2436                           
  2437                           ;doprnt.c: 1263: val = -val;
  2438  00C2  09B1               	comf	printf@val,f
  2439  00C3  09B2               	comf	printf@val+1,f
  2440  00C4  0AB1               	incf	printf@val,f
  2441  00C5  1903               	skipnz
  2442  00C6  0AB2               	incf	printf@val+1,f
  2443  00C7                     l2087:	
  2444                           
  2445                           ;doprnt.c: 1264: }
  2446                           ;doprnt.c: 1266: }
  2447                           ;doprnt.c: 1305: for(c = 1 ; c != sizeof dpowers/sizeof dpowers[0] ; c++)
  2448  00C7  01B6               	clrf	printf@c
  2449  00C8  0AB6               	incf	printf@c,f
  2450  00C9  3005               	movlw	5
  2451  00CA  0636               	xorwf	printf@c,w
  2452  00CB  1903               	btfsc	3,2
  2453  00CC  28EC               	goto	l2099
  2454  00CD                     l2093:	
  2455                           
  2456                           ;doprnt.c: 1306: if(val < dpowers[c])
  2457  00CD  0836               	movf	printf@c,w
  2458  00CE  00AB               	movwf	??_printf
  2459  00CF  01AC               	clrf	??_printf+1
  2460  00D0  35AB               	lslf	??_printf,f
  2461  00D1  0DAC               	rlf	??_printf+1,f
  2462  00D2  30AA               	movlw	low (_dpowers| (0+32768))
  2463  00D3  072B               	addwf	??_printf,w
  2464  00D4  0084               	movwf	4
  2465  00D5  3084               	movlw	high (_dpowers| (0+32768))
  2466  00D6  3D2C               	addwfc	??_printf+1,w
  2467  00D7  0085               	movwf	5
  2468  00D8  3F00               	moviw [0]fsr0
  2469  00D9  00AD               	movwf	??_printf+2
  2470  00DA  3F01               	moviw [1]fsr0
  2471  00DB  00AE               	movwf	??_printf+3
  2472  00DC  082E               	movf	??_printf+3,w
  2473  00DD  0232               	subwf	printf@val+1,w
  2474  00DE  1D03               	skipz
  2475  00DF  28E2               	goto	u1405
  2476  00E0  082D               	movf	??_printf+2,w
  2477  00E1  0231               	subwf	printf@val,w
  2478  00E2                     u1405:	
  2479  00E2  1C03               	btfss	3,0
  2480  00E3  28EC               	goto	l2099
  2481                           
  2482                           ;doprnt.c: 1307: break;
  2483  00E4  3001               	movlw	1
  2484  00E5  00AB               	movwf	??_printf
  2485  00E6  082B               	movf	??_printf,w
  2486  00E7  07B6               	addwf	printf@c,f
  2487  00E8  3005               	movlw	5
  2488  00E9  0636               	xorwf	printf@c,w
  2489  00EA  1D03               	btfss	3,2
  2490  00EB  28CD               	goto	l2093
  2491  00EC                     l2099:	
  2492                           
  2493                           ;doprnt.c: 1345: if(width && flag & 0x03)
  2494  00EC  0834               	movf	printf@width,w
  2495  00ED  0435               	iorwf	printf@width+1,w
  2496  00EE  1903               	btfsc	3,2
  2497  00EF  28F8               	goto	l385
  2498  00F0  0833               	movf	printf@flag,w
  2499  00F1  3903               	andlw	3
  2500  00F2  1903               	btfsc	3,2
  2501  00F3  28F8               	goto	l385
  2502                           
  2503                           ;doprnt.c: 1346: width--;
  2504  00F4  30FF               	movlw	255
  2505  00F5  07B4               	addwf	printf@width,f
  2506  00F6  30FF               	movlw	255
  2507  00F7  3DB5               	addwfc	printf@width+1,f
  2508  00F8                     l385:	
  2509                           
  2510                           ;doprnt.c: 1381: if(width > c)
  2511  00F8  0836               	movf	printf@c,w
  2512  00F9  00AB               	movwf	??_printf
  2513  00FA  01AC               	clrf	??_printf+1
  2514  00FB  1BAB               	btfsc	??_printf,7
  2515  00FC  03AC               	decf	??_printf+1,f
  2516  00FD  082C               	movf	??_printf+1,w
  2517  00FE  3A80               	xorlw	128
  2518  00FF  00AD               	movwf	??_printf+2
  2519  0100  0835               	movf	printf@width+1,w
  2520  0101  3A80               	xorlw	128
  2521  0102  022D               	subwf	??_printf+2,w
  2522  0103  1D03               	skipz
  2523  0104  2907               	goto	u1445
  2524  0105  0834               	movf	printf@width,w
  2525  0106  022B               	subwf	??_printf,w
  2526  0107                     u1445:	
  2527  0107  1803               	skipnc
  2528  0108  2914               	goto	l2107
  2529                           
  2530                           ;doprnt.c: 1382: width -= c;
  2531  0109  0020               	movlb	0	; select bank0
  2532  010A  0836               	movf	printf@c,w
  2533  010B  00AB               	movwf	??_printf
  2534  010C  01AC               	clrf	??_printf+1
  2535  010D  1BAB               	btfsc	??_printf,7
  2536  010E  03AC               	decf	??_printf+1,f
  2537  010F  082B               	movf	??_printf,w
  2538  0110  02B4               	subwf	printf@width,f
  2539  0111  082C               	movf	??_printf+1,w
  2540  0112  3BB5               	subwfb	printf@width+1,f
  2541  0113  2917               	goto	l2109
  2542  0114                     l2107:	
  2543                           
  2544                           ;doprnt.c: 1383: else
  2545                           ;doprnt.c: 1384: width = 0;
  2546  0114  0020               	movlb	0	; select bank0
  2547  0115  01B4               	clrf	printf@width
  2548  0116  01B5               	clrf	printf@width+1
  2549  0117                     l2109:	
  2550                           
  2551                           ;doprnt.c: 1387: if(flag & 0x04) {
  2552  0117  1D33               	btfss	printf@flag,2
  2553  0118  2930               	goto	l2121
  2554                           
  2555                           ;doprnt.c: 1392: if(flag & 0x03)
  2556  0119  0833               	movf	printf@flag,w
  2557  011A  3903               	andlw	3
  2558  011B  1903               	btfsc	3,2
  2559  011C  2921               	goto	l2115
  2560                           
  2561                           ;doprnt.c: 1393: (putch('-') );
  2562  011D  302D               	movlw	45
  2563  011E  3184  24D4  3180   	fcall	_putch
  2564  0121                     l2115:	
  2565                           
  2566                           ;doprnt.c: 1415: if(width)
  2567  0121  0020               	movlb	0	; select bank0
  2568  0122                     L3:	
  2569  0122  0834               	movf	printf@width,w
  2570  0123  0435               	iorwf	printf@width+1,w
  2571  0124  1903               	btfsc	3,2
  2572  0125  2949               	goto	l2131
  2573                           
  2574                           ;doprnt.c: 1417: (putch('0') );
  2575                           
  2576                           ;doprnt.c: 1416: do
  2577  0126  3030               	movlw	48
  2578  0127  3184  24D4  3180   	fcall	_putch
  2579                           
  2580                           ;doprnt.c: 1418: while(--width);
  2581  012A  30FF               	movlw	255
  2582  012B  0020               	movlb	0	; select bank0
  2583  012C  07B4               	addwf	printf@width,f
  2584  012D  30FF               	movlw	255
  2585  012E  3DB5               	addwfc	printf@width+1,f
  2586  012F  2922               	goto	L3
  2587  0130                     l2121:	
  2588                           ;doprnt.c: 1420: } else
  2589                           
  2590                           
  2591                           ;doprnt.c: 1422: {
  2592                           ;doprnt.c: 1424: if(width
  2593                           ;doprnt.c: 1428: )
  2594  0130  0834               	movf	printf@width,w
  2595  0131  0435               	iorwf	printf@width+1,w
  2596  0132  1903               	btfsc	3,2
  2597  0133  2941               	goto	l2127
  2598  0134                     l2123:	
  2599                           ;doprnt.c: 1429: do
  2600                           
  2601                           
  2602                           ;doprnt.c: 1430: (putch(' ') );
  2603  0134  3020               	movlw	32
  2604  0135  3184  24D4  3180   	fcall	_putch
  2605                           
  2606                           ;doprnt.c: 1431: while(--width);
  2607  0138  30FF               	movlw	255
  2608  0139  0020               	movlb	0	; select bank0
  2609  013A  07B4               	addwf	printf@width,f
  2610  013B  30FF               	movlw	255
  2611  013C  3DB5               	addwfc	printf@width+1,f
  2612  013D  0834               	movf	printf@width,w
  2613  013E  0435               	iorwf	printf@width+1,w
  2614  013F  1D03               	btfss	3,2
  2615  0140  2934               	goto	l2123
  2616  0141                     l2127:	
  2617                           
  2618                           ;doprnt.c: 1438: if(flag & 0x03)
  2619  0141  0833               	movf	printf@flag,w
  2620  0142  3903               	andlw	3
  2621  0143  1903               	btfsc	3,2
  2622  0144  2949               	goto	l2131
  2623                           
  2624                           ;doprnt.c: 1439: (putch('-') );
  2625  0145  302D               	movlw	45
  2626  0146  3184  24D4  3180   	fcall	_putch
  2627  0149                     l2131:	
  2628                           
  2629                           ;doprnt.c: 1469: }
  2630                           ;doprnt.c: 1472: prec = c;
  2631  0149  0020               	movlb	0	; select bank0
  2632  014A  0836               	movf	printf@c,w
  2633  014B  00AB               	movwf	??_printf
  2634  014C  082B               	movf	??_printf,w
  2635  014D  00B0               	movwf	printf@prec
  2636  014E                     l2137:	
  2637                           ;doprnt.c: 1474: while(prec--) {
  2638                           
  2639  014E  30FF               	movlw	255
  2640  014F  0020               	movlb	0	; select bank0
  2641  0150  00AB               	movwf	??_printf
  2642  0151  082B               	movf	??_printf,w
  2643  0152  07B0               	addwf	printf@prec,f
  2644  0153  0A30               	incf	printf@prec,w
  2645  0154  1903               	btfsc	3,2
  2646  0155  282E               	goto	l2139
  2647                           
  2648                           ;doprnt.c: 1478: {
  2649                           ;doprnt.c: 1489: c = (val / dpowers[prec]) % 10 + '0';
  2650  0156  300A               	movlw	10
  2651  0157  00A1               	movwf	___lwmod@divisor
  2652  0158  3000               	movlw	0
  2653  0159  00A2               	movwf	___lwmod@divisor+1
  2654  015A  0830               	movf	printf@prec,w
  2655  015B  00AB               	movwf	??_printf
  2656  015C  01AC               	clrf	??_printf+1
  2657  015D  35AB               	lslf	??_printf,f
  2658  015E  0DAC               	rlf	??_printf+1,f
  2659  015F  30AA               	movlw	low (_dpowers| (0+32768))
  2660  0160  072B               	addwf	??_printf,w
  2661  0161  0084               	movwf	4
  2662  0162  3084               	movlw	high (_dpowers| (0+32768))
  2663  0163  3D2C               	addwfc	??_printf+1,w
  2664  0164  0085               	movwf	5
  2665  0165  3F00               	moviw [0]fsr0
  2666  0166  00F1               	movwf	___lwdiv@divisor
  2667  0167  3F01               	moviw [1]fsr0
  2668  0168  00F2               	movwf	___lwdiv@divisor+1
  2669  0169  0832               	movf	printf@val+1,w
  2670  016A  00F4               	movwf	___lwdiv@dividend+1
  2671  016B  0831               	movf	printf@val,w
  2672  016C  00F3               	movwf	___lwdiv@dividend
  2673  016D  3182  22B2  3180   	fcall	___lwdiv
  2674  0170  0872               	movf	?___lwdiv+1,w
  2675  0171  0020               	movlb	0	; select bank0
  2676  0172  00A4               	movwf	___lwmod@dividend+1
  2677  0173  0871               	movf	?___lwdiv,w
  2678  0174  00A3               	movwf	___lwmod@dividend
  2679  0175  3183  2344  3180   	fcall	___lwmod
  2680  0178  0020               	movlb	0	; select bank0
  2681  0179  0821               	movf	?___lwmod,w
  2682  017A  3E30               	addlw	48
  2683  017B  00AD               	movwf	??_printf+2
  2684  017C  082D               	movf	??_printf+2,w
  2685  017D  00B6               	movwf	printf@c
  2686                           
  2687                           ;doprnt.c: 1523: }
  2688                           ;doprnt.c: 1524: (putch(c) );
  2689  017E  0836               	movf	printf@c,w
  2690  017F  3184  24D4  3180   	fcall	_putch
  2691  0182  294E               	goto	l2137
  2692  0183                     l402:	
  2693                           ;doprnt.c: 1540: return 0;
  2694                           ;	Return value of _printf is never used
  2695                           
  2696                           ;doprnt.c: 1525: }
  2697                           ;doprnt.c: 1533: }
  2698                           ;doprnt.c: 1535: alldone:
  2699                           
  2700  0183  0008               	return
  2701  0184                     __end_of_printf:	
  2702                           
  2703                           	psect	text3
  2704  04D4                     __ptext3:	
  2705 ;; *************** function _putch *****************
  2706 ;; Defined at:
  2707 ;;		line 376 in file "seri_lcd.c"
  2708 ;; Parameters:    Size  Location     Type
  2709 ;;  byte            1    wreg     unsigned char 
  2710 ;; Auto vars:     Size  Location     Type
  2711 ;;  byte            1    8[COMMON] unsigned char 
  2712 ;; Return value:  Size  Location     Type
  2713 ;;                  1    wreg      void 
  2714 ;; Registers used:
  2715 ;;		wreg, status,2, status,0, pclath, cstack
  2716 ;; Tracked objects:
  2717 ;;		On entry : 0/0
  2718 ;;		On exit  : 0/0
  2719 ;;		Unchanged: 0/0
  2720 ;; Data sizes:     COMMON   BANK0   BANK1   BANK2   BANK3   BANK4
  2721 ;;      Params:         0       0       0       0       0       0
  2722 ;;      Locals:         1       0       0       0       0       0
  2723 ;;      Temps:          0       0       0       0       0       0
  2724 ;;      Totals:         1       0       0       0       0       0
  2725 ;;Total ram usage:        1 bytes
  2726 ;; Hardware stack levels used:    1
  2727 ;; Hardware stack levels required when called:    7
  2728 ;; This function calls:
  2729 ;;		_lcd_harfyaz
  2730 ;; This function is called by:
  2731 ;;		_printf
  2732 ;; This function uses a non-reentrant model
  2733 ;;
  2734                           
  2735                           
  2736                           ;psect for function _putch
  2737  04D4                     _putch:	
  2738                           
  2739                           ;incstack = 0
  2740                           ; Regs used in _putch: [wreg+status,2+status,0+pclath+cstack]
  2741                           ;putch@byte stored from wreg
  2742  04D4  00F8               	movwf	putch@byte
  2743                           
  2744                           ;seri_lcd.c: 377: lcd_harfyaz(byte);
  2745  04D5  0878               	movf	putch@byte,w
  2746  04D6  3182  22E6         	fcall	_lcd_harfyaz
  2747  04D8  0008               	return
  2748  04D9                     __end_of_putch:	
  2749                           
  2750                           	psect	text4
  2751  0485                     __ptext4:	
  2752 ;; *************** function _isdigit *****************
  2753 ;; Defined at:
  2754 ;;		line 8 in file "C:\Program Files (x86)\Microchip\xc8\v1.45\sources\common\isdigit.c"
  2755 ;; Parameters:    Size  Location     Type
  2756 ;;  c               1    wreg     unsigned char 
  2757 ;; Auto vars:     Size  Location     Type
  2758 ;;  c               1    2[COMMON] unsigned char 
  2759 ;; Return value:  Size  Location     Type
  2760 ;;		None               void
  2761 ;; Registers used:
  2762 ;;		wreg, status,2, status,0
  2763 ;; Tracked objects:
  2764 ;;		On entry : 0/0
  2765 ;;		On exit  : 0/0
  2766 ;;		Unchanged: 0/0
  2767 ;; Data sizes:     COMMON   BANK0   BANK1   BANK2   BANK3   BANK4
  2768 ;;      Params:         0       0       0       0       0       0
  2769 ;;      Locals:         2       0       0       0       0       0
  2770 ;;      Temps:          0       0       0       0       0       0
  2771 ;;      Totals:         2       0       0       0       0       0
  2772 ;;Total ram usage:        2 bytes
  2773 ;; Hardware stack levels used:    1
  2774 ;; Hardware stack levels required when called:    4
  2775 ;; This function calls:
  2776 ;;		Nothing
  2777 ;; This function is called by:
  2778 ;;		_printf
  2779 ;; This function uses a non-reentrant model
  2780 ;;
  2781                           
  2782                           
  2783                           ;psect for function _isdigit
  2784  0485                     _isdigit:	
  2785                           
  2786                           ;incstack = 0
  2787                           ; Regs used in _isdigit: [wreg+status,2+status,0]
  2788                           ;isdigit@c stored from wreg
  2789  0485  00F2               	movwf	isdigit@c
  2790  0486  01F1               	clrf	_isdigit$825
  2791  0487  303A               	movlw	58
  2792  0488  0272               	subwf	isdigit@c,w
  2793  0489  1803               	skipnc
  2794  048A  2C91               	goto	l1667
  2795  048B  3030               	movlw	48
  2796  048C  0272               	subwf	isdigit@c,w
  2797  048D  1C03               	skipc
  2798  048E  2C91               	goto	l1667
  2799  048F  01F1               	clrf	_isdigit$825
  2800  0490  0AF1               	incf	_isdigit$825,f
  2801  0491                     l1667:	
  2802  0491  0C71               	rrf	_isdigit$825,w
  2803  0492  0008               	return
  2804  0493                     __end_of_isdigit:	
  2805                           
  2806                           	psect	text5
  2807  03B9                     __ptext5:	
  2808 ;; *************** function ___wmul *****************
  2809 ;; Defined at:
  2810 ;;		line 15 in file "C:\Program Files (x86)\Microchip\xc8\v1.45\sources\common\Umul16.c"
  2811 ;; Parameters:    Size  Location     Type
  2812 ;;  multiplier      2    1[COMMON] unsigned int 
  2813 ;;  multiplicand    2    3[COMMON] unsigned int 
  2814 ;; Auto vars:     Size  Location     Type
  2815 ;;  product         2    5[COMMON] unsigned int 
  2816 ;; Return value:  Size  Location     Type
  2817 ;;                  2    1[COMMON] unsigned int 
  2818 ;; Registers used:
  2819 ;;		wreg, status,2, status,0
  2820 ;; Tracked objects:
  2821 ;;		On entry : 0/0
  2822 ;;		On exit  : 0/0
  2823 ;;		Unchanged: 0/0
  2824 ;; Data sizes:     COMMON   BANK0   BANK1   BANK2   BANK3   BANK4
  2825 ;;      Params:         4       0       0       0       0       0
  2826 ;;      Locals:         2       0       0       0       0       0
  2827 ;;      Temps:          0       0       0       0       0       0
  2828 ;;      Totals:         6       0       0       0       0       0
  2829 ;;Total ram usage:        6 bytes
  2830 ;; Hardware stack levels used:    1
  2831 ;; Hardware stack levels required when called:    4
  2832 ;; This function calls:
  2833 ;;		Nothing
  2834 ;; This function is called by:
  2835 ;;		_printf
  2836 ;; This function uses a non-reentrant model
  2837 ;;
  2838                           
  2839                           
  2840                           ;psect for function ___wmul
  2841  03B9                     ___wmul:	
  2842                           
  2843                           ;incstack = 0
  2844                           ; Regs used in ___wmul: [wreg+status,2+status,0]
  2845  03B9  01F5               	clrf	___wmul@product
  2846  03BA  01F6               	clrf	___wmul@product+1
  2847  03BB                     l1673:	
  2848  03BB  1C71               	btfss	___wmul@multiplier,0
  2849  03BC  2BC1               	goto	l486
  2850  03BD  0873               	movf	___wmul@multiplicand,w
  2851  03BE  07F5               	addwf	___wmul@product,f
  2852  03BF  0874               	movf	___wmul@multiplicand+1,w
  2853  03C0  3DF6               	addwfc	___wmul@product+1,f
  2854  03C1                     l486:	
  2855  03C1  3001               	movlw	1
  2856  03C2                     u765:	
  2857  03C2  35F3               	lslf	___wmul@multiplicand,f
  2858  03C3  0DF4               	rlf	___wmul@multiplicand+1,f
  2859  03C4  0B89               	decfsz	9,f
  2860  03C5  2BC2               	goto	u765
  2861  03C6  3001               	movlw	1
  2862  03C7                     u775:	
  2863  03C7  36F2               	lsrf	___wmul@multiplier+1,f
  2864  03C8  0CF1               	rrf	___wmul@multiplier,f
  2865  03C9  0B89               	decfsz	9,f
  2866  03CA  2BC7               	goto	u775
  2867  03CB  0871               	movf	___wmul@multiplier,w
  2868  03CC  0472               	iorwf	___wmul@multiplier+1,w
  2869  03CD  1D03               	btfss	3,2
  2870  03CE  2BBB               	goto	l1673
  2871  03CF  0876               	movf	___wmul@product+1,w
  2872  03D0  00F2               	movwf	?___wmul+1
  2873  03D1  0875               	movf	___wmul@product,w
  2874  03D2  00F1               	movwf	?___wmul
  2875  03D3  0008               	return
  2876  03D4                     __end_of___wmul:	
  2877                           
  2878                           	psect	text6
  2879  0344                     __ptext6:	
  2880 ;; *************** function ___lwmod *****************
  2881 ;; Defined at:
  2882 ;;		line 6 in file "C:\Program Files (x86)\Microchip\xc8\v1.45\sources\common\lwmod.c"
  2883 ;; Parameters:    Size  Location     Type
  2884 ;;  divisor         2    0[BANK0 ] unsigned int 
  2885 ;;  dividend        2    2[BANK0 ] unsigned int 
  2886 ;; Auto vars:     Size  Location     Type
  2887 ;;  counter         1   10[COMMON] unsigned char 
  2888 ;; Return value:  Size  Location     Type
  2889 ;;                  2    0[BANK0 ] unsigned int 
  2890 ;; Registers used:
  2891 ;;		wreg, status,2, status,0
  2892 ;; Tracked objects:
  2893 ;;		On entry : 0/0
  2894 ;;		On exit  : 0/0
  2895 ;;		Unchanged: 0/0
  2896 ;; Data sizes:     COMMON   BANK0   BANK1   BANK2   BANK3   BANK4
  2897 ;;      Params:         0       4       0       0       0       0
  2898 ;;      Locals:         1       0       0       0       0       0
  2899 ;;      Temps:          1       0       0       0       0       0
  2900 ;;      Totals:         2       4       0       0       0       0
  2901 ;;Total ram usage:        6 bytes
  2902 ;; Hardware stack levels used:    1
  2903 ;; Hardware stack levels required when called:    4
  2904 ;; This function calls:
  2905 ;;		Nothing
  2906 ;; This function is called by:
  2907 ;;		_printf
  2908 ;; This function uses a non-reentrant model
  2909 ;;
  2910                           
  2911                           
  2912                           ;psect for function ___lwmod
  2913  0344                     ___lwmod:	
  2914                           
  2915                           ;incstack = 0
  2916                           ; Regs used in ___lwmod: [wreg+status,2+status,0]
  2917  0344  0020               	movlb	0	; select bank0
  2918  0345  0821               	movf	___lwmod@divisor,w
  2919  0346  0422               	iorwf	___lwmod@divisor+1,w
  2920  0347  1903               	btfsc	3,2
  2921  0348  2B6C               	goto	l2037
  2922  0349  01FA               	clrf	___lwmod@counter
  2923  034A  0AFA               	incf	___lwmod@counter,f
  2924  034B                     l2027:	
  2925  034B  1BA2               	btfsc	___lwmod@divisor+1,7
  2926  034C  2B57               	goto	l2029
  2927  034D  3001               	movlw	1
  2928  034E                     u1295:	
  2929  034E  35A1               	lslf	___lwmod@divisor,f
  2930  034F  0DA2               	rlf	___lwmod@divisor+1,f
  2931  0350  0B89               	decfsz	9,f
  2932  0351  2B4E               	goto	u1295
  2933  0352  3001               	movlw	1
  2934  0353  00F9               	movwf	??___lwmod
  2935  0354  0879               	movf	??___lwmod,w
  2936  0355  07FA               	addwf	___lwmod@counter,f
  2937  0356  2B4B               	goto	l2027
  2938  0357                     l2029:	
  2939  0357  0822               	movf	___lwmod@divisor+1,w
  2940  0358  0224               	subwf	___lwmod@dividend+1,w
  2941  0359  1D03               	skipz
  2942  035A  2B5D               	goto	u1315
  2943  035B  0821               	movf	___lwmod@divisor,w
  2944  035C  0223               	subwf	___lwmod@dividend,w
  2945  035D                     u1315:	
  2946  035D  1C03               	skipc
  2947  035E  2B63               	goto	l2033
  2948  035F  0821               	movf	___lwmod@divisor,w
  2949  0360  02A3               	subwf	___lwmod@dividend,f
  2950  0361  0822               	movf	___lwmod@divisor+1,w
  2951  0362  3BA4               	subwfb	___lwmod@dividend+1,f
  2952  0363                     l2033:	
  2953  0363  3001               	movlw	1
  2954  0364                     u1325:	
  2955  0364  36A2               	lsrf	___lwmod@divisor+1,f
  2956  0365  0CA1               	rrf	___lwmod@divisor,f
  2957  0366  0B89               	decfsz	9,f
  2958  0367  2B64               	goto	u1325
  2959  0368  3001               	movlw	1
  2960  0369  02FA               	subwf	___lwmod@counter,f
  2961  036A  1D03               	btfss	3,2
  2962  036B  2B57               	goto	l2029
  2963  036C                     l2037:	
  2964  036C  0824               	movf	___lwmod@dividend+1,w
  2965  036D  00A2               	movwf	?___lwmod+1
  2966  036E  0823               	movf	___lwmod@dividend,w
  2967  036F  00A1               	movwf	?___lwmod
  2968  0370  0008               	return
  2969  0371                     __end_of___lwmod:	
  2970                           
  2971                           	psect	text7
  2972  02B2                     __ptext7:	
  2973 ;; *************** function ___lwdiv *****************
  2974 ;; Defined at:
  2975 ;;		line 6 in file "C:\Program Files (x86)\Microchip\xc8\v1.45\sources\common\lwdiv.c"
  2976 ;; Parameters:    Size  Location     Type
  2977 ;;  divisor         2    1[COMMON] unsigned int 
  2978 ;;  dividend        2    3[COMMON] unsigned int 
  2979 ;; Auto vars:     Size  Location     Type
  2980 ;;  quotient        2    6[COMMON] unsigned int 
  2981 ;;  counter         1    8[COMMON] unsigned char 
  2982 ;; Return value:  Size  Location     Type
  2983 ;;                  2    1[COMMON] unsigned int 
  2984 ;; Registers used:
  2985 ;;		wreg, status,2, status,0
  2986 ;; Tracked objects:
  2987 ;;		On entry : 0/0
  2988 ;;		On exit  : 0/0
  2989 ;;		Unchanged: 0/0
  2990 ;; Data sizes:     COMMON   BANK0   BANK1   BANK2   BANK3   BANK4
  2991 ;;      Params:         4       0       0       0       0       0
  2992 ;;      Locals:         3       0       0       0       0       0
  2993 ;;      Temps:          1       0       0       0       0       0
  2994 ;;      Totals:         8       0       0       0       0       0
  2995 ;;Total ram usage:        8 bytes
  2996 ;; Hardware stack levels used:    1
  2997 ;; Hardware stack levels required when called:    4
  2998 ;; This function calls:
  2999 ;;		Nothing
  3000 ;; This function is called by:
  3001 ;;		_printf
  3002 ;; This function uses a non-reentrant model
  3003 ;;
  3004                           
  3005                           
  3006                           ;psect for function ___lwdiv
  3007  02B2                     ___lwdiv:	
  3008                           
  3009                           ;incstack = 0
  3010                           ; Regs used in ___lwdiv: [wreg+status,2+status,0]
  3011  02B2  01F6               	clrf	___lwdiv@quotient
  3012  02B3  01F7               	clrf	___lwdiv@quotient+1
  3013  02B4  0871               	movf	___lwdiv@divisor,w
  3014  02B5  0472               	iorwf	___lwdiv@divisor+1,w
  3015  02B6  1903               	btfsc	3,2
  3016  02B7  2AE1               	goto	l1707
  3017  02B8  01F8               	clrf	___lwdiv@counter
  3018  02B9  0AF8               	incf	___lwdiv@counter,f
  3019  02BA                     l1695:	
  3020  02BA  1BF2               	btfsc	___lwdiv@divisor+1,7
  3021  02BB  2AC6               	goto	l1697
  3022  02BC  3001               	movlw	1
  3023  02BD                     u805:	
  3024  02BD  35F1               	lslf	___lwdiv@divisor,f
  3025  02BE  0DF2               	rlf	___lwdiv@divisor+1,f
  3026  02BF  0B89               	decfsz	9,f
  3027  02C0  2ABD               	goto	u805
  3028  02C1  3001               	movlw	1
  3029  02C2  00F5               	movwf	??___lwdiv
  3030  02C3  0875               	movf	??___lwdiv,w
  3031  02C4  07F8               	addwf	___lwdiv@counter,f
  3032  02C5  2ABA               	goto	l1695
  3033  02C6                     l1697:	
  3034  02C6  3001               	movlw	1
  3035  02C7                     u825:	
  3036  02C7  35F6               	lslf	___lwdiv@quotient,f
  3037  02C8  0DF7               	rlf	___lwdiv@quotient+1,f
  3038  02C9  0B89               	decfsz	9,f
  3039  02CA  2AC7               	goto	u825
  3040  02CB  0872               	movf	___lwdiv@divisor+1,w
  3041  02CC  0274               	subwf	___lwdiv@dividend+1,w
  3042  02CD  1D03               	skipz
  3043  02CE  2AD1               	goto	u835
  3044  02CF  0871               	movf	___lwdiv@divisor,w
  3045  02D0  0273               	subwf	___lwdiv@dividend,w
  3046  02D1                     u835:	
  3047  02D1  1C03               	skipc
  3048  02D2  2AD8               	goto	l1703
  3049  02D3  0871               	movf	___lwdiv@divisor,w
  3050  02D4  02F3               	subwf	___lwdiv@dividend,f
  3051  02D5  0872               	movf	___lwdiv@divisor+1,w
  3052  02D6  3BF4               	subwfb	___lwdiv@dividend+1,f
  3053  02D7  1476               	bsf	___lwdiv@quotient,0
  3054  02D8                     l1703:	
  3055  02D8  3001               	movlw	1
  3056  02D9                     u845:	
  3057  02D9  36F2               	lsrf	___lwdiv@divisor+1,f
  3058  02DA  0CF1               	rrf	___lwdiv@divisor,f
  3059  02DB  0B89               	decfsz	9,f
  3060  02DC  2AD9               	goto	u845
  3061  02DD  3001               	movlw	1
  3062  02DE  02F8               	subwf	___lwdiv@counter,f
  3063  02DF  1D03               	btfss	3,2
  3064  02E0  2AC6               	goto	l1697
  3065  02E1                     l1707:	
  3066  02E1  0877               	movf	___lwdiv@quotient+1,w
  3067  02E2  00F2               	movwf	?___lwdiv+1
  3068  02E3  0876               	movf	___lwdiv@quotient,w
  3069  02E4  00F1               	movwf	?___lwdiv
  3070  02E5  0008               	return
  3071  02E6                     __end_of___lwdiv:	
  3072                           
  3073                           	psect	text8
  3074  0399                     __ptext8:	
  3075 ;; *************** function _lcd_mesajyaz *****************
  3076 ;; Defined at:
  3077 ;;		line 179 in file "seri_lcd.c"
  3078 ;; Parameters:    Size  Location     Type
  3079 ;;  satir           1    wreg     unsigned char 
  3080 ;;  sutun           1    0[BANK0 ] unsigned char 
  3081 ;;  mesaj           2    1[BANK0 ] PTR const unsigned char 
  3082 ;;		 -> STR_2(8), STR_1(15), 
  3083 ;; Auto vars:     Size  Location     Type
  3084 ;;  satir           1    4[BANK0 ] unsigned char 
  3085 ;; Return value:  Size  Location     Type
  3086 ;;                  1    wreg      void 
  3087 ;; Registers used:
  3088 ;;		wreg, fsr0l, fsr0h, status,2, status,0, pclath, cstack
  3089 ;; Tracked objects:
  3090 ;;		On entry : 0/0
  3091 ;;		On exit  : 0/0
  3092 ;;		Unchanged: 0/0
  3093 ;; Data sizes:     COMMON   BANK0   BANK1   BANK2   BANK3   BANK4
  3094 ;;      Params:         0       3       0       0       0       0
  3095 ;;      Locals:         0       1       0       0       0       0
  3096 ;;      Temps:          0       1       0       0       0       0
  3097 ;;      Totals:         0       5       0       0       0       0
  3098 ;;Total ram usage:        5 bytes
  3099 ;; Hardware stack levels used:    1
  3100 ;; Hardware stack levels required when called:    8
  3101 ;; This function calls:
  3102 ;;		_lcd_git
  3103 ;;		_lcd_harfyaz
  3104 ;; This function is called by:
  3105 ;;		_main
  3106 ;; This function uses a non-reentrant model
  3107 ;;
  3108                           
  3109                           
  3110                           ;psect for function _lcd_mesajyaz
  3111  0399                     _lcd_mesajyaz:	
  3112                           
  3113                           ;incstack = 0
  3114                           ; Regs used in _lcd_mesajyaz: [wreg-fsr0h+status,2+status,0+pclath+cstack]
  3115                           ;lcd_mesajyaz@satir stored from wreg
  3116  0399  0020               	movlb	0	; select bank0
  3117  039A  00A5               	movwf	lcd_mesajyaz@satir
  3118                           
  3119                           ;seri_lcd.c: 180: lcd_git(satir, sutun);
  3120  039B  0821               	movf	lcd_mesajyaz@sutun,w
  3121  039C  00A4               	movwf	??_lcd_mesajyaz
  3122  039D  0824               	movf	??_lcd_mesajyaz,w
  3123  039E  00F8               	movwf	lcd_git@sutun
  3124  039F  0825               	movf	lcd_mesajyaz@satir,w
  3125  03A0  3183  2371  3183   	fcall	_lcd_git
  3126  03A3                     l229:	
  3127                           ;seri_lcd.c: 181: do {
  3128                           
  3129                           
  3130                           ;seri_lcd.c: 182: lcd_harfyaz(*mesaj++);
  3131  03A3  0020               	movlb	0	; select bank0
  3132  03A4  0822               	movf	lcd_mesajyaz@mesaj,w
  3133  03A5  0084               	movwf	4
  3134  03A6  0823               	movf	lcd_mesajyaz@mesaj+1,w
  3135  03A7  0085               	movwf	5
  3136  03A8  0800               	movf	0,w	;code access
  3137  03A9  3182  22E6  3183   	fcall	_lcd_harfyaz
  3138  03AC  3001               	movlw	1
  3139  03AD  0020               	movlb	0	; select bank0
  3140  03AE  07A2               	addwf	lcd_mesajyaz@mesaj,f
  3141  03AF  3000               	movlw	0
  3142  03B0  3DA3               	addwfc	lcd_mesajyaz@mesaj+1,f
  3143                           
  3144                           ;seri_lcd.c: 183: } while (*mesaj);
  3145  03B1  0822               	movf	lcd_mesajyaz@mesaj,w
  3146  03B2  0084               	movwf	4
  3147  03B3  0823               	movf	lcd_mesajyaz@mesaj+1,w
  3148  03B4  0085               	movwf	5
  3149  03B5  0012               	moviw fsr0++
  3150  03B6  1903               	btfsc	3,2
  3151  03B7  0008               	return
  3152  03B8  2BA3               	goto	l229
  3153  03B9                     __end_of_lcd_mesajyaz:	
  3154                           
  3155                           	psect	text9
  3156  02E6                     __ptext9:	
  3157 ;; *************** function _lcd_harfyaz *****************
  3158 ;; Defined at:
  3159 ;;		line 208 in file "seri_lcd.c"
  3160 ;; Parameters:    Size  Location     Type
  3161 ;;  harf            1    wreg     unsigned char 
  3162 ;; Auto vars:     Size  Location     Type
  3163 ;;  harf            1    7[COMMON] unsigned char 
  3164 ;; Return value:  Size  Location     Type
  3165 ;;                  1    wreg      void 
  3166 ;; Registers used:
  3167 ;;		wreg, status,2, status,0, pclath, cstack
  3168 ;; Tracked objects:
  3169 ;;		On entry : 0/0
  3170 ;;		On exit  : 0/0
  3171 ;;		Unchanged: 0/0
  3172 ;; Data sizes:     COMMON   BANK0   BANK1   BANK2   BANK3   BANK4
  3173 ;;      Params:         0       0       0       0       0       0
  3174 ;;      Locals:         1       0       0       0       0       0
  3175 ;;      Temps:          2       0       0       0       0       0
  3176 ;;      Totals:         3       0       0       0       0       0
  3177 ;;Total ram usage:        3 bytes
  3178 ;; Hardware stack levels used:    1
  3179 ;; Hardware stack levels required when called:    6
  3180 ;; This function calls:
  3181 ;;		_lcd_mesgulmu
  3182 ;;		_pcf8574_yaz_wEnable
  3183 ;; This function is called by:
  3184 ;;		_lcd_mesajyaz
  3185 ;;		_putch
  3186 ;;		_lcd_mesajyaz_cp
  3187 ;;		_lcd_ozelkarakter
  3188 ;; This function uses a non-reentrant model
  3189 ;;
  3190                           
  3191                           
  3192                           ;psect for function _lcd_harfyaz
  3193  02E6                     _lcd_harfyaz:	
  3194                           
  3195                           ;incstack = 0
  3196                           ; Regs used in _lcd_harfyaz: [wreg+status,2+status,0+pclath+cstack]
  3197                           ;lcd_harfyaz@harf stored from wreg
  3198  02E6  00F7               	movwf	lcd_harfyaz@harf
  3199                           
  3200                           ;seri_lcd.c: 209: lcd_mesgulmu();
  3201  02E7  3184  24D9  3182   	fcall	_lcd_mesgulmu
  3202                           
  3203                           ;seri_lcd.c: 210: pcf_port.lcd.RS = 1;
  3204  02EA  147C               	bsf	_pcf_port,0
  3205                           
  3206                           ;seri_lcd.c: 212: pcf_port.port = (pcf_port.port & 0x0f) | (harf & 0xf0);
  3207  02EB  30F0               	movlw	240
  3208  02EC  0577               	andwf	lcd_harfyaz@harf,w
  3209  02ED  00F5               	movwf	??_lcd_harfyaz
  3210  02EE  087C               	movf	_pcf_port,w
  3211  02EF  390F               	andlw	15
  3212  02F0  0475               	iorwf	??_lcd_harfyaz,w
  3213  02F1  00F6               	movwf	??_lcd_harfyaz+1
  3214  02F2  0876               	movf	??_lcd_harfyaz+1,w
  3215  02F3  00FC               	movwf	_pcf_port
  3216                           
  3217                           ;seri_lcd.c: 213: pcf8574_yaz_wEnable();
  3218  02F4  3183  23ED  3182   	fcall	_pcf8574_yaz_wEnable
  3219                           
  3220                           ;seri_lcd.c: 214: _delay((unsigned long)((200)*(32000000/4000000.0)));
  3221  02F7  30E4               	movlw	228
  3222  02F8                     u1637:	
  3223  02F8  3200               	nop2
  3224  02F9  3200               	nop2
  3225  02FA  0B89               	decfsz	9,f
  3226  02FB  2AF8               	goto	u1637
  3227  02FC  3200               	nop2
  3228  02FD  3200               	nop2
  3229                           
  3230                           ;seri_lcd.c: 216: pcf_port.port = (pcf_port.port & 0x0f) | (harf << 4);
  3231  02FE  0877               	movf	lcd_harfyaz@harf,w
  3232  02FF  00F5               	movwf	??_lcd_harfyaz
  3233  0300  3004               	movlw	4
  3234  0301                     u715:	
  3235  0301  35F5               	lslf	??_lcd_harfyaz,f
  3236  0302  0B89               	decfsz	9,f
  3237  0303  2B01               	goto	u715
  3238  0304  087C               	movf	_pcf_port,w
  3239  0305  390F               	andlw	15
  3240  0306  0475               	iorwf	??_lcd_harfyaz,w
  3241  0307  00F6               	movwf	??_lcd_harfyaz+1
  3242  0308  0876               	movf	??_lcd_harfyaz+1,w
  3243  0309  00FC               	movwf	_pcf_port
  3244                           
  3245                           ;seri_lcd.c: 217: pcf8574_yaz_wEnable();
  3246  030A  3183  23ED  3182   	fcall	_pcf8574_yaz_wEnable
  3247                           
  3248                           ;seri_lcd.c: 218: _delay((unsigned long)((200)*(32000000/4000000.0)));
  3249  030D  30E4               	movlw	228
  3250  030E                     u1647:	
  3251  030E  3200               	nop2
  3252  030F  3200               	nop2
  3253  0310  0B89               	decfsz	9,f
  3254  0311  2B0E               	goto	u1647
  3255  0312  3200               	nop2
  3256  0313  3200               	nop2
  3257  0314  0008               	return
  3258  0315                     __end_of_lcd_harfyaz:	
  3259                           
  3260                           	psect	text10
  3261  0371                     __ptext10:	
  3262 ;; *************** function _lcd_git *****************
  3263 ;; Defined at:
  3264 ;;		line 155 in file "seri_lcd.c"
  3265 ;; Parameters:    Size  Location     Type
  3266 ;;  satir           1    wreg     unsigned char 
  3267 ;;  sutun           1    8[COMMON] unsigned char 
  3268 ;; Auto vars:     Size  Location     Type
  3269 ;;  satir           1   10[COMMON] unsigned char 
  3270 ;;  temp            1   11[COMMON] unsigned char 
  3271 ;; Return value:  Size  Location     Type
  3272 ;;                  1    wreg      void 
  3273 ;; Registers used:
  3274 ;;		wreg, fsr0l, fsr0h, status,2, status,0, pclath, cstack
  3275 ;; Tracked objects:
  3276 ;;		On entry : 0/0
  3277 ;;		On exit  : 0/0
  3278 ;;		Unchanged: 0/0
  3279 ;; Data sizes:     COMMON   BANK0   BANK1   BANK2   BANK3   BANK4
  3280 ;;      Params:         1       0       0       0       0       0
  3281 ;;      Locals:         2       0       0       0       0       0
  3282 ;;      Temps:          1       0       0       0       0       0
  3283 ;;      Totals:         4       0       0       0       0       0
  3284 ;;Total ram usage:        4 bytes
  3285 ;; Hardware stack levels used:    1
  3286 ;; Hardware stack levels required when called:    7
  3287 ;; This function calls:
  3288 ;;		_lcd_komut
  3289 ;; This function is called by:
  3290 ;;		_main
  3291 ;;		_lcd_mesajyaz
  3292 ;; This function uses a non-reentrant model
  3293 ;;
  3294                           
  3295                           
  3296                           ;psect for function _lcd_git
  3297  0371                     _lcd_git:	
  3298                           
  3299                           ;incstack = 0
  3300                           ; Regs used in _lcd_git: [wreg-fsr0h+status,2+status,0+pclath+cstack]
  3301                           ;lcd_git@satir stored from wreg
  3302  0371  00FA               	movwf	lcd_git@satir
  3303                           
  3304                           ;seri_lcd.c: 156: char temp;
  3305                           ;seri_lcd.c: 157: switch (satir) {
  3306  0372  2B82               	goto	l1645
  3307  0373                     l1635:	
  3308                           ;seri_lcd.c: 158: case 1:
  3309                           
  3310                           
  3311                           ;seri_lcd.c: 159: temp = sutun - 1 + 0x80;
  3312  0373  0878               	movf	lcd_git@sutun,w
  3313  0374  3E7F               	addlw	127
  3314  0375  2B7E               	goto	L6
  3315  0376                     l1637:	
  3316                           ;seri_lcd.c: 161: case 2:
  3317                           
  3318                           ;seri_lcd.c: 160: break;
  3319                           
  3320                           
  3321                           ;seri_lcd.c: 162: temp = sutun - 1 + 0xc0;
  3322  0376  0878               	movf	lcd_git@sutun,w
  3323  0377  3EBF               	addlw	191
  3324  0378  2B7E               	goto	L6
  3325  0379                     l1639:	
  3326                           ;seri_lcd.c: 164: case 3:
  3327                           
  3328                           ;seri_lcd.c: 163: break;
  3329                           
  3330                           
  3331                           ;seri_lcd.c: 165: temp = (sutun - 1 + 0x94);
  3332  0379  0878               	movf	lcd_git@sutun,w
  3333  037A  3E93               	addlw	147
  3334  037B  2B7E               	goto	L6
  3335  037C                     l1641:	
  3336                           ;seri_lcd.c: 167: case 4:
  3337                           
  3338                           ;seri_lcd.c: 166: break;
  3339                           
  3340                           
  3341                           ;seri_lcd.c: 168: temp = (sutun - 1 + 0xd4);
  3342  037C  0878               	movf	lcd_git@sutun,w
  3343  037D  3ED3               	addlw	211
  3344  037E                     L6:	
  3345  037E  00F9               	movwf	??_lcd_git
  3346  037F  0879               	movf	??_lcd_git,w
  3347  0380  00FB               	movwf	lcd_git@temp
  3348                           
  3349                           ;seri_lcd.c: 170: }
  3350                           
  3351                           ;seri_lcd.c: 169: break;
  3352  0381  2B90               	goto	l1647
  3353  0382                     l1645:	
  3354  0382  087A               	movf	lcd_git@satir,w
  3355                           
  3356                           ; Switch size 1, requested type "space"
  3357                           ; Number of cases is 4, Range of values is 1 to 4
  3358                           ; switch strategies available:
  3359                           ; Name         Instructions Cycles
  3360                           ; simple_byte           13     7 (average)
  3361                           ; direct_byte           17     9 (fixed)
  3362                           ; jumptable            263     9 (fixed)
  3363                           ;	Chosen strategy is simple_byte
  3364  0383  3A01               	xorlw	1	; case 1
  3365  0384  1903               	skipnz
  3366  0385  2B73               	goto	l1635
  3367  0386  3A03               	xorlw	3	; case 2
  3368  0387  1903               	skipnz
  3369  0388  2B76               	goto	l1637
  3370  0389  3A01               	xorlw	1	; case 3
  3371  038A  1903               	skipnz
  3372  038B  2B79               	goto	l1639
  3373  038C  3A07               	xorlw	7	; case 4
  3374  038D  1903               	skipnz
  3375  038E  2B7C               	goto	l1641
  3376  038F  2B90               	goto	l1647
  3377  0390                     l1647:	
  3378                           
  3379                           ;seri_lcd.c: 171: lcd_komut(temp);
  3380  0390  087B               	movf	lcd_git@temp,w
  3381  0391  3183  2315  3183   	fcall	_lcd_komut
  3382                           
  3383                           ;seri_lcd.c: 172: _delay((unsigned long)((100)*(32000000/4000000.0)));
  3384  0394  30A0               	movlw	160
  3385  0395                     u1657:	
  3386  0395  3200               	nop2
  3387  0396  0B89               	decfsz	9,f
  3388  0397  2B95               	goto	u1657
  3389  0398  0008               	return
  3390  0399                     __end_of_lcd_git:	
  3391                           
  3392                           	psect	text11
  3393  0215                     __ptext11:	
  3394 ;; *************** function _lcd_baslat *****************
  3395 ;; Defined at:
  3396 ;;		line 116 in file "seri_lcd.c"
  3397 ;; Parameters:    Size  Location     Type
  3398 ;;		None
  3399 ;; Auto vars:     Size  Location     Type
  3400 ;;  i               1    9[COMMON] unsigned char 
  3401 ;; Return value:  Size  Location     Type
  3402 ;;                  1    wreg      void 
  3403 ;; Registers used:
  3404 ;;		wreg, status,2, status,0, pclath, cstack
  3405 ;; Tracked objects:
  3406 ;;		On entry : 0/0
  3407 ;;		On exit  : 0/0
  3408 ;;		Unchanged: 0/0
  3409 ;; Data sizes:     COMMON   BANK0   BANK1   BANK2   BANK3   BANK4
  3410 ;;      Params:         0       0       0       0       0       0
  3411 ;;      Locals:         1       0       0       0       0       0
  3412 ;;      Temps:          1       0       0       0       0       0
  3413 ;;      Totals:         2       0       0       0       0       0
  3414 ;;Total ram usage:        2 bytes
  3415 ;; Hardware stack levels used:    1
  3416 ;; Hardware stack levels required when called:    8
  3417 ;; This function calls:
  3418 ;;		_lcd_aydinlatma_ac
  3419 ;;		_lcd_komut
  3420 ;;		_lcd_sil
  3421 ;;		_pcf8574_yaz
  3422 ;;		_pcf8574_yaz_wEnable
  3423 ;; This function is called by:
  3424 ;;		_main
  3425 ;; This function uses a non-reentrant model
  3426 ;;
  3427                           
  3428                           
  3429                           ;psect for function _lcd_baslat
  3430  0215                     _lcd_baslat:	
  3431                           
  3432                           ;seri_lcd.c: 117: char i;
  3433                           ;seri_lcd.c: 119: _delay((unsigned long)((15)*(32000000/4000.0)));
  3434                           
  3435                           ;incstack = 0
  3436                           ; Regs used in _lcd_baslat: [wreg+status,2+status,0+pclath+cstack]
  3437  0215  309C               	movlw	156
  3438  0216  00F8               	movwf	??_lcd_baslat
  3439  0217  30D7               	movlw	215
  3440  0218                     u1667:	
  3441  0218  0B89               	decfsz	9,f
  3442  0219  2A18               	goto	u1667
  3443  021A  0BF8               	decfsz	??_lcd_baslat,f
  3444  021B  2A18               	goto	u1667
  3445  021C  0000               	nop
  3446                           
  3447                           ;seri_lcd.c: 121: pcf8574_yaz(0x00);
  3448  021D  3000               	movlw	0
  3449  021E  3184  2476  3182   	fcall	_pcf8574_yaz
  3450                           
  3451                           ;seri_lcd.c: 122: pcf_port.port=0x00;
  3452  0221  01FC               	clrf	_pcf_port
  3453                           
  3454                           ;seri_lcd.c: 124: for(i=0;i<3;i++)
  3455  0222  01F9               	clrf	lcd_baslat@i
  3456  0223  3003               	movlw	3
  3457  0224  0279               	subwf	lcd_baslat@i,w
  3458  0225  1803               	btfsc	3,0
  3459  0226  2A40               	goto	l1773
  3460  0227                     l1761:	
  3461                           
  3462                           ;seri_lcd.c: 125: {
  3463                           ;seri_lcd.c: 126: pcf_port.port=0x00;
  3464  0227  01FC               	clrf	_pcf_port
  3465                           
  3466                           ;seri_lcd.c: 127: pcf_port.port = 0x30 | (pcf_port.port & 0x0f);
  3467  0228  087C               	movf	_pcf_port,w
  3468  0229  390F               	andlw	15
  3469  022A  3830               	iorlw	48
  3470  022B  00F8               	movwf	??_lcd_baslat
  3471  022C  0878               	movf	??_lcd_baslat,w
  3472  022D  00FC               	movwf	_pcf_port
  3473                           
  3474                           ;seri_lcd.c: 128: pcf8574_yaz_wEnable();
  3475  022E  3183  23ED  3182   	fcall	_pcf8574_yaz_wEnable
  3476                           
  3477                           ;seri_lcd.c: 129: _delay((unsigned long)((5)*(32000000/4000.0)));
  3478  0231  3034               	movlw	52
  3479  0232  00F8               	movwf	??_lcd_baslat
  3480  0233  30F2               	movlw	242
  3481  0234                     u1677:	
  3482  0234  0B89               	decfsz	9,f
  3483  0235  2A34               	goto	u1677
  3484  0236  0BF8               	decfsz	??_lcd_baslat,f
  3485  0237  2A34               	goto	u1677
  3486  0238  3001               	movlw	1
  3487  0239  00F8               	movwf	??_lcd_baslat
  3488  023A  0878               	movf	??_lcd_baslat,w
  3489  023B  07F9               	addwf	lcd_baslat@i,f
  3490  023C  3003               	movlw	3
  3491  023D  0279               	subwf	lcd_baslat@i,w
  3492  023E  1C03               	skipc
  3493  023F  2A27               	goto	l1761
  3494  0240                     l1773:	
  3495                           
  3496                           ;seri_lcd.c: 130: }
  3497                           ;seri_lcd.c: 132: _delay((unsigned long)((150)*(32000000/4000000.0)));
  3498  0240  30F0               	movlw	240
  3499  0241                     u1687:	
  3500  0241  3200               	nop2
  3501  0242  0B89               	decfsz	9,f
  3502  0243  2A41               	goto	u1687
  3503                           
  3504                           ;seri_lcd.c: 134: pcf_port.port=0x00;
  3505  0244  01FC               	clrf	_pcf_port
  3506                           
  3507                           ;seri_lcd.c: 135: pcf_port.port = 0x20 | (pcf_port.port & 0x0f);
  3508  0245  087C               	movf	_pcf_port,w
  3509  0246  390F               	andlw	15
  3510  0247  3820               	iorlw	32
  3511  0248  00F8               	movwf	??_lcd_baslat
  3512  0249  0878               	movf	??_lcd_baslat,w
  3513  024A  00FC               	movwf	_pcf_port
  3514                           
  3515                           ;seri_lcd.c: 136: pcf8574_yaz_wEnable();
  3516  024B  3183  23ED  3182   	fcall	_pcf8574_yaz_wEnable
  3517                           
  3518                           ;seri_lcd.c: 137: _delay((unsigned long)((5)*(32000000/4000.0)));
  3519  024E  3034               	movlw	52
  3520  024F  00F8               	movwf	??_lcd_baslat
  3521  0250  30F2               	movlw	242
  3522  0251                     u1697:	
  3523  0251  0B89               	decfsz	9,f
  3524  0252  2A51               	goto	u1697
  3525  0253  0BF8               	decfsz	??_lcd_baslat,f
  3526  0254  2A51               	goto	u1697
  3527                           
  3528                           ;seri_lcd.c: 139: lcd_komut(0x28);
  3529  0255  3028               	movlw	40
  3530  0256  3183  2315  3182   	fcall	_lcd_komut
  3531                           
  3532                           ;seri_lcd.c: 140: _delay((unsigned long)((40)*(32000000/4000000.0)));
  3533  0259  306A               	movlw	106
  3534  025A                     u1707:	
  3535  025A  0B89               	decfsz	9,f
  3536  025B  2A5A               	goto	u1707
  3537  025C  3200               	nop2
  3538                           
  3539                           ;seri_lcd.c: 141: lcd_komut(0x0C);
  3540  025D  300C               	movlw	12
  3541  025E  3183  2315  3182   	fcall	_lcd_komut
  3542                           
  3543                           ;seri_lcd.c: 142: _delay((unsigned long)((40)*(32000000/4000000.0)));
  3544  0261  306A               	movlw	106
  3545  0262                     u1717:	
  3546  0262  0B89               	decfsz	9,f
  3547  0263  2A62               	goto	u1717
  3548  0264  3200               	nop2
  3549                           
  3550                           ;seri_lcd.c: 143: lcd_komut(0x06);
  3551  0265  3006               	movlw	6
  3552  0266  3183  2315  3182   	fcall	_lcd_komut
  3553                           
  3554                           ;seri_lcd.c: 144: _delay((unsigned long)((2)*(32000000/4000.0)));
  3555  0269  3015               	movlw	21
  3556  026A  00F8               	movwf	??_lcd_baslat
  3557  026B  30C6               	movlw	198
  3558  026C                     u1727:	
  3559  026C  0B89               	decfsz	9,f
  3560  026D  2A6C               	goto	u1727
  3561  026E  0BF8               	decfsz	??_lcd_baslat,f
  3562  026F  2A6C               	goto	u1727
  3563  0270  3200               	nop2
  3564                           
  3565                           ;seri_lcd.c: 146: lcd_sil();
  3566  0271  3184  24E8  3182   	fcall	_lcd_sil
  3567                           
  3568                           ;seri_lcd.c: 147: lcd_aydinlatma_ac();
  3569  0274  3184  24DE         	fcall	_lcd_aydinlatma_ac
  3570  0276  0008               	return
  3571  0277                     __end_of_lcd_baslat:	
  3572                           
  3573                           	psect	text12
  3574  04E8                     __ptext12:	
  3575 ;; *************** function _lcd_sil *****************
  3576 ;; Defined at:
  3577 ;;		line 269 in file "seri_lcd.c"
  3578 ;; Parameters:    Size  Location     Type
  3579 ;;		None
  3580 ;; Auto vars:     Size  Location     Type
  3581 ;;		None
  3582 ;; Return value:  Size  Location     Type
  3583 ;;                  1    wreg      void 
  3584 ;; Registers used:
  3585 ;;		wreg, status,2, status,0, pclath, cstack
  3586 ;; Tracked objects:
  3587 ;;		On entry : 0/0
  3588 ;;		On exit  : 0/0
  3589 ;;		Unchanged: 0/0
  3590 ;; Data sizes:     COMMON   BANK0   BANK1   BANK2   BANK3   BANK4
  3591 ;;      Params:         0       0       0       0       0       0
  3592 ;;      Locals:         0       0       0       0       0       0
  3593 ;;      Temps:          0       0       0       0       0       0
  3594 ;;      Totals:         0       0       0       0       0       0
  3595 ;;Total ram usage:        0 bytes
  3596 ;; Hardware stack levels used:    1
  3597 ;; Hardware stack levels required when called:    7
  3598 ;; This function calls:
  3599 ;;		_lcd_komut
  3600 ;; This function is called by:
  3601 ;;		_lcd_baslat
  3602 ;; This function uses a non-reentrant model
  3603 ;;
  3604                           
  3605                           
  3606                           ;psect for function _lcd_sil
  3607  04E8                     _lcd_sil:	
  3608                           
  3609                           ;seri_lcd.c: 270: lcd_komut(0x01);
  3610                           
  3611                           ;incstack = 0
  3612                           ; Regs used in _lcd_sil: [wreg+status,2+status,0+pclath+cstack]
  3613  04E8  3001               	movlw	1
  3614  04E9  3183  2315         	fcall	_lcd_komut
  3615  04EB  0008               	return
  3616  04EC                     __end_of_lcd_sil:	
  3617                           
  3618                           	psect	text13
  3619  0315                     __ptext13:	
  3620 ;; *************** function _lcd_komut *****************
  3621 ;; Defined at:
  3622 ;;		line 225 in file "seri_lcd.c"
  3623 ;; Parameters:    Size  Location     Type
  3624 ;;  komut           1    wreg     unsigned char 
  3625 ;; Auto vars:     Size  Location     Type
  3626 ;;  komut           1    7[COMMON] unsigned char 
  3627 ;; Return value:  Size  Location     Type
  3628 ;;                  1    wreg      void 
  3629 ;; Registers used:
  3630 ;;		wreg, status,2, status,0, pclath, cstack
  3631 ;; Tracked objects:
  3632 ;;		On entry : 0/0
  3633 ;;		On exit  : 0/0
  3634 ;;		Unchanged: 0/0
  3635 ;; Data sizes:     COMMON   BANK0   BANK1   BANK2   BANK3   BANK4
  3636 ;;      Params:         0       0       0       0       0       0
  3637 ;;      Locals:         1       0       0       0       0       0
  3638 ;;      Temps:          2       0       0       0       0       0
  3639 ;;      Totals:         3       0       0       0       0       0
  3640 ;;Total ram usage:        3 bytes
  3641 ;; Hardware stack levels used:    1
  3642 ;; Hardware stack levels required when called:    6
  3643 ;; This function calls:
  3644 ;;		_lcd_mesgulmu
  3645 ;;		_pcf8574_yaz_wEnable
  3646 ;; This function is called by:
  3647 ;;		_lcd_baslat
  3648 ;;		_lcd_git
  3649 ;;		_lcd_sil
  3650 ;;		_lcd_ozelkarakter
  3651 ;;		_lcd_satirbasi
  3652 ;;		_lcd_kursor_ac
  3653 ;;		_lcd_kursor_kapat
  3654 ;;		_lcd_display_ac
  3655 ;;		_lcd_display_kapat
  3656 ;;		_lcd_blink_ac
  3657 ;;		_lcd_blink_kapat
  3658 ;;		_lcd_sola_kaydir
  3659 ;;		_lcd_saga_kaydir
  3660 ;;		_lcd_satir1
  3661 ;;		_lcd_satir2
  3662 ;;		_lcd_satir3
  3663 ;;		_lcd_satir4
  3664 ;; This function uses a non-reentrant model
  3665 ;;
  3666                           
  3667                           
  3668                           ;psect for function _lcd_komut
  3669  0315                     _lcd_komut:	
  3670                           
  3671                           ;incstack = 0
  3672                           ; Regs used in _lcd_komut: [wreg+status,2+status,0+pclath+cstack]
  3673                           ;lcd_komut@komut stored from wreg
  3674  0315  00F7               	movwf	lcd_komut@komut
  3675                           
  3676                           ;seri_lcd.c: 226: lcd_mesgulmu();
  3677  0316  3184  24D9  3183   	fcall	_lcd_mesgulmu
  3678                           
  3679                           ;seri_lcd.c: 227: pcf_port.lcd.RS = 0;
  3680  0319  107C               	bcf	_pcf_port,0
  3681                           
  3682                           ;seri_lcd.c: 229: pcf_port.port = (pcf_port.port & 0x0f) | (komut & 0xf0);
  3683  031A  30F0               	movlw	240
  3684  031B  0577               	andwf	lcd_komut@komut,w
  3685  031C  00F5               	movwf	??_lcd_komut
  3686  031D  087C               	movf	_pcf_port,w
  3687  031E  390F               	andlw	15
  3688  031F  0475               	iorwf	??_lcd_komut,w
  3689  0320  00F6               	movwf	??_lcd_komut+1
  3690  0321  0876               	movf	??_lcd_komut+1,w
  3691  0322  00FC               	movwf	_pcf_port
  3692                           
  3693                           ;seri_lcd.c: 230: pcf8574_yaz_wEnable();
  3694  0323  3183  23ED  3183   	fcall	_pcf8574_yaz_wEnable
  3695                           
  3696                           ;seri_lcd.c: 231: _delay((unsigned long)((5)*(32000000/4000.0)));
  3697  0326  3034               	movlw	52
  3698  0327  00F5               	movwf	??_lcd_komut
  3699  0328  30F2               	movlw	242
  3700  0329                     u1737:	
  3701  0329  0B89               	decfsz	9,f
  3702  032A  2B29               	goto	u1737
  3703  032B  0BF5               	decfsz	??_lcd_komut,f
  3704  032C  2B29               	goto	u1737
  3705                           
  3706                           ;seri_lcd.c: 233: pcf_port.port = (pcf_port.port & 0x0f) | (komut << 4);
  3707  032D  0877               	movf	lcd_komut@komut,w
  3708  032E  00F5               	movwf	??_lcd_komut
  3709  032F  3004               	movlw	4
  3710  0330                     u705:	
  3711  0330  35F5               	lslf	??_lcd_komut,f
  3712  0331  0B89               	decfsz	9,f
  3713  0332  2B30               	goto	u705
  3714  0333  087C               	movf	_pcf_port,w
  3715  0334  390F               	andlw	15
  3716  0335  0475               	iorwf	??_lcd_komut,w
  3717  0336  00F6               	movwf	??_lcd_komut+1
  3718  0337  0876               	movf	??_lcd_komut+1,w
  3719  0338  00FC               	movwf	_pcf_port
  3720                           
  3721                           ;seri_lcd.c: 234: pcf8574_yaz_wEnable();
  3722  0339  3183  23ED  3183   	fcall	_pcf8574_yaz_wEnable
  3723                           
  3724                           ;seri_lcd.c: 235: _delay((unsigned long)((5)*(32000000/4000.0)));
  3725  033C  3034               	movlw	52
  3726  033D  00F5               	movwf	??_lcd_komut
  3727  033E  30F2               	movlw	242
  3728  033F                     u1747:	
  3729  033F  0B89               	decfsz	9,f
  3730  0340  2B3F               	goto	u1747
  3731  0341  0BF5               	decfsz	??_lcd_komut,f
  3732  0342  2B3F               	goto	u1747
  3733  0343  0008               	return
  3734  0344                     __end_of_lcd_komut:	
  3735                           
  3736                           	psect	text14
  3737  03ED                     __ptext14:	
  3738 ;; *************** function _pcf8574_yaz_wEnable *****************
  3739 ;; Defined at:
  3740 ;;		line 61 in file "seri_lcd.c"
  3741 ;; Parameters:    Size  Location     Type
  3742 ;;		None
  3743 ;; Auto vars:     Size  Location     Type
  3744 ;;		None
  3745 ;; Return value:  Size  Location     Type
  3746 ;;                  1    wreg      void 
  3747 ;; Registers used:
  3748 ;;		wreg, status,2, status,0, pclath, cstack
  3749 ;; Tracked objects:
  3750 ;;		On entry : 0/0
  3751 ;;		On exit  : 0/0
  3752 ;;		Unchanged: 0/0
  3753 ;; Data sizes:     COMMON   BANK0   BANK1   BANK2   BANK3   BANK4
  3754 ;;      Params:         0       0       0       0       0       0
  3755 ;;      Locals:         0       0       0       0       0       0
  3756 ;;      Temps:          0       0       0       0       0       0
  3757 ;;      Totals:         0       0       0       0       0       0
  3758 ;;Total ram usage:        0 bytes
  3759 ;; Hardware stack levels used:    1
  3760 ;; Hardware stack levels required when called:    5
  3761 ;; This function calls:
  3762 ;;		_softi2c_baslat
  3763 ;;		_softi2c_durdur
  3764 ;;		_softi2c_yaz
  3765 ;; This function is called by:
  3766 ;;		_lcd_baslat
  3767 ;;		_lcd_harfyaz
  3768 ;;		_lcd_komut
  3769 ;; This function uses a non-reentrant model
  3770 ;;
  3771                           
  3772                           
  3773                           ;psect for function _pcf8574_yaz_wEnable
  3774  03ED                     _pcf8574_yaz_wEnable:	
  3775                           
  3776                           ;seri_lcd.c: 65: softi2c_baslat();
  3777                           
  3778                           ;incstack = 0
  3779                           ; Regs used in _pcf8574_yaz_wEnable: [wreg+status,2+status,0+pclath+cstack]
  3780  03ED  3184  2433  3183   	fcall	_softi2c_baslat
  3781                           
  3782                           ;seri_lcd.c: 66: softi2c_yaz(0x3F <<1);
  3783  03F0  307E               	movlw	126
  3784  03F1  3182  2277  3183   	fcall	_softi2c_yaz
  3785                           
  3786                           ;seri_lcd.c: 67: softi2c_yaz(pcf_port.port);
  3787  03F4  087C               	movf	_pcf_port,w
  3788  03F5  3182  2277  3183   	fcall	_softi2c_yaz
  3789                           
  3790                           ;seri_lcd.c: 68: pcf_port.lcd.E=1;
  3791  03F8  157C               	bsf	_pcf_port,2
  3792                           
  3793                           ;seri_lcd.c: 69: softi2c_yaz(pcf_port.port);
  3794  03F9  087C               	movf	_pcf_port,w
  3795  03FA  3182  2277  3183   	fcall	_softi2c_yaz
  3796                           
  3797                           ;seri_lcd.c: 70: pcf_port.lcd.E=0;
  3798  03FD  117C               	bcf	_pcf_port,2
  3799                           
  3800                           ;seri_lcd.c: 71: softi2c_yaz(pcf_port.port);
  3801  03FE  087C               	movf	_pcf_port,w
  3802  03FF  3182  2277  3183   	fcall	_softi2c_yaz
  3803                           
  3804                           ;seri_lcd.c: 72: softi2c_durdur();
  3805  0402  3184  2446         	fcall	_softi2c_durdur
  3806  0404  0008               	return
  3807  0405                     __end_of_pcf8574_yaz_wEnable:	
  3808                           
  3809                           	psect	text15
  3810  04D9                     __ptext15:	
  3811 ;; *************** function _lcd_mesgulmu *****************
  3812 ;; Defined at:
  3813 ;;		line 200 in file "seri_lcd.c"
  3814 ;; Parameters:    Size  Location     Type
  3815 ;;		None
  3816 ;; Auto vars:     Size  Location     Type
  3817 ;;		None
  3818 ;; Return value:  Size  Location     Type
  3819 ;;                  1    wreg      void 
  3820 ;; Registers used:
  3821 ;;		wreg
  3822 ;; Tracked objects:
  3823 ;;		On entry : 0/0
  3824 ;;		On exit  : 0/0
  3825 ;;		Unchanged: 0/0
  3826 ;; Data sizes:     COMMON   BANK0   BANK1   BANK2   BANK3   BANK4
  3827 ;;      Params:         0       0       0       0       0       0
  3828 ;;      Locals:         0       0       0       0       0       0
  3829 ;;      Temps:          0       0       0       0       0       0
  3830 ;;      Totals:         0       0       0       0       0       0
  3831 ;;Total ram usage:        0 bytes
  3832 ;; Hardware stack levels used:    1
  3833 ;; Hardware stack levels required when called:    4
  3834 ;; This function calls:
  3835 ;;		Nothing
  3836 ;; This function is called by:
  3837 ;;		_lcd_harfyaz
  3838 ;;		_lcd_komut
  3839 ;; This function uses a non-reentrant model
  3840 ;;
  3841                           
  3842                           
  3843                           ;psect for function _lcd_mesgulmu
  3844  04D9                     _lcd_mesgulmu:	
  3845                           
  3846                           ;seri_lcd.c: 201: _delay((unsigned long)((100)*(32000000/4000000.0)));
  3847                           
  3848                           ;incstack = 0
  3849                           ; Regs used in _lcd_mesgulmu: [wreg]
  3850  04D9  30A0               	movlw	160
  3851  04DA                     u1757:	
  3852  04DA  3200               	nop2
  3853  04DB  0B89               	decfsz	9,f
  3854  04DC  2CDA               	goto	u1757
  3855  04DD  0008               	return
  3856  04DE                     __end_of_lcd_mesgulmu:	
  3857                           
  3858                           	psect	text16
  3859  04DE                     __ptext16:	
  3860 ;; *************** function _lcd_aydinlatma_ac *****************
  3861 ;; Defined at:
  3862 ;;		line 384 in file "seri_lcd.c"
  3863 ;; Parameters:    Size  Location     Type
  3864 ;;		None
  3865 ;; Auto vars:     Size  Location     Type
  3866 ;;		None
  3867 ;; Return value:  Size  Location     Type
  3868 ;;                  1    wreg      void 
  3869 ;; Registers used:
  3870 ;;		wreg, status,2, status,0, pclath, cstack
  3871 ;; Tracked objects:
  3872 ;;		On entry : 0/0
  3873 ;;		On exit  : 0/0
  3874 ;;		Unchanged: 0/0
  3875 ;; Data sizes:     COMMON   BANK0   BANK1   BANK2   BANK3   BANK4
  3876 ;;      Params:         0       0       0       0       0       0
  3877 ;;      Locals:         0       0       0       0       0       0
  3878 ;;      Temps:          0       0       0       0       0       0
  3879 ;;      Totals:         0       0       0       0       0       0
  3880 ;;Total ram usage:        0 bytes
  3881 ;; Hardware stack levels used:    1
  3882 ;; Hardware stack levels required when called:    6
  3883 ;; This function calls:
  3884 ;;		_pcf8574_yaz
  3885 ;; This function is called by:
  3886 ;;		_lcd_baslat
  3887 ;; This function uses a non-reentrant model
  3888 ;;
  3889                           
  3890                           
  3891                           ;psect for function _lcd_aydinlatma_ac
  3892  04DE                     _lcd_aydinlatma_ac:	
  3893                           
  3894                           ;seri_lcd.c: 386: pcf_port.lcd.LED=1;
  3895                           
  3896                           ;incstack = 0
  3897                           ; Regs used in _lcd_aydinlatma_ac: [wreg+status,2+status,0+pclath+cstack]
  3898  04DE  15FC               	bsf	_pcf_port,3
  3899                           
  3900                           ;seri_lcd.c: 387: pcf8574_yaz(pcf_port.port);
  3901  04DF  087C               	movf	_pcf_port,w
  3902  04E0  3184  2476         	fcall	_pcf8574_yaz
  3903  04E2  0008               	return
  3904  04E3                     __end_of_lcd_aydinlatma_ac:	
  3905                           
  3906                           	psect	text17
  3907  0476                     __ptext17:	
  3908 ;; *************** function _pcf8574_yaz *****************
  3909 ;; Defined at:
  3910 ;;		line 26 in file "pcf8574.c"
  3911 ;; Parameters:    Size  Location     Type
  3912 ;;  veri            1    wreg     unsigned char 
  3913 ;; Auto vars:     Size  Location     Type
  3914 ;;  veri            1    5[COMMON] unsigned char 
  3915 ;; Return value:  Size  Location     Type
  3916 ;;                  1    wreg      void 
  3917 ;; Registers used:
  3918 ;;		wreg, status,2, status,0, pclath, cstack
  3919 ;; Tracked objects:
  3920 ;;		On entry : 0/0
  3921 ;;		On exit  : 0/0
  3922 ;;		Unchanged: 0/0
  3923 ;; Data sizes:     COMMON   BANK0   BANK1   BANK2   BANK3   BANK4
  3924 ;;      Params:         0       0       0       0       0       0
  3925 ;;      Locals:         1       0       0       0       0       0
  3926 ;;      Temps:          0       0       0       0       0       0
  3927 ;;      Totals:         1       0       0       0       0       0
  3928 ;;Total ram usage:        1 bytes
  3929 ;; Hardware stack levels used:    1
  3930 ;; Hardware stack levels required when called:    5
  3931 ;; This function calls:
  3932 ;;		_softi2c_baslat
  3933 ;;		_softi2c_durdur
  3934 ;;		_softi2c_yaz
  3935 ;; This function is called by:
  3936 ;;		_lcd_baslat
  3937 ;;		_lcd_aydinlatma_ac
  3938 ;;		_lcd_aydinlatma_kapat
  3939 ;; This function uses a non-reentrant model
  3940 ;;
  3941                           
  3942                           
  3943                           ;psect for function _pcf8574_yaz
  3944  0476                     _pcf8574_yaz:	
  3945                           
  3946                           ;incstack = 0
  3947                           ; Regs used in _pcf8574_yaz: [wreg+status,2+status,0+pclath+cstack]
  3948                           ;pcf8574_yaz@veri stored from wreg
  3949  0476  00F5               	movwf	pcf8574_yaz@veri
  3950                           
  3951                           ;pcf8574.c: 30: softi2c_baslat();
  3952  0477  3184  2433  3184   	fcall	_softi2c_baslat
  3953                           
  3954                           ;pcf8574.c: 31: softi2c_yaz(0x3F <<1);
  3955  047A  307E               	movlw	126
  3956  047B  3182  2277  3184   	fcall	_softi2c_yaz
  3957                           
  3958                           ;pcf8574.c: 32: softi2c_yaz(veri);
  3959  047E  0875               	movf	pcf8574_yaz@veri,w
  3960  047F  3182  2277  3184   	fcall	_softi2c_yaz
  3961                           
  3962                           ;pcf8574.c: 33: softi2c_durdur();
  3963  0482  3184  2446         	fcall	_softi2c_durdur
  3964  0484  0008               	return
  3965  0485                     __end_of_pcf8574_yaz:	
  3966                           
  3967                           	psect	text18
  3968  0277                     __ptext18:	
  3969 ;; *************** function _softi2c_yaz *****************
  3970 ;; Defined at:
  3971 ;;		line 60 in file "softi2c.c"
  3972 ;; Parameters:    Size  Location     Type
  3973 ;;  veri            1    wreg     unsigned char 
  3974 ;; Auto vars:     Size  Location     Type
  3975 ;;  veri            1    3[COMMON] unsigned char 
  3976 ;;  i               1    4[COMMON] unsigned char 
  3977 ;;  temp            1    2[COMMON] unsigned char 
  3978 ;; Return value:  Size  Location     Type
  3979 ;;                  1    wreg      unsigned char 
  3980 ;; Registers used:
  3981 ;;		wreg, status,2, status,0
  3982 ;; Tracked objects:
  3983 ;;		On entry : 0/0
  3984 ;;		On exit  : 0/0
  3985 ;;		Unchanged: 0/0
  3986 ;; Data sizes:     COMMON   BANK0   BANK1   BANK2   BANK3   BANK4
  3987 ;;      Params:         0       0       0       0       0       0
  3988 ;;      Locals:         3       0       0       0       0       0
  3989 ;;      Temps:          1       0       0       0       0       0
  3990 ;;      Totals:         4       0       0       0       0       0
  3991 ;;Total ram usage:        4 bytes
  3992 ;; Hardware stack levels used:    1
  3993 ;; Hardware stack levels required when called:    4
  3994 ;; This function calls:
  3995 ;;		Nothing
  3996 ;; This function is called by:
  3997 ;;		_pcf8574_yaz_wEnable
  3998 ;;		_pcf8574_yaz
  3999 ;; This function uses a non-reentrant model
  4000 ;;
  4001                           
  4002                           
  4003                           ;psect for function _softi2c_yaz
  4004  0277                     _softi2c_yaz:	
  4005                           
  4006                           ;incstack = 0
  4007                           ; Regs used in _softi2c_yaz: [wreg+status,2+status,0]
  4008                           ;softi2c_yaz@veri stored from wreg
  4009  0277  00F3               	movwf	softi2c_yaz@veri
  4010                           
  4011                           ;softi2c.c: 62: char i,temp;
  4012                           ;softi2c.c: 63: LATB4=0;
  4013  0278  0022               	movlb	2	; select bank2
  4014  0279  120D               	bcf	13,4	;volatile
  4015                           
  4016                           ;softi2c.c: 64: for(i=8;i>0;i--)
  4017  027A  3008               	movlw	8
  4018  027B  00F1               	movwf	??_softi2c_yaz
  4019  027C  0871               	movf	??_softi2c_yaz,w
  4020  027D  00F4               	movwf	softi2c_yaz@i
  4021  027E  0874               	movf	softi2c_yaz@i,w
  4022  027F  1903               	btfsc	3,2
  4023  0280  2AA0               	goto	l338
  4024  0281                     l1505:	
  4025                           
  4026                           ;softi2c.c: 65: {
  4027                           ;softi2c.c: 66: veri=veri<<1;
  4028  0281  3573               	lslf	softi2c_yaz@veri,w
  4029  0282  00F1               	movwf	??_softi2c_yaz
  4030  0283  0871               	movf	??_softi2c_yaz,w
  4031  0284  00F3               	movwf	softi2c_yaz@veri
  4032                           
  4033                           ;softi2c.c: 67: if(CARRY==0)
  4034  0285  0020               	movlb	0	; select bank0
  4035  0286  1803               	btfsc	3,0	;volatile
  4036  0287  2A8D               	goto	l339
  4037                           
  4038                           ;softi2c.c: 68: {
  4039                           ;softi2c.c: 69: TRISB5=0;
  4040  0288  0021               	movlb	1	; select bank1
  4041  0289  128D               	bcf	13,5	;volatile
  4042                           
  4043                           ;softi2c.c: 70: RB5=0;
  4044  028A  0020               	movlb	0	; select bank0
  4045  028B  128D               	bcf	13,5	;volatile
  4046                           
  4047                           ;softi2c.c: 71: }
  4048  028C  2A91               	goto	l340
  4049  028D                     l339:	
  4050                           
  4051                           ;softi2c.c: 72: else
  4052                           ;softi2c.c: 73: {
  4053                           ;softi2c.c: 74: TRISB5=1;
  4054  028D  0021               	movlb	1	; select bank1
  4055  028E  168D               	bsf	13,5	;volatile
  4056                           
  4057                           ;softi2c.c: 75: RB5=1;
  4058  028F  0020               	movlb	0	; select bank0
  4059  0290  168D               	bsf	13,5	;volatile
  4060  0291                     l340:	
  4061                           
  4062                           ;softi2c.c: 76: }
  4063                           ;softi2c.c: 77: LATB4=1;
  4064  0291  0022               	movlb	2	; select bank2
  4065  0292  160D               	bsf	13,4	;volatile
  4066                           
  4067                           ;softi2c.c: 78: _delay((unsigned long)((4)*(32000000/4000000.0)));
  4068  0293  300A               	movlw	10
  4069  0294                     u1767:	
  4070  0294  0B89               	decfsz	9,f
  4071  0295  2A94               	goto	u1767
  4072  0296  3200               	nop2
  4073                           
  4074                           ;softi2c.c: 79: LATB4=0;
  4075  0297  0022               	movlb	2	; select bank2
  4076  0298  120D               	bcf	13,4	;volatile
  4077                           
  4078                           ;softi2c.c: 80: TRISB5=1;
  4079  0299  0021               	movlb	1	; select bank1
  4080  029A  168D               	bsf	13,5	;volatile
  4081  029B  3001               	movlw	1
  4082  029C  02F4               	subwf	softi2c_yaz@i,f
  4083  029D  0874               	movf	softi2c_yaz@i,w
  4084  029E  1D03               	btfss	3,2
  4085  029F  2A81               	goto	l1505
  4086  02A0                     l338:	
  4087                           
  4088                           ;softi2c.c: 81: }
  4089                           ;softi2c.c: 83: LATB4=0;
  4090  02A0  0022               	movlb	2	; select bank2
  4091  02A1  120D               	bcf	13,4	;volatile
  4092                           
  4093                           ;softi2c.c: 84: TRISB5=1;
  4094  02A2  0021               	movlb	1	; select bank1
  4095  02A3  168D               	bsf	13,5	;volatile
  4096                           
  4097                           ;softi2c.c: 85: _delay((unsigned long)((4)*(32000000/4000000.0)));
  4098  02A4  300A               	movlw	10
  4099  02A5                     u1777:	
  4100  02A5  0B89               	decfsz	9,f
  4101  02A6  2AA5               	goto	u1777
  4102  02A7  3200               	nop2
  4103                           
  4104                           ;softi2c.c: 86: LATB4=1;
  4105  02A8  0022               	movlb	2	; select bank2
  4106  02A9  160D               	bsf	13,4	;volatile
  4107                           
  4108                           ;softi2c.c: 87: temp=RB5;
  4109  02AA  3000               	movlw	0
  4110  02AB  0020               	movlb	0	; select bank0
  4111  02AC  1A8D               	btfsc	13,5	;volatile
  4112  02AD  3001               	movlw	1
  4113  02AE  00F2               	movwf	softi2c_yaz@temp
  4114                           
  4115                           ;softi2c.c: 88: LATB4=0;
  4116  02AF  0022               	movlb	2	; select bank2
  4117  02B0  120D               	bcf	13,4	;volatile
  4118  02B1  0008               	return
  4119  02B2                     __end_of_softi2c_yaz:	
  4120                           ;softi2c.c: 90: return temp;
  4121                           ;	Return value of _softi2c_yaz is never used
  4122                           
  4123                           
  4124                           	psect	text19
  4125  0446                     __ptext19:	
  4126 ;; *************** function _softi2c_durdur *****************
  4127 ;; Defined at:
  4128 ;;		line 37 in file "softi2c.c"
  4129 ;; Parameters:    Size  Location     Type
  4130 ;;		None
  4131 ;; Auto vars:     Size  Location     Type
  4132 ;;		None
  4133 ;; Return value:  Size  Location     Type
  4134 ;;                  1    wreg      void 
  4135 ;; Registers used:
  4136 ;;		wreg
  4137 ;; Tracked objects:
  4138 ;;		On entry : 0/0
  4139 ;;		On exit  : 0/0
  4140 ;;		Unchanged: 0/0
  4141 ;; Data sizes:     COMMON   BANK0   BANK1   BANK2   BANK3   BANK4
  4142 ;;      Params:         0       0       0       0       0       0
  4143 ;;      Locals:         0       0       0       0       0       0
  4144 ;;      Temps:          0       0       0       0       0       0
  4145 ;;      Totals:         0       0       0       0       0       0
  4146 ;;Total ram usage:        0 bytes
  4147 ;; Hardware stack levels used:    1
  4148 ;; Hardware stack levels required when called:    4
  4149 ;; This function calls:
  4150 ;;		Nothing
  4151 ;; This function is called by:
  4152 ;;		_pcf8574_yaz_wEnable
  4153 ;;		_pcf8574_yaz
  4154 ;; This function uses a non-reentrant model
  4155 ;;
  4156                           
  4157                           
  4158                           ;psect for function _softi2c_durdur
  4159  0446                     _softi2c_durdur:	
  4160                           
  4161                           ;softi2c.c: 39: TRISB5=0;
  4162                           
  4163                           ;incstack = 0
  4164                           ; Regs used in _softi2c_durdur: [wreg]
  4165  0446  0021               	movlb	1	; select bank1
  4166  0447  128D               	bcf	13,5	;volatile
  4167                           
  4168                           ;softi2c.c: 40: RB5=0;
  4169  0448  0020               	movlb	0	; select bank0
  4170  0449  128D               	bcf	13,5	;volatile
  4171                           
  4172                           ;softi2c.c: 41: LATB4=1;
  4173  044A  0022               	movlb	2	; select bank2
  4174  044B  160D               	bsf	13,4	;volatile
  4175                           
  4176                           ;softi2c.c: 42: _delay((unsigned long)((4)*(32000000/4000000.0)));
  4177  044C  300A               	movlw	10
  4178  044D                     u1787:	
  4179  044D  0B89               	decfsz	9,f
  4180  044E  2C4D               	goto	u1787
  4181  044F  3200               	nop2
  4182                           
  4183                           ;softi2c.c: 43: TRISB5=1;
  4184  0450  0021               	movlb	1	; select bank1
  4185  0451  168D               	bsf	13,5	;volatile
  4186                           
  4187                           ;softi2c.c: 44: _delay((unsigned long)((4)*(32000000/4000000.0)));
  4188  0452  300A               	movlw	10
  4189  0453                     u1797:	
  4190  0453  0B89               	decfsz	9,f
  4191  0454  2C53               	goto	u1797
  4192  0455  3200               	nop2
  4193  0456  0008               	return
  4194  0457                     __end_of_softi2c_durdur:	
  4195                           
  4196                           	psect	text20
  4197  0433                     __ptext20:	
  4198 ;; *************** function _softi2c_baslat *****************
  4199 ;; Defined at:
  4200 ;;		line 25 in file "softi2c.c"
  4201 ;; Parameters:    Size  Location     Type
  4202 ;;		None
  4203 ;; Auto vars:     Size  Location     Type
  4204 ;;		None
  4205 ;; Return value:  Size  Location     Type
  4206 ;;                  1    wreg      void 
  4207 ;; Registers used:
  4208 ;;		wreg
  4209 ;; Tracked objects:
  4210 ;;		On entry : 0/0
  4211 ;;		On exit  : 0/0
  4212 ;;		Unchanged: 0/0
  4213 ;; Data sizes:     COMMON   BANK0   BANK1   BANK2   BANK3   BANK4
  4214 ;;      Params:         0       0       0       0       0       0
  4215 ;;      Locals:         0       0       0       0       0       0
  4216 ;;      Temps:          0       0       0       0       0       0
  4217 ;;      Totals:         0       0       0       0       0       0
  4218 ;;Total ram usage:        0 bytes
  4219 ;; Hardware stack levels used:    1
  4220 ;; Hardware stack levels required when called:    4
  4221 ;; This function calls:
  4222 ;;		Nothing
  4223 ;; This function is called by:
  4224 ;;		_pcf8574_yaz_wEnable
  4225 ;;		_pcf8574_yaz
  4226 ;; This function uses a non-reentrant model
  4227 ;;
  4228                           
  4229                           
  4230                           ;psect for function _softi2c_baslat
  4231  0433                     _softi2c_baslat:	
  4232                           
  4233                           ;softi2c.c: 27: LATB4=1;
  4234                           
  4235                           ;incstack = 0
  4236                           ; Regs used in _softi2c_baslat: [wreg]
  4237  0433  0022               	movlb	2	; select bank2
  4238  0434  160D               	bsf	13,4	;volatile
  4239                           
  4240                           ;softi2c.c: 28: _delay((unsigned long)((4)*(32000000/4000000.0)));
  4241  0435  300A               	movlw	10
  4242  0436                     u1807:	
  4243  0436  0B89               	decfsz	9,f
  4244  0437  2C36               	goto	u1807
  4245  0438  3200               	nop2
  4246                           
  4247                           ;softi2c.c: 29: TRISB5=0;
  4248  0439  0021               	movlb	1	; select bank1
  4249  043A  128D               	bcf	13,5	;volatile
  4250                           
  4251                           ;softi2c.c: 30: RB5=0;
  4252  043B  0020               	movlb	0	; select bank0
  4253  043C  128D               	bcf	13,5	;volatile
  4254                           
  4255                           ;softi2c.c: 31: _delay((unsigned long)((4)*(32000000/4000000.0)));
  4256  043D  300A               	movlw	10
  4257  043E                     u1817:	
  4258  043E  0B89               	decfsz	9,f
  4259  043F  2C3E               	goto	u1817
  4260  0440  3200               	nop2
  4261                           
  4262                           ;softi2c.c: 32: LATB4=0;
  4263  0441  0022               	movlb	2	; select bank2
  4264  0442  120D               	bcf	13,4	;volatile
  4265                           
  4266                           ;softi2c.c: 33: TRISB5=1;
  4267  0443  0021               	movlb	1	; select bank1
  4268  0444  168D               	bsf	13,5	;volatile
  4269  0445  0008               	return
  4270  0446                     __end_of_softi2c_baslat:	
  4271                           
  4272                           	psect	text21
  4273  0493                     __ptext21:	
  4274 ;; *************** function _SYSTEM_Initialize *****************
  4275 ;; Defined at:
  4276 ;;		line 69 in file "mcc_generated_files/mcc.c"
  4277 ;; Parameters:    Size  Location     Type
  4278 ;;		None
  4279 ;; Auto vars:     Size  Location     Type
  4280 ;;		None
  4281 ;; Return value:  Size  Location     Type
  4282 ;;                  1    wreg      void 
  4283 ;; Registers used:
  4284 ;;		wreg, status,2, status,0, pclath, cstack
  4285 ;; Tracked objects:
  4286 ;;		On entry : 0/0
  4287 ;;		On exit  : 0/0
  4288 ;;		Unchanged: 0/0
  4289 ;; Data sizes:     COMMON   BANK0   BANK1   BANK2   BANK3   BANK4
  4290 ;;      Params:         0       0       0       0       0       0
  4291 ;;      Locals:         0       0       0       0       0       0
  4292 ;;      Temps:          0       0       0       0       0       0
  4293 ;;      Totals:         0       0       0       0       0       0
  4294 ;;Total ram usage:        0 bytes
  4295 ;; Hardware stack levels used:    1
  4296 ;; Hardware stack levels required when called:    6
  4297 ;; This function calls:
  4298 ;;		_OSCILLATOR_Initialize
  4299 ;;		_PIN_MANAGER_Initialize
  4300 ;;		_TMR1_Initialize
  4301 ;;		_WDT_Initialize
  4302 ;; This function is called by:
  4303 ;;		_main
  4304 ;; This function uses a non-reentrant model
  4305 ;;
  4306                           
  4307                           
  4308                           ;psect for function _SYSTEM_Initialize
  4309  0493                     _SYSTEM_Initialize:	
  4310                           
  4311                           ;mcc.c: 72: PIN_MANAGER_Initialize();
  4312                           
  4313                           ;incstack = 0
  4314                           ; Regs used in _SYSTEM_Initialize: [wreg+status,2+status,0+pclath+cstack]
  4315  0493  3184  2405  3184   	fcall	_PIN_MANAGER_Initialize
  4316                           
  4317                           ;mcc.c: 73: OSCILLATOR_Initialize();
  4318  0496  3184  24E3  3184   	fcall	_OSCILLATOR_Initialize
  4319                           
  4320                           ;mcc.c: 74: WDT_Initialize();
  4321  0499  3184  24EC  3184   	fcall	_WDT_Initialize
  4322                           
  4323                           ;mcc.c: 75: TMR1_Initialize();
  4324  049C  3183  23D4         	fcall	_TMR1_Initialize
  4325  049E  0008               	return
  4326  049F                     __end_of_SYSTEM_Initialize:	
  4327                           
  4328                           	psect	text22
  4329  04EC                     __ptext22:	
  4330 ;; *************** function _WDT_Initialize *****************
  4331 ;; Defined at:
  4332 ;;		line 86 in file "mcc_generated_files/mcc.c"
  4333 ;; Parameters:    Size  Location     Type
  4334 ;;		None
  4335 ;; Auto vars:     Size  Location     Type
  4336 ;;		None
  4337 ;; Return value:  Size  Location     Type
  4338 ;;                  1    wreg      void 
  4339 ;; Registers used:
  4340 ;;		wreg
  4341 ;; Tracked objects:
  4342 ;;		On entry : 0/0
  4343 ;;		On exit  : 0/0
  4344 ;;		Unchanged: 0/0
  4345 ;; Data sizes:     COMMON   BANK0   BANK1   BANK2   BANK3   BANK4
  4346 ;;      Params:         0       0       0       0       0       0
  4347 ;;      Locals:         0       0       0       0       0       0
  4348 ;;      Temps:          0       0       0       0       0       0
  4349 ;;      Totals:         0       0       0       0       0       0
  4350 ;;Total ram usage:        0 bytes
  4351 ;; Hardware stack levels used:    1
  4352 ;; Hardware stack levels required when called:    4
  4353 ;; This function calls:
  4354 ;;		Nothing
  4355 ;; This function is called by:
  4356 ;;		_SYSTEM_Initialize
  4357 ;; This function uses a non-reentrant model
  4358 ;;
  4359                           
  4360                           
  4361                           ;psect for function _WDT_Initialize
  4362  04EC                     _WDT_Initialize:	
  4363                           
  4364                           ;mcc.c: 89: WDTCON = 0x16;
  4365                           
  4366                           ;incstack = 0
  4367                           ; Regs used in _WDT_Initialize: [wreg]
  4368  04EC  3016               	movlw	22
  4369  04ED  0021               	movlb	1	; select bank1
  4370  04EE  0097               	movwf	23	;volatile
  4371  04EF  0008               	return
  4372  04F0                     __end_of_WDT_Initialize:	
  4373                           
  4374                           	psect	text23
  4375  03D4                     __ptext23:	
  4376 ;; *************** function _TMR1_Initialize *****************
  4377 ;; Defined at:
  4378 ;;		line 63 in file "mcc_generated_files/tmr1.c"
  4379 ;; Parameters:    Size  Location     Type
  4380 ;;		None
  4381 ;; Auto vars:     Size  Location     Type
  4382 ;;		None
  4383 ;; Return value:  Size  Location     Type
  4384 ;;                  1    wreg      void 
  4385 ;; Registers used:
  4386 ;;		wreg, status,2, status,0, pclath, cstack
  4387 ;; Tracked objects:
  4388 ;;		On entry : 0/0
  4389 ;;		On exit  : 0/0
  4390 ;;		Unchanged: 0/0
  4391 ;; Data sizes:     COMMON   BANK0   BANK1   BANK2   BANK3   BANK4
  4392 ;;      Params:         0       0       0       0       0       0
  4393 ;;      Locals:         0       0       0       0       0       0
  4394 ;;      Temps:          0       0       0       0       0       0
  4395 ;;      Totals:         0       0       0       0       0       0
  4396 ;;Total ram usage:        0 bytes
  4397 ;; Hardware stack levels used:    1
  4398 ;; Hardware stack levels required when called:    5
  4399 ;; This function calls:
  4400 ;;		_TMR1_SetInterruptHandler
  4401 ;;		_TMR1_StartTimer
  4402 ;; This function is called by:
  4403 ;;		_SYSTEM_Initialize
  4404 ;; This function uses a non-reentrant model
  4405 ;;
  4406                           
  4407                           
  4408                           ;psect for function _TMR1_Initialize
  4409  03D4                     _TMR1_Initialize:	
  4410                           
  4411                           ;tmr1.c: 68: T1CON = 0x30;
  4412                           
  4413                           ;incstack = 0
  4414                           ; Regs used in _TMR1_Initialize: [wreg+status,2+status,0+pclath+cstack]
  4415  03D4  3030               	movlw	48
  4416  03D5  0020               	movlb	0	; select bank0
  4417  03D6  0098               	movwf	24	;volatile
  4418                           
  4419                           ;tmr1.c: 71: T1GCON = 0x00;
  4420  03D7  0199               	clrf	25	;volatile
  4421                           
  4422                           ;tmr1.c: 74: TMR1H = 0x3C;
  4423  03D8  303C               	movlw	60
  4424  03D9  0097               	movwf	23	;volatile
  4425                           
  4426                           ;tmr1.c: 77: TMR1L = 0xB0;
  4427  03DA  30B0               	movlw	176
  4428  03DB  0096               	movwf	22	;volatile
  4429                           
  4430                           ;tmr1.c: 80: timer1ReloadVal=(uint16_t)((TMR1H << 8) | TMR1L);
  4431  03DC  0817               	movf	23,w	;volatile
  4432  03DD  00BF               	movwf	_timer1ReloadVal+1	;volatile
  4433  03DE  0816               	movf	22,w	;volatile
  4434  03DF  00BE               	movwf	_timer1ReloadVal	;volatile
  4435                           
  4436                           ;tmr1.c: 83: PIR1bits.TMR1IF = 0;
  4437  03E0  1011               	bcf	17,0	;volatile
  4438                           
  4439                           ;tmr1.c: 86: PIE1bits.TMR1IE = 1;
  4440  03E1  0021               	movlb	1	; select bank1
  4441  03E2  1411               	bsf	17,0	;volatile
  4442                           
  4443                           ;tmr1.c: 89: TMR1_SetInterruptHandler(TMR1_DefaultInterruptHandler);
  4444  03E3  30F3               	movlw	low _TMR1_DefaultInterruptHandler
  4445  03E4  00F1               	movwf	TMR1_SetInterruptHandler@InterruptHandler
  4446  03E5  3004               	movlw	high _TMR1_DefaultInterruptHandler
  4447  03E6  00F2               	movwf	TMR1_SetInterruptHandler@InterruptHandler+1
  4448  03E7  3184  24CE  3183   	fcall	_TMR1_SetInterruptHandler
  4449                           
  4450                           ;tmr1.c: 92: TMR1_StartTimer();
  4451  03EA  3184  24F0         	fcall	_TMR1_StartTimer
  4452  03EC  0008               	return
  4453  03ED                     __end_of_TMR1_Initialize:	
  4454                           
  4455                           	psect	text24
  4456  04F0                     __ptext24:	
  4457 ;; *************** function _TMR1_StartTimer *****************
  4458 ;; Defined at:
  4459 ;;		line 95 in file "mcc_generated_files/tmr1.c"
  4460 ;; Parameters:    Size  Location     Type
  4461 ;;		None
  4462 ;; Auto vars:     Size  Location     Type
  4463 ;;		None
  4464 ;; Return value:  Size  Location     Type
  4465 ;;                  1    wreg      void 
  4466 ;; Registers used:
  4467 ;;		None
  4468 ;; Tracked objects:
  4469 ;;		On entry : 0/0
  4470 ;;		On exit  : 0/0
  4471 ;;		Unchanged: 0/0
  4472 ;; Data sizes:     COMMON   BANK0   BANK1   BANK2   BANK3   BANK4
  4473 ;;      Params:         0       0       0       0       0       0
  4474 ;;      Locals:         0       0       0       0       0       0
  4475 ;;      Temps:          0       0       0       0       0       0
  4476 ;;      Totals:         0       0       0       0       0       0
  4477 ;;Total ram usage:        0 bytes
  4478 ;; Hardware stack levels used:    1
  4479 ;; Hardware stack levels required when called:    4
  4480 ;; This function calls:
  4481 ;;		Nothing
  4482 ;; This function is called by:
  4483 ;;		_TMR1_Initialize
  4484 ;; This function uses a non-reentrant model
  4485 ;;
  4486                           
  4487                           
  4488                           ;psect for function _TMR1_StartTimer
  4489  04F0                     _TMR1_StartTimer:	
  4490                           
  4491                           ;tmr1.c: 98: T1CONbits.TMR1ON = 1;
  4492                           
  4493                           ;incstack = 0
  4494                           ; Regs used in _TMR1_StartTimer: []
  4495  04F0  0020               	movlb	0	; select bank0
  4496  04F1  1418               	bsf	24,0	;volatile
  4497  04F2  0008               	return
  4498  04F3                     __end_of_TMR1_StartTimer:	
  4499                           
  4500                           	psect	text25
  4501  04CE                     __ptext25:	
  4502 ;; *************** function _TMR1_SetInterruptHandler *****************
  4503 ;; Defined at:
  4504 ;;		line 190 in file "mcc_generated_files/tmr1.c"
  4505 ;; Parameters:    Size  Location     Type
  4506 ;;  InterruptHan    2    1[COMMON] PTR FTN()void 
  4507 ;;		 -> Sayi_Say(1), TMR1_DefaultInterruptHandler(1), 
  4508 ;; Auto vars:     Size  Location     Type
  4509 ;;		None
  4510 ;; Return value:  Size  Location     Type
  4511 ;;                  1    wreg      void 
  4512 ;; Registers used:
  4513 ;;		wreg
  4514 ;; Tracked objects:
  4515 ;;		On entry : 0/0
  4516 ;;		On exit  : 0/0
  4517 ;;		Unchanged: 0/0
  4518 ;; Data sizes:     COMMON   BANK0   BANK1   BANK2   BANK3   BANK4
  4519 ;;      Params:         2       0       0       0       0       0
  4520 ;;      Locals:         0       0       0       0       0       0
  4521 ;;      Temps:          0       0       0       0       0       0
  4522 ;;      Totals:         2       0       0       0       0       0
  4523 ;;Total ram usage:        2 bytes
  4524 ;; Hardware stack levels used:    1
  4525 ;; Hardware stack levels required when called:    4
  4526 ;; This function calls:
  4527 ;;		Nothing
  4528 ;; This function is called by:
  4529 ;;		_TMR1_Initialize
  4530 ;;		_main
  4531 ;; This function uses a non-reentrant model
  4532 ;;
  4533                           
  4534                           
  4535                           ;psect for function _TMR1_SetInterruptHandler
  4536  04CE                     _TMR1_SetInterruptHandler:	
  4537                           
  4538                           ;tmr1.c: 191: TMR1_InterruptHandler = InterruptHandler;
  4539                           
  4540                           ;incstack = 0
  4541                           ; Regs used in _TMR1_SetInterruptHandler: [wreg]
  4542  04CE  0872               	movf	TMR1_SetInterruptHandler@InterruptHandler+1,w
  4543  04CF  0020               	movlb	0	; select bank0
  4544  04D0  00BD               	movwf	_TMR1_InterruptHandler+1
  4545  04D1  0871               	movf	TMR1_SetInterruptHandler@InterruptHandler,w
  4546  04D2  00BC               	movwf	_TMR1_InterruptHandler
  4547  04D3  0008               	return
  4548  04D4                     __end_of_TMR1_SetInterruptHandler:	
  4549                           
  4550                           	psect	text26
  4551  0405                     __ptext26:	
  4552 ;; *************** function _PIN_MANAGER_Initialize *****************
  4553 ;; Defined at:
  4554 ;;		line 52 in file "mcc_generated_files/pin_manager.c"
  4555 ;; Parameters:    Size  Location     Type
  4556 ;;		None
  4557 ;; Auto vars:     Size  Location     Type
  4558 ;;		None
  4559 ;; Return value:  Size  Location     Type
  4560 ;;                  1    wreg      void 
  4561 ;; Registers used:
  4562 ;;		wreg, status,2
  4563 ;; Tracked objects:
  4564 ;;		On entry : 0/0
  4565 ;;		On exit  : 0/0
  4566 ;;		Unchanged: 0/0
  4567 ;; Data sizes:     COMMON   BANK0   BANK1   BANK2   BANK3   BANK4
  4568 ;;      Params:         0       0       0       0       0       0
  4569 ;;      Locals:         0       0       0       0       0       0
  4570 ;;      Temps:          0       0       0       0       0       0
  4571 ;;      Totals:         0       0       0       0       0       0
  4572 ;;Total ram usage:        0 bytes
  4573 ;; Hardware stack levels used:    1
  4574 ;; Hardware stack levels required when called:    4
  4575 ;; This function calls:
  4576 ;;		Nothing
  4577 ;; This function is called by:
  4578 ;;		_SYSTEM_Initialize
  4579 ;; This function uses a non-reentrant model
  4580 ;;
  4581                           
  4582                           
  4583                           ;psect for function _PIN_MANAGER_Initialize
  4584  0405                     _PIN_MANAGER_Initialize:	
  4585                           
  4586                           ;pin_manager.c: 57: LATA = 0x00;
  4587                           
  4588                           ;incstack = 0
  4589                           ; Regs used in _PIN_MANAGER_Initialize: [wreg+status,2]
  4590  0405  0022               	movlb	2	; select bank2
  4591  0406  018C               	clrf	12	;volatile
  4592                           
  4593                           ;pin_manager.c: 58: LATB = 0x00;
  4594  0407  018D               	clrf	13	;volatile
  4595                           
  4596                           ;pin_manager.c: 63: TRISA = 0xFF;
  4597  0408  30FF               	movlw	255
  4598  0409  0021               	movlb	1	; select bank1
  4599  040A  008C               	movwf	12	;volatile
  4600                           
  4601                           ;pin_manager.c: 64: TRISB = 0xFE;
  4602  040B  30FE               	movlw	254
  4603  040C  008D               	movwf	13	;volatile
  4604                           
  4605                           ;pin_manager.c: 69: ANSELB = 0xCC;
  4606  040D  30CC               	movlw	204
  4607  040E  0023               	movlb	3	; select bank3
  4608  040F  008D               	movwf	13	;volatile
  4609                           
  4610                           ;pin_manager.c: 70: ANSELA = 0x1F;
  4611  0410  301F               	movlw	31
  4612  0411  008C               	movwf	12	;volatile
  4613                           
  4614                           ;pin_manager.c: 75: WPUB = 0x12;
  4615  0412  3012               	movlw	18
  4616  0413  0024               	movlb	4	; select bank4
  4617  0414  008D               	movwf	13	;volatile
  4618                           
  4619                           ;pin_manager.c: 76: WPUA = 0x00;
  4620  0415  018C               	clrf	12	;volatile
  4621                           
  4622                           ;pin_manager.c: 77: OPTION_REGbits.nWPUEN = 0;
  4623  0416  0021               	movlb	1	; select bank1
  4624  0417  1395               	bcf	21,7	;volatile
  4625                           
  4626                           ;pin_manager.c: 83: APFCON1 = 0x00;
  4627  0418  0022               	movlb	2	; select bank2
  4628  0419  019E               	clrf	30	;volatile
  4629                           
  4630                           ;pin_manager.c: 84: APFCON0 = 0x00;
  4631  041A  019D               	clrf	29	;volatile
  4632  041B  0008               	return
  4633  041C                     __end_of_PIN_MANAGER_Initialize:	
  4634                           
  4635                           	psect	text27
  4636  04E3                     __ptext27:	
  4637 ;; *************** function _OSCILLATOR_Initialize *****************
  4638 ;; Defined at:
  4639 ;;		line 78 in file "mcc_generated_files/mcc.c"
  4640 ;; Parameters:    Size  Location     Type
  4641 ;;		None
  4642 ;; Auto vars:     Size  Location     Type
  4643 ;;		None
  4644 ;; Return value:  Size  Location     Type
  4645 ;;                  1    wreg      void 
  4646 ;; Registers used:
  4647 ;;		wreg, status,2
  4648 ;; Tracked objects:
  4649 ;;		On entry : 0/0
  4650 ;;		On exit  : 0/0
  4651 ;;		Unchanged: 0/0
  4652 ;; Data sizes:     COMMON   BANK0   BANK1   BANK2   BANK3   BANK4
  4653 ;;      Params:         0       0       0       0       0       0
  4654 ;;      Locals:         0       0       0       0       0       0
  4655 ;;      Temps:          0       0       0       0       0       0
  4656 ;;      Totals:         0       0       0       0       0       0
  4657 ;;Total ram usage:        0 bytes
  4658 ;; Hardware stack levels used:    1
  4659 ;; Hardware stack levels required when called:    4
  4660 ;; This function calls:
  4661 ;;		Nothing
  4662 ;; This function is called by:
  4663 ;;		_SYSTEM_Initialize
  4664 ;; This function uses a non-reentrant model
  4665 ;;
  4666                           
  4667                           
  4668                           ;psect for function _OSCILLATOR_Initialize
  4669  04E3                     _OSCILLATOR_Initialize:	
  4670                           
  4671                           ;mcc.c: 81: OSCCON = 0x38;
  4672                           
  4673                           ;incstack = 0
  4674                           ; Regs used in _OSCILLATOR_Initialize: [wreg+status,2]
  4675  04E3  3038               	movlw	56
  4676  04E4  0021               	movlb	1	; select bank1
  4677  04E5  0099               	movwf	25	;volatile
  4678                           
  4679                           ;mcc.c: 83: OSCTUNE = 0x00;
  4680  04E6  0198               	clrf	24	;volatile
  4681  04E7  0008               	return
  4682  04E8                     __end_of_OSCILLATOR_Initialize:	
  4683                           
  4684                           	psect	intentry
  4685  0004                     __pintentry:	
  4686 ;; *************** function _INTERRUPT_InterruptManager *****************
  4687 ;; Defined at:
  4688 ;;		line 51 in file "mcc_generated_files/interrupt_manager.c"
  4689 ;; Parameters:    Size  Location     Type
  4690 ;;		None
  4691 ;; Auto vars:     Size  Location     Type
  4692 ;;		None
  4693 ;; Return value:  Size  Location     Type
  4694 ;;                  1    wreg      void 
  4695 ;; Registers used:
  4696 ;;		wreg, status,2, status,0, pclath, cstack
  4697 ;; Tracked objects:
  4698 ;;		On entry : 0/0
  4699 ;;		On exit  : 0/0
  4700 ;;		Unchanged: 0/0
  4701 ;; Data sizes:     COMMON   BANK0   BANK1   BANK2   BANK3   BANK4
  4702 ;;      Params:         0       0       0       0       0       0
  4703 ;;      Locals:         0       0       0       0       0       0
  4704 ;;      Temps:          1       0       0       0       0       0
  4705 ;;      Totals:         1       0       0       0       0       0
  4706 ;;Total ram usage:        1 bytes
  4707 ;; Hardware stack levels used:    1
  4708 ;; Hardware stack levels required when called:    3
  4709 ;; This function calls:
  4710 ;;		_TMR1_ISR
  4711 ;; This function is called by:
  4712 ;;		Interrupt level 1
  4713 ;; This function uses a non-reentrant model
  4714 ;;
  4715                           
  4716  0004                     _INTERRUPT_InterruptManager:	
  4717                           
  4718                           ;incstack = 0
  4719  0004  147E               	bsf	126,0	;set compiler interrupt flag (level 1)
  4720                           
  4721                           ; Regs used in _INTERRUPT_InterruptManager: [wreg+status,2+status,0+pclath+cstack]
  4722  0005  3180               	pagesel	$
  4723  0006  0020               	movlb	0	; select bank0
  4724  0007  087F               	movf	127,w
  4725  0008  00F0               	movwf	??_INTERRUPT_InterruptManager
  4726                           
  4727                           ;interrupt_manager.c: 54: if(INTCONbits.PEIE == 1 && PIE1bits.TMR1IE == 1 && PIR1bits.TM
      +                          R1IF == 1)
  4728  0009  1F0B               	btfss	11,6	;volatile
  4729  000A  2813               	goto	i1l108
  4730  000B  0021               	movlb	1	; select bank1
  4731  000C  1C11               	btfss	17,0	;volatile
  4732  000D  2813               	goto	i1l108
  4733  000E  0020               	movlb	0	; select bank0
  4734  000F  1C11               	btfss	17,0	;volatile
  4735  0010  2813               	goto	i1l108
  4736                           
  4737                           ;interrupt_manager.c: 55: {
  4738                           ;interrupt_manager.c: 56: TMR1_ISR();
  4739  0011  3184  241C         	fcall	_TMR1_ISR
  4740  0013                     i1l108:	
  4741                           ;interrupt_manager.c: 58: else
  4742                           ;interrupt_manager.c: 59: {
  4743                           
  4744                           ;interrupt_manager.c: 57: }
  4745                           
  4746  0013  0870               	movf	??_INTERRUPT_InterruptManager,w
  4747  0014  0020               	movlb	0	; select bank0
  4748  0015  00FF               	movwf	127
  4749  0016  107E               	bcf	126,0	;clear compiler interrupt flag (level 1)
  4750  0017  0009               	retfie
  4751  0018                     __end_of_INTERRUPT_InterruptManager:	
  4752                           
  4753                           	psect	text29
  4754  041C                     __ptext29:	
  4755 ;; *************** function _TMR1_ISR *****************
  4756 ;; Defined at:
  4757 ;;		line 160 in file "mcc_generated_files/tmr1.c"
  4758 ;; Parameters:    Size  Location     Type
  4759 ;;		None
  4760 ;; Auto vars:     Size  Location     Type
  4761 ;;		None
  4762 ;; Return value:  Size  Location     Type
  4763 ;;                  1    wreg      void 
  4764 ;; Registers used:
  4765 ;;		wreg, status,2, status,0, pclath, cstack
  4766 ;; Tracked objects:
  4767 ;;		On entry : 0/0
  4768 ;;		On exit  : 0/0
  4769 ;;		Unchanged: 0/0
  4770 ;; Data sizes:     COMMON   BANK0   BANK1   BANK2   BANK3   BANK4
  4771 ;;      Params:         0       0       0       0       0       0
  4772 ;;      Locals:         0       0       0       0       0       0
  4773 ;;      Temps:          0       0       0       0       0       0
  4774 ;;      Totals:         0       0       0       0       0       0
  4775 ;;Total ram usage:        0 bytes
  4776 ;; Hardware stack levels used:    1
  4777 ;; Hardware stack levels required when called:    2
  4778 ;; This function calls:
  4779 ;;		_TMR1_CallBack
  4780 ;; This function is called by:
  4781 ;;		_INTERRUPT_InterruptManager
  4782 ;; This function uses a non-reentrant model
  4783 ;;
  4784                           
  4785                           
  4786                           ;psect for function _TMR1_ISR
  4787  041C                     _TMR1_ISR:	
  4788                           
  4789                           ;tmr1.c: 162: static volatile unsigned int CountCallBack = 0;
  4790                           ;tmr1.c: 165: PIR1bits.TMR1IF = 0;
  4791                           
  4792                           ;incstack = 0
  4793                           ; Regs used in _TMR1_ISR: [wreg+status,2+status,0+pclath+cstack]
  4794  041C  0020               	movlb	0	; select bank0
  4795  041D  1011               	bcf	17,0	;volatile
  4796                           
  4797                           ;tmr1.c: 167: TMR1H = (timer1ReloadVal >> 8);
  4798  041E  083F               	movf	_timer1ReloadVal+1,w	;volatile
  4799  041F  0097               	movwf	23	;volatile
  4800                           
  4801                           ;tmr1.c: 168: TMR1L = timer1ReloadVal;
  4802  0420  083E               	movf	_timer1ReloadVal,w	;volatile
  4803  0421  0096               	movwf	22	;volatile
  4804                           
  4805                           ;tmr1.c: 171: if (++CountCallBack >= 10)
  4806  0422  3001               	movlw	1
  4807  0423  07C2               	addwf	TMR1_ISR@CountCallBack,f	;volatile
  4808  0424  3000               	movlw	0
  4809  0425  3DC3               	addwfc	TMR1_ISR@CountCallBack+1,f	;volatile
  4810  0426  3000               	movlw	0
  4811  0427  0243               	subwf	TMR1_ISR@CountCallBack+1,w	;volatile
  4812  0428  300A               	movlw	10
  4813  0429  1903               	skipnz
  4814  042A  0242               	subwf	TMR1_ISR@CountCallBack,w	;volatile
  4815  042B  1C03               	skipc
  4816  042C  0008               	return
  4817                           
  4818                           ;tmr1.c: 172: {
  4819                           ;tmr1.c: 174: TMR1_CallBack();
  4820  042D  3184  249F         	fcall	_TMR1_CallBack
  4821                           
  4822                           ;tmr1.c: 177: CountCallBack = 0;
  4823  042F  0020               	movlb	0	; select bank0
  4824  0430  01C2               	clrf	TMR1_ISR@CountCallBack	;volatile
  4825  0431  01C3               	clrf	TMR1_ISR@CountCallBack+1	;volatile
  4826  0432  0008               	return
  4827  0433                     __end_of_TMR1_ISR:	
  4828                           
  4829                           	psect	text30
  4830  049F                     __ptext30:	
  4831 ;; *************** function _TMR1_CallBack *****************
  4832 ;; Defined at:
  4833 ;;		line 181 in file "mcc_generated_files/tmr1.c"
  4834 ;; Parameters:    Size  Location     Type
  4835 ;;		None
  4836 ;; Auto vars:     Size  Location     Type
  4837 ;;		None
  4838 ;; Return value:  Size  Location     Type
  4839 ;;                  1    wreg      void 
  4840 ;; Registers used:
  4841 ;;		wreg, status,2, status,0, pclath, cstack
  4842 ;; Tracked objects:
  4843 ;;		On entry : 0/0
  4844 ;;		On exit  : 0/0
  4845 ;;		Unchanged: 0/0
  4846 ;; Data sizes:     COMMON   BANK0   BANK1   BANK2   BANK3   BANK4
  4847 ;;      Params:         0       0       0       0       0       0
  4848 ;;      Locals:         0       0       0       0       0       0
  4849 ;;      Temps:          0       0       0       0       0       0
  4850 ;;      Totals:         0       0       0       0       0       0
  4851 ;;Total ram usage:        0 bytes
  4852 ;; Hardware stack levels used:    1
  4853 ;; Hardware stack levels required when called:    1
  4854 ;; This function calls:
  4855 ;;		Absolute function
  4856 ;;		_Sayi_Say
  4857 ;;		_TMR1_DefaultInterruptHandler
  4858 ;; This function is called by:
  4859 ;;		_TMR1_ISR
  4860 ;; This function uses a non-reentrant model
  4861 ;;
  4862                           
  4863                           
  4864                           ;psect for function _TMR1_CallBack
  4865  049F                     _TMR1_CallBack:	
  4866                           
  4867                           ;tmr1.c: 184: if(TMR1_InterruptHandler)
  4868                           
  4869                           ;incstack = 0
  4870                           ; Regs used in _TMR1_CallBack: [wreg+status,2+status,0+pclath+cstack]
  4871  049F  0020               	movlb	0	; select bank0
  4872  04A0  083C               	movf	_TMR1_InterruptHandler,w
  4873  04A1  043D               	iorwf	_TMR1_InterruptHandler+1,w
  4874  04A2  1903               	btfsc	3,2
  4875  04A3  0008               	return
  4876                           
  4877                           ;tmr1.c: 185: {
  4878                           ;tmr1.c: 186: TMR1_InterruptHandler();
  4879  04A4  083D               	movf	_TMR1_InterruptHandler+1,w
  4880  04A5  008A               	movwf	10
  4881  04A6  083C               	movf	_TMR1_InterruptHandler,w
  4882  04A7  000A               	callw
  4883  04A8  3184               	pagesel	$
  4884  04A9  0008               	return
  4885  04AA                     __end_of_TMR1_CallBack:	
  4886                           
  4887                           	psect	text31
  4888  04B4                     __ptext31:	
  4889 ;; *************** function _Sayi_Say *****************
  4890 ;; Defined at:
  4891 ;;		line 55 in file "main.c"
  4892 ;; Parameters:    Size  Location     Type
  4893 ;;		None
  4894 ;; Auto vars:     Size  Location     Type
  4895 ;;		None
  4896 ;; Return value:  Size  Location     Type
  4897 ;;                  1    wreg      void 
  4898 ;; Registers used:
  4899 ;;		wreg
  4900 ;; Tracked objects:
  4901 ;;		On entry : 0/0
  4902 ;;		On exit  : 0/0
  4903 ;;		Unchanged: 0/0
  4904 ;; Data sizes:     COMMON   BANK0   BANK1   BANK2   BANK3   BANK4
  4905 ;;      Params:         0       0       0       0       0       0
  4906 ;;      Locals:         0       0       0       0       0       0
  4907 ;;      Temps:          0       0       0       0       0       0
  4908 ;;      Totals:         0       0       0       0       0       0
  4909 ;;Total ram usage:        0 bytes
  4910 ;; Hardware stack levels used:    1
  4911 ;; This function calls:
  4912 ;;		Nothing
  4913 ;; This function is called by:
  4914 ;;		_main
  4915 ;;		_TMR1_CallBack
  4916 ;; This function uses a non-reentrant model
  4917 ;;
  4918                           
  4919                           
  4920                           ;psect for function _Sayi_Say
  4921  04B4                     _Sayi_Say:	
  4922                           
  4923                           ;main.c: 57: Sayi++;
  4924                           
  4925                           ;incstack = 0
  4926                           ; Regs used in _Sayi_Say: [wreg]
  4927  04B4  3001               	movlw	1
  4928  04B5  0020               	movlb	0	; select bank0
  4929  04B6  07BA               	addwf	_Sayi,f	;volatile
  4930  04B7  3000               	movlw	0
  4931  04B8  3DBB               	addwfc	_Sayi+1,f	;volatile
  4932                           
  4933                           ;main.c: 58: Sayi2++;
  4934  04B9  3001               	movlw	1
  4935  04BA  07C0               	addwf	_Sayi2,f	;volatile
  4936  04BB  3000               	movlw	0
  4937  04BC  3DC1               	addwfc	_Sayi2+1,f	;volatile
  4938  04BD  0008               	return
  4939  04BE                     __end_of_Sayi_Say:	
  4940                           
  4941                           	psect	text32
  4942  04F3                     __ptext32:	
  4943 ;; *************** function _TMR1_DefaultInterruptHandler *****************
  4944 ;; Defined at:
  4945 ;;		line 194 in file "mcc_generated_files/tmr1.c"
  4946 ;; Parameters:    Size  Location     Type
  4947 ;;		None
  4948 ;; Auto vars:     Size  Location     Type
  4949 ;;		None
  4950 ;; Return value:  Size  Location     Type
  4951 ;;                  1    wreg      void 
  4952 ;; Registers used:
  4953 ;;		None
  4954 ;; Tracked objects:
  4955 ;;		On entry : 0/0
  4956 ;;		On exit  : 0/0
  4957 ;;		Unchanged: 0/0
  4958 ;; Data sizes:     COMMON   BANK0   BANK1   BANK2   BANK3   BANK4
  4959 ;;      Params:         0       0       0       0       0       0
  4960 ;;      Locals:         0       0       0       0       0       0
  4961 ;;      Temps:          0       0       0       0       0       0
  4962 ;;      Totals:         0       0       0       0       0       0
  4963 ;;Total ram usage:        0 bytes
  4964 ;; Hardware stack levels used:    1
  4965 ;; This function calls:
  4966 ;;		Nothing
  4967 ;; This function is called by:
  4968 ;;		_TMR1_Initialize
  4969 ;;		_TMR1_CallBack
  4970 ;; This function uses a non-reentrant model
  4971 ;;
  4972                           
  4973                           
  4974                           ;psect for function _TMR1_DefaultInterruptHandler
  4975  04F3                     _TMR1_DefaultInterruptHandler:	
  4976                           
  4977                           ;incstack = 0
  4978                           ; Regs used in _TMR1_DefaultInterruptHandler: []
  4979  04F3  0008               	return
  4980  04F4                     __end_of_TMR1_DefaultInterruptHandler:	
  4981  007E                     btemp	set	126	;btemp
  4982  007E                     int$flags	set	126
  4983  007E                     wtemp0	set	126


Data Sizes:
    Strings     39
    Constant    10
    Data        0
    BSS         7
    Persistent  6
    Stack       0

Auto Spaces:
    Space          Size  Autos    Used
    COMMON           14     12      13
    BANK0            79     25      37
    BANK1            80      0       0
    BANK2            80      0       0
    BANK3            80      0       0
    BANK4            48      0       0

Pointer List with Targets:

    printf@f	PTR const unsigned char  size(2) Largest target is 16
		 -> STR_3(CODE[16]), 

    printf@ap	PTR void [1] size(1) Largest target is 2
		 -> ?_printf(BANK0[2]), 

    lcd_mesajyaz@mesaj	PTR const unsigned char  size(2) Largest target is 15
		 -> STR_2(CODE[8]), STR_1(CODE[15]), 

    TMR1_SetInterruptHandler@InterruptHandler	PTR FTN()void  size(2) Largest target is 1
		 -> Sayi_Say(), TMR1_DefaultInterruptHandler(), 

    TMR1_InterruptHandler	PTR FTN()void  size(2) Largest target is 1
		 -> Sayi_Say(), Absolute function(), TMR1_DefaultInterruptHandler(), 


Critical Paths under _main in COMMON

    _main->_lcd_git
    _printf->___lwmod
    _putch->_lcd_harfyaz
    ___lwmod->___lwdiv
    _lcd_mesajyaz->_lcd_git
    _lcd_git->_lcd_komut
    _lcd_baslat->_lcd_komut
    _lcd_sil->_lcd_komut
    _pcf8574_yaz_wEnable->_softi2c_yaz
    _lcd_aydinlatma_ac->_pcf8574_yaz
    _pcf8574_yaz->_softi2c_yaz
    _TMR1_Initialize->_TMR1_SetInterruptHandler

Critical Paths under _INTERRUPT_InterruptManager in COMMON

    None.

Critical Paths under _main in BANK0

    _main->_printf
    _printf->___lwmod

Critical Paths under _INTERRUPT_InterruptManager in BANK0

    None.

Critical Paths under _main in BANK1

    None.

Critical Paths under _INTERRUPT_InterruptManager in BANK1

    None.

Critical Paths under _main in BANK2

    None.

Critical Paths under _INTERRUPT_InterruptManager in BANK2

    None.

Critical Paths under _main in BANK3

    None.

Critical Paths under _INTERRUPT_InterruptManager in BANK3

    None.

Critical Paths under _main in BANK4

    None.

Critical Paths under _INTERRUPT_InterruptManager in BANK4

    None.

Call Graph Tables:

 ---------------------------------------------------------------------------------
 (Depth) Function   	        Calls       Base Space   Used Autos Params    Refs
 ---------------------------------------------------------------------------------
 (0) _main                                                 3     3      0    4521
                                             22 BANK0      3     3      0
                  _SYSTEM_Initialize
           _TMR1_SetInterruptHandler
                         _lcd_baslat
                            _lcd_git
                       _lcd_mesajyaz
                             _printf
                        _softi2c_kur
 ---------------------------------------------------------------------------------
 (1) _softi2c_kur                                          0     0      0       0
 ---------------------------------------------------------------------------------
 (1) _printf                                              26    20      6    2272
                                              4 BANK0     18    12      6
                            ___lwdiv
                            ___lwmod
                             ___wmul
                            _isdigit
                              _putch
 ---------------------------------------------------------------------------------
 (2) _putch                                                1     1      0     142
                                              8 COMMON     1     1      0
                        _lcd_harfyaz
 ---------------------------------------------------------------------------------
 (2) _isdigit                                              2     2      0      68
                                              1 COMMON     2     2      0
 ---------------------------------------------------------------------------------
 (2) ___wmul                                               6     2      4     220
                                              1 COMMON     6     2      4
 ---------------------------------------------------------------------------------
 (2) ___lwmod                                              6     2      4     386
                                              9 COMMON     2     2      0
                                              0 BANK0      4     0      4
                            ___lwdiv (ARG)
 ---------------------------------------------------------------------------------
 (2) ___lwdiv                                              8     4      4     290
                                              1 COMMON     8     4      4
 ---------------------------------------------------------------------------------
 (1) _lcd_mesajyaz                                         5     2      3     939
                                              0 BANK0      5     2      3
                            _lcd_git
                        _lcd_harfyaz
 ---------------------------------------------------------------------------------
 (3) _lcd_harfyaz                                          3     3      0     120
                                              5 COMMON     3     3      0
                       _lcd_mesgulmu
                _pcf8574_yaz_wEnable
 ---------------------------------------------------------------------------------
 (2) _lcd_git                                              4     3      1     384
                                              8 COMMON     4     3      1
                          _lcd_komut
 ---------------------------------------------------------------------------------
 (1) _lcd_baslat                                           2     2      0     558
                                              8 COMMON     2     2      0
                  _lcd_aydinlatma_ac
                          _lcd_komut
                            _lcd_sil
                        _pcf8574_yaz
                _pcf8574_yaz_wEnable
 ---------------------------------------------------------------------------------
 (2) _lcd_sil                                              0     0      0     120
                          _lcd_komut
 ---------------------------------------------------------------------------------
 (3) _lcd_komut                                            3     3      0     120
                                              5 COMMON     3     3      0
                       _lcd_mesgulmu
                _pcf8574_yaz_wEnable
 ---------------------------------------------------------------------------------
 (4) _pcf8574_yaz_wEnable                                  0     0      0      76
                     _softi2c_baslat
                     _softi2c_durdur
                        _softi2c_yaz
 ---------------------------------------------------------------------------------
 (4) _lcd_mesgulmu                                         0     0      0       0
 ---------------------------------------------------------------------------------
 (2) _lcd_aydinlatma_ac                                    0     0      0      98
                        _pcf8574_yaz
 ---------------------------------------------------------------------------------
 (2) _pcf8574_yaz                                          1     1      0      98
                                              5 COMMON     1     1      0
                     _softi2c_baslat
                     _softi2c_durdur
                        _softi2c_yaz
 ---------------------------------------------------------------------------------
 (5) _softi2c_yaz                                          4     4      0      76
                                              1 COMMON     4     4      0
 ---------------------------------------------------------------------------------
 (5) _softi2c_durdur                                       0     0      0       0
 ---------------------------------------------------------------------------------
 (5) _softi2c_baslat                                       0     0      0       0
 ---------------------------------------------------------------------------------
 (1) _SYSTEM_Initialize                                    0     0      0     150
              _OSCILLATOR_Initialize
             _PIN_MANAGER_Initialize
                    _TMR1_Initialize
                     _WDT_Initialize
 ---------------------------------------------------------------------------------
 (2) _WDT_Initialize                                       0     0      0       0
 ---------------------------------------------------------------------------------
 (2) _TMR1_Initialize                                      0     0      0     150
           _TMR1_SetInterruptHandler
                    _TMR1_StartTimer
 ---------------------------------------------------------------------------------
 (3) _TMR1_StartTimer                                      0     0      0       0
 ---------------------------------------------------------------------------------
 (1) _TMR1_SetInterruptHandler                             2     0      2     150
                                              1 COMMON     2     0      2
 ---------------------------------------------------------------------------------
 (2) _PIN_MANAGER_Initialize                               0     0      0       0
 ---------------------------------------------------------------------------------
 (2) _OSCILLATOR_Initialize                                0     0      0       0
 ---------------------------------------------------------------------------------
 Estimated maximum stack depth 5
 ---------------------------------------------------------------------------------
 (Depth) Function   	        Calls       Base Space   Used Autos Params    Refs
 ---------------------------------------------------------------------------------
 (6) _INTERRUPT_InterruptManager                           1     1      0       0
                                              0 COMMON     1     1      0
                           _TMR1_ISR
 ---------------------------------------------------------------------------------
 (7) _TMR1_ISR                                             0     0      0       0
                      _TMR1_CallBack
 ---------------------------------------------------------------------------------
 (8) _TMR1_CallBack                                        0     0      0       0
                   Absolute function *
                           _Sayi_Say *
       _TMR1_DefaultInterruptHandler *
 ---------------------------------------------------------------------------------
 (9) _TMR1_DefaultInterruptHandler                         0     0      0       0
 ---------------------------------------------------------------------------------
 (9) _Sayi_Say                                             0     0      0       0
 ---------------------------------------------------------------------------------
 (9) Absolute function(Fake)                               0     0      0       0
 ---------------------------------------------------------------------------------
 Estimated maximum stack depth 9
 ---------------------------------------------------------------------------------

 Call Graph Graphs:

 _main (ROOT)
   _SYSTEM_Initialize
     _OSCILLATOR_Initialize
     _PIN_MANAGER_Initialize
     _TMR1_Initialize
       _TMR1_SetInterruptHandler
       _TMR1_StartTimer
     _WDT_Initialize
   _TMR1_SetInterruptHandler
   _lcd_baslat
     _lcd_aydinlatma_ac
       _pcf8574_yaz
         _softi2c_baslat
         _softi2c_durdur
         _softi2c_yaz
     _lcd_komut
       _lcd_mesgulmu
       _pcf8574_yaz_wEnable
         _softi2c_baslat
         _softi2c_durdur
         _softi2c_yaz
     _lcd_sil
       _lcd_komut
         _lcd_mesgulmu
         _pcf8574_yaz_wEnable
           _softi2c_baslat
           _softi2c_durdur
           _softi2c_yaz
     _pcf8574_yaz
       _softi2c_baslat
       _softi2c_durdur
       _softi2c_yaz
     _pcf8574_yaz_wEnable
       _softi2c_baslat
       _softi2c_durdur
       _softi2c_yaz
   _lcd_git
     _lcd_komut
       _lcd_mesgulmu
       _pcf8574_yaz_wEnable
         _softi2c_baslat
         _softi2c_durdur
         _softi2c_yaz
   _lcd_mesajyaz
     _lcd_git
       _lcd_komut
         _lcd_mesgulmu
         _pcf8574_yaz_wEnable
           _softi2c_baslat
           _softi2c_durdur
           _softi2c_yaz
     _lcd_harfyaz
       _lcd_mesgulmu
       _pcf8574_yaz_wEnable
         _softi2c_baslat
         _softi2c_durdur
         _softi2c_yaz
   _printf
     ___lwdiv
     ___lwmod
       ___lwdiv (ARG)
     ___wmul
     _isdigit
     _putch
       _lcd_harfyaz
         _lcd_mesgulmu
         _pcf8574_yaz_wEnable
           _softi2c_baslat
           _softi2c_durdur
           _softi2c_yaz
   _softi2c_kur

 _INTERRUPT_InterruptManager (ROOT)
   _TMR1_ISR
     _TMR1_CallBack
       Absolute function(Fake) *
       _Sayi_Say *
       _TMR1_DefaultInterruptHandler *

 Address spaces:
Name               Size   Autos  Total    Cost      Usage
BIGRAM             16F      0       0       0        0.0%
EEDATA             100      0       0       0        0.0%
NULL                 0      0       0       0        0.0%
CODE                 0      0       0       0        0.0%
BITCOMMON            E      0       0       1        0.0%
BITSFR0              0      0       0       1        0.0%
SFR0                 0      0       0       1        0.0%
COMMON               E      C       D       2       92.9%
BITSFR1              0      0       0       2        0.0%
SFR1                 0      0       0       2        0.0%
BITSFR2              0      0       0       3        0.0%
SFR2                 0      0       0       3        0.0%
STACK                0      0       0       3        0.0%
BITSFR3              0      0       0       4        0.0%
SFR3                 0      0       0       4        0.0%
ABS                  0      0      32       4        0.0%
BITBANK0            4F      0       0       5        0.0%
BITSFR4              0      0       0       5        0.0%
SFR4                 0      0       0       5        0.0%
BANK0               4F     19      25       6       46.8%
BITSFR5              0      0       0       6        0.0%
SFR5                 0      0       0       6        0.0%
BITBANK1            50      0       0       7        0.0%
BITSFR6              0      0       0       7        0.0%
SFR6                 0      0       0       7        0.0%
BANK1               50      0       0       8        0.0%
BITSFR7              0      0       0       8        0.0%
SFR7                 0      0       0       8        0.0%
BITBANK2            50      0       0       9        0.0%
BITSFR8              0      0       0       9        0.0%
SFR8                 0      0       0       9        0.0%
BANK2               50      0       0      10        0.0%
BITSFR9              0      0       0      10        0.0%
SFR9                 0      0       0      10        0.0%
BITBANK3            50      0       0      11        0.0%
BITSFR10             0      0       0      11        0.0%
SFR10                0      0       0      11        0.0%
BANK3               50      0       0      12        0.0%
BITSFR11             0      0       0      12        0.0%
SFR11                0      0       0      12        0.0%
BITBANK4            30      0       0      13        0.0%
BITSFR12             0      0       0      13        0.0%
SFR12                0      0       0      13        0.0%
BANK4               30      0       0      14        0.0%
BITSFR13             0      0       0      14        0.0%
SFR13                0      0       0      14        0.0%
BITSFR14             0      0       0      15        0.0%
SFR14                0      0       0      15        0.0%
DATA                 0      0      32      15        0.0%
BITSFR15             0      0       0      16        0.0%
SFR15                0      0       0      16        0.0%
BITSFR16             0      0       0      17        0.0%
SFR16                0      0       0      17        0.0%
BITSFR17             0      0       0      18        0.0%
SFR17                0      0       0      18        0.0%
BITSFR18             0      0       0      19        0.0%
SFR18                0      0       0      19        0.0%
BITSFR19             0      0       0      20        0.0%
SFR19                0      0       0      20        0.0%
BITSFR20             0      0       0      21        0.0%
SFR20                0      0       0      21        0.0%
BITSFR21             0      0       0      22        0.0%
SFR21                0      0       0      22        0.0%
BITSFR22             0      0       0      23        0.0%
SFR22                0      0       0      23        0.0%
BITSFR23             0      0       0      24        0.0%
SFR23                0      0       0      24        0.0%
BITSFR24             0      0       0      25        0.0%
SFR24                0      0       0      25        0.0%
BITSFR25             0      0       0      26        0.0%
SFR25                0      0       0      26        0.0%
BITSFR26             0      0       0      27        0.0%
SFR26                0      0       0      27        0.0%
BITSFR27             0      0       0      28        0.0%
SFR27                0      0       0      28        0.0%
BITSFR28             0      0       0      29        0.0%
SFR28                0      0       0      29        0.0%
BITSFR29             0      0       0      30        0.0%
SFR29                0      0       0      30        0.0%
BITSFR30             0      0       0      31        0.0%
SFR30                0      0       0      31        0.0%
BITSFR31             0      0       0      32        0.0%
SFR31                0      0       0      32        0.0%


Microchip Technology PIC Macro Assembler V1.45 build -152302408 
Symbol Table                                                                                   Sat Feb 03 23:04:22 2018

                             lcd_baslat@i 0079                               __CFG_CP$OFF 0000  
                     ___wmul@multiplicand 0073                              softi2c_yaz@i 0074  
                             lcd_git@temp 007B                               __CFG_LVP$ON 0000  
                                     l402 0183                                       l340 0291  
                                     l229 03A3                                       l181 0214  
                                     l338 02A0                                       l339 028D  
                                     l367 004F                                       l385 00F8  
                                     l486 03C1                                       _RB5 006D  
                            __CFG_CPD$OFF 0000                                       u705 0330  
                                     u715 0301                                       u805 02BD  
                                     u825 02C7                                       u835 02D1  
                                     u845 02D9                                       u765 03C2  
                                     u775 03C7                           _timer1ReloadVal 003E  
                            __CFG_BORV$LO 0000                                       wreg 0009  
                            __CFG_IESO$ON 0000                              __CFG_FOSC$HS 0000  
                            lcd_git@satir 007A                              lcd_git@sutun 0078  
                    _display_kursor_blink 0044                                      l2033 0363  
                                    l2121 0130                                      l2027 034B  
                                    l2123 0134                                      l2131 0149  
                                    l2115 0121                                      l2107 0114  
                                    l2029 0357                                      l2037 036C  
                                    l2109 0117                                      l2061 005D  
                                    l2053 004A                                      l2127 0141  
                                    l1505 0281                                      l2137 014E  
                                    l2065 006A                                      l2075 0098  
                                    l2059 0054                                      l2139 002E  
                                    l2093 00CD                                      l2077 00B0  
                                    l2157 01B1                                      l1703 02D8  
                                    l2087 00C7                                      l2175 01E8  
                                    l2159 01B6                                      l1641 037C  
                                    l2169 01D2                                      l1635 0373  
                                    l1707 02E1                                      l2099 00EC  
                                    l1637 0376                                      l1645 0382  
                                    l1639 0379                                      l1647 0390  
                                    l1761 0227                                      l1673 03BB  
                                    l1667 0491                                      l1773 0240  
                                    l1695 02BA                                      l1697 02C6  
                                    STR_1 0467                              __CFG_WDTE$ON 0000  
                                    STR_2 04BE                                      STR_3 0457  
                                    u1315 035D                                      u1325 0364  
                                    u1405 00E2                                      _LATA 010C  
                                    _LATB 010D                                      u1445 0107  
                                    u1295 034E                                      u1607 01A9  
                                    u1560 01D0                                      u1617 01D8  
                                    u1707 025A                                      u1627 0204  
                                    u1717 0262                                      u1637 02F8  
                                    u1807 0436                                      u1727 026C  
                                    u1647 030E                                      u1817 043E  
                                    u1737 0329                                      u1657 0395  
                                    u1747 033F                                      u1667 0218  
                                    u1757 04DA                                      u1677 0234  
                                    u1767 0294                                      u1687 0241  
                                    u1777 02A5                                      u1697 0251  
                                    u1787 044D                                      u1797 0453  
                                    _WPUA 020C                                      _WPUB 020D  
                            __CFG_WRT$OFF 0000                             __CFG_FCMEN$ON 0000  
                                    _Sayi 003A                                      _main 0184  
                                    fsr0h 0005                                      fsr1h 0007  
                                    indf0 0000                                      fsr0l 0004  
                                    fsr1l 0006                                      btemp 007E  
                           __CFG_BOREN$ON 0000                                      start 0018  
                          ??_lcd_mesajyaz 0024                            ??_lcd_mesgulmu 0071  
              ??_TMR1_SetInterruptHandler 0073                             __CFG_MCLRE$ON 0000  
                           __CFG_PLLEN$ON 0000            __size_of_OSCILLATOR_Initialize 0005  
           __end_of_OSCILLATOR_Initialize 04E8                                     ?_main 0070  
                                   _CARRY 0018                           _TMR1_StartTimer 04F0  
                                   _T1CON 0018                                     _LATB4 086C  
                         __end_of___lwdiv 02E6                                     i1l108 0013  
                         __end_of___lwmod 0371                                     _TMR1H 0017  
                                   _TMR1L 0016                                     _TRISA 008C  
                                   _TRISB 008D                                     _Sayi2 0040  
                         __end_of_lcd_git 0399                          __end_of_TMR1_ISR 0433  
                         __end_of_lcd_sil 04EC                      __size_of_pcf8574_yaz 000F  
                         __end_of_dpowers 04B4                            _WDT_Initialize 04EC  
                         __end_of_isdigit 0493                                     _sayac 0045  
                                   _putch 04D4                                     main@i 0039  
                 __end_of_TMR1_Initialize 03ED                                     pclath 000A  
                                   status 0003                                     wtemp0 007E  
                         pcf8574_yaz@veri 0075                         lcd_mesajyaz@mesaj 0022  
                       lcd_mesajyaz@satir 0025                          ??_softi2c_baslat 0071  
                       lcd_mesajyaz@sutun 0021                           __initialization 001D  
                         softi2c_yaz@temp 0072                           softi2c_yaz@veri 0073  
                        ??_softi2c_durdur 0071                              __end_of_main 0215  
             ?_INTERRUPT_InterruptManager 0070                                    ??_main 0037  
                        __end_of_Sayi_Say 04BE              __size_of_pcf8574_yaz_wEnable 0018  
                  __end_of_WDT_Initialize 04F0                                    _ANSELA 018C  
                                  ?_putch 0070                                    _ANSELB 018D  
                                  _T1GCON 0019                                    _OSCCON 0099  
                                  _WDTCON 0097                                    _TRISB4 046C  
                                  _TRISB5 046D                            __CFG_PWRTE$OFF 0000  
    __end_of_TMR1_DefaultInterruptHandler 04F4     __size_of_TMR1_DefaultInterruptHandler 0001  
            _TMR1_DefaultInterruptHandler 04F3                      __size_of_lcd_harfyaz 002F  
                 __end_of_TMR1_StartTimer 04F3                                    ___wmul 03B9  
                          __CFG_STVREN$ON 0000                                 ??___lwdiv 0075  
                               ??___lwmod 0079                                    _printf 0029  
                               ??_lcd_git 0079                                 ??_lcd_sil 0078  
                               ??_isdigit 0071                      __end_of_lcd_mesajyaz 03B9  
                         ?_WDT_Initialize 0070                      __end_of_lcd_mesgulmu 04DE  
                            ?_softi2c_kur 0070                              ?_softi2c_yaz 0070  
TMR1_SetInterruptHandler@InterruptHandler 0071                     __end_of_TMR1_CallBack 04AA  
                        ?_TMR1_Initialize 0070                         _SYSTEM_Initialize 0493  
                 __end_of__initialization 0025                        ?_SYSTEM_Initialize 0070  
                          __pcstackCOMMON 0070                       ??_SYSTEM_Initialize 0073  
                               ?_TMR1_ISR 0070             ?_TMR1_DefaultInterruptHandler 0070  
                           __end_of_putch 04D9                            _OPTION_REGbits 0095  
                      __size_of_lcd_komut 002F                 __end_of_SYSTEM_Initialize 049F  
                                 ??_putch 0078                                __pbssBANK0 0040  
                         lcd_harfyaz@harf 0077                            lcd_komut@komut 0077  
                               ?_Sayi_Say 0070                                __pmaintext 0184  
                                 ?___wmul 0071                          ?_TMR1_StartTimer 0070  
                              ??_TMR1_ISR 0070                                __pintentry 0004  
                                 _APFCON0 011D                                   _APFCON1 011E  
                                 ?_printf 0025                                _lcd_baslat 0215  
                                 _OSCTUNE 0098                       _pcf8574_yaz_wEnable 03ED  
                              ??_Sayi_Say 0070                         __end_of_lcd_komut 0344  
                         __size_of___wmul 001B                                   ___lwdiv 02B2  
                                 ___lwmod 0344                     __size_of_lcd_mesajyaz 0020  
                                 __ptext1 04C6                                   __ptext2 0029  
                                 __ptext3 04D4                                   __ptext4 0485  
                   __size_of_lcd_mesgulmu 0005                                   __ptext5 03B9  
                                 __ptext6 0344                                   __ptext7 02B2  
                                 __ptext8 0399                                   __ptext9 02E6  
                                 _lcd_git 0371                           __size_of_printf 015B  
                                 _lcd_sil 04E8            ??_TMR1_DefaultInterruptHandler 0070  
                           ??_pcf8574_yaz 0075                                 _T1CONbits 0018  
                    ?_pcf8574_yaz_wEnable 0070                                   _dpowers 04AA  
                   _OSCILLATOR_Initialize 04E3                                   _isdigit 0485  
       __size_of_TMR1_SetInterruptHandler 0006                  ??_PIN_MANAGER_Initialize 0071  
               ?_TMR1_SetInterruptHandler 0071                __size_of_SYSTEM_Initialize 000C  
                    end_of_initialization 0025                      __size_of_softi2c_kur 0008  
                    __size_of_softi2c_yaz 003B                              _lcd_mesajyaz 0399  
                            _lcd_mesgulmu 04D9                                   printf@c 0036  
                                 printf@f 0025                          ??_WDT_Initialize 0071  
                   ??_pcf8574_yaz_wEnable 0075                               ?_lcd_baslat 0070  
                     __end_of_pcf8574_yaz 0485                               printf@width 0034  
                           ??_lcd_harfyaz 0075                            __end_of___wmul 03D4  
                       __size_of_TMR1_ISR 0017                    ?_OSCILLATOR_Initialize 0070  
                 __size_of_softi2c_baslat 0013                            __end_of_printf 0184  
                 __size_of_softi2c_durdur 0011                       start_initialization 001D  
         __size_of_PIN_MANAGER_Initialize 0017                         _lcd_aydinlatma_ac 04DE  
                      ?_lcd_aydinlatma_ac 0070                       __size_of_lcd_baslat 0062  
                __size_of_TMR1_Initialize 0019                       ??_lcd_aydinlatma_ac 0076  
                                ??___wmul 0075                         __size_of_Sayi_Say 000A  
                     __end_of_lcd_harfyaz 0315                    __size_of_TMR1_CallBack 000B  
                                ??_printf 002B                               _pcf8574_yaz 0476  
                   TMR1_ISR@CountCallBack 0042                               __pbssCOMMON 007C  
                               ___latbits 0001                             __pcstackBANK0 0021  
               __end_of_lcd_aydinlatma_ac 04E3                                 ___timeout 0104  
                               __pnvBANK0 003A                          ___lwdiv@dividend 0073  
                  _PIN_MANAGER_Initialize 0405          __end_of_TMR1_SetInterruptHandler 04D4  
                                ?___lwdiv 0071                                  ?___lwmod 0021  
            ??_INTERRUPT_InterruptManager 0070                                 _lcd_komut 0315  
                                ?_lcd_git 0078                                  ?_lcd_sil 0070  
                __size_of_TMR1_StartTimer 0003                                  ?_isdigit 0070  
                        ___lwdiv@quotient 0076                            __size_of_putch 0005  
                           _TMR1_CallBack 049F                            ___wmul@product 0075  
                                _LATBbits 010D                                  _PIE1bits 0091  
                             _lcd_harfyaz 02E6       __size_of_INTERRUPT_InterruptManager 0014  
                                _PIR1bits 0011                                  _TMR1_ISR 041C  
                              ?_lcd_komut 0070                         ??_TMR1_Initialize 0073  
                          _softi2c_baslat 0433                         ___wmul@multiplier 0071  
                            ??_lcd_baslat 0078                                printf@flag 0033  
                          _softi2c_durdur 0446                                printf@prec 0030  
                           ??_softi2c_kur 0071                             ??_softi2c_yaz 0071  
              __size_of_lcd_aydinlatma_ac 0005                            ?_TMR1_CallBack 0070  
                                _Sayi_Say 04B4                        __end_of_lcd_baslat 0277  
             __end_of_pcf8574_yaz_wEnable 0405                   ??_OSCILLATOR_Initialize 0071  
                  __end_of_softi2c_baslat 0446                          __size_of___lwdiv 0034  
                        __size_of___lwmod 002D                    __end_of_softi2c_durdur 0457  
                _TMR1_SetInterruptHandler 04CE                               _isdigit$825 0071  
                   _TMR1_InterruptHandler 003C                          __size_of_lcd_git 0028  
                        __size_of_lcd_sil 0004                          __size_of_isdigit 000E  
                         ___lwdiv@divisor 0071                           ___lwdiv@counter 0078  
                                __ptext10 0371                                  __ptext11 0215  
                                __ptext20 0433                                  __ptext12 04E8  
                                __ptext21 0493                                  __ptext13 0315  
                              _T1GCONbits 0019                                  __ptext30 049F  
                                __ptext22 04EC                                  __ptext14 03ED  
                                __ptext31 04B4                                  __ptext23 03D4  
                                __ptext15 04D9                                  __ptext32 04F3  
                                __ptext24 04F0                                  __ptext16 04DE  
                                __ptext25 04CE                                  __ptext17 0476  
                                __ptext26 0405                                  __ptext18 0277  
                                __ptext27 04E3                                  __ptext19 0446  
                                __ptext29 041C                         ??_TMR1_StartTimer 0071  
                                _pcf_port 007C                       __end_of_softi2c_kur 04CE  
                     __end_of_softi2c_yaz 02B2                             __size_of_main 0091  
                                int$flags 007E        __end_of_INTERRUPT_InterruptManager 0018  
              _INTERRUPT_InterruptManager 0004                           ?_softi2c_baslat 0070  
                               printf@val 0031                               ??_lcd_komut 0075  
                         ?_softi2c_durdur 0070                              ?_pcf8574_yaz 0070  
                               putch@byte 0078                                _INTCONbits 000B  
                                isdigit@c 0072                           ??_TMR1_CallBack 0070  
                 __size_of_WDT_Initialize 0004                                  intlevel1 0000  
                        ___lwmod@dividend 0023                   ?_PIN_MANAGER_Initialize 0070  
                       __CFG_CLKOUTEN$OFF 0000                                  printf@ap 002F  
                           __pstringtext1 04AA                             __pstringtext2 0457  
                           __pstringtext3 0467                             __pstringtext4 04BE  
                           __pstringtext5 0000                           ___lwmod@divisor 0021  
                         ___lwmod@counter 007A                               _softi2c_kur 04C6  
                             _softi2c_yaz 0277            __end_of_PIN_MANAGER_Initialize 041C  
                            ?_lcd_harfyaz 0070                           _TMR1_Initialize 03D4  
                           ?_lcd_mesajyaz 0021                             ?_lcd_mesgulmu 0070  
