

Microchip Technology PIC LITE Macro Assembler V1.44 build -154322312 
                                                                                               Mon Oct 09 20:37:44 2017

Microchip Technology Omniscient Code Generator v1.44 (Free mode) build 201709140600
     1                           	processor	16F1827
     2                           	opt	pw 120
     3                           	opt	lm
     4                           	psect	idataBANK0,global,class=CODE,delta=2
     5                           	psect	stringtext1,global,class=STRCODE,delta=2
     6                           	psect	stringtext2,global,class=STRCODE,delta=2
     7                           	psect	stringtext3,global,class=STRCODE,delta=2
     8                           	psect	stringtext4,global,class=STRCODE,delta=2
     9                           	psect	stringtext5,global,class=STRCODE,delta=2
    10                           	psect	stringtext6,global,class=STRCODE,delta=2
    11                           	psect	cinit,global,class=CODE,merge=1,delta=2
    12                           	psect	dataBANK0,global,class=BANK0,space=1,delta=1
    13                           	psect	cstackCOMMON,global,class=COMMON,space=1,delta=1
    14                           	psect	cstackBANK0,global,class=BANK0,space=1,delta=1
    15                           	psect	maintext,global,class=CODE,merge=1,split=1,delta=2
    16                           	psect	text1,local,class=CODE,merge=1,delta=2
    17                           	psect	text2,local,class=CODE,merge=1,delta=2
    18                           	psect	text3,local,class=CODE,merge=1,delta=2
    19                           	psect	text4,local,class=CODE,merge=1,delta=2
    20                           	psect	text5,local,class=CODE,merge=1,delta=2
    21                           	psect	text6,local,class=CODE,merge=1,delta=2,group=2
    22                           	psect	text7,local,class=CODE,merge=1,delta=2
    23                           	psect	text8,local,class=CODE,merge=1,delta=2,group=2
    24                           	psect	text9,local,class=CODE,merge=1,delta=2
    25                           	psect	text10,local,class=CODE,merge=1,delta=2
    26                           	psect	text11,local,class=CODE,merge=1,delta=2
    27                           	psect	text12,local,class=CODE,merge=1,delta=2
    28                           	psect	text13,local,class=CODE,merge=1,delta=2
    29                           	psect	text14,local,class=CODE,merge=1,delta=2
    30                           	psect	text15,local,class=CODE,merge=1,delta=2
    31                           	dabs	1,0x7E,2
    32  0000                     
    33                           ; Version 1.44
    34                           ; Generated 14/09/2017 GMT
    35                           ; 
    36                           ; Copyright Â© 2017, Microchip Technology Inc. and its subsidiaries ("Microchip")
    37                           ; All rights reserved.
    38                           ; 
    39                           ; This software is developed by Microchip Technology Inc. and its subsidiaries ("Microch
      +                          ip").
    40                           ; 
    41                           ; Redistribution and use in source and binary forms, with or without modification, are
    42                           ; permitted provided that the following conditions are met:
    43                           ; 
    44                           ;     1. Redistributions of source code must retain the above copyright notice, this lis
      +                          t of
    45                           ;        conditions and the following disclaimer.
    46                           ; 
    47                           ;     2. Redistributions in binary form must reproduce the above copyright notice, this 
      +                          list
    48                           ;        of conditions and the following disclaimer in the documentation and/or other
    49                           ;        materials provided with the distribution.
    50                           ; 
    51                           ;     3. Microchip's name may not be used to endorse or promote products derived from th
      +                          is
    52                           ;        software without specific prior written permission.
    53                           ; 
    54                           ; THIS SOFTWARE IS PROVIDED BY MICROCHIP "AS IS" AND ANY EXPRESS OR IMPLIED WARRANTIES,
    55                           ; INCLUDING, BUT NOT LIMITED TO, THE IMPLIED WARRANTIES OF MERCHANTABILITY AND FITNESS F
      +                          OR
    56                           ; PURPOSE ARE DISCLAIMED.  IN NO EVENT SHALL MICROCHIP BE LIABLE FOR ANY DIRECT, INDIREC
      +                          T,
    57                           ; INCIDENTAL, SPECIAL, EXEMPLARY, OR CONSEQUENTIAL DAMAGES (INCLUDING BUT NOT LIMITED TO
    58                           ; PROCUREMENT OF SUBSTITUTE GOODS OR SERVICES; LOSS OF USE, DATA OR PROFITS; OR BUSINESS
    59                           ; INTERRUPTION) HOWSOEVER CAUSED AND ON ANY THEORY OF LIABILITY, WHETHER IN CONTRACT, ST
      +                          RICT
    60                           ; LIABILITY, OR TORT (INCLUDING NEGLIGENCE OR OTHERWISE) ARISING IN ANY WAY OUT OF THE U
      +                          SE OF
    61                           ; THIS SOFTWARE, EVEN IF ADVISED OF THE POSSIBILITY OF SUCH DAMAGE.
    62                           ; 
    63                           ; 
    64                           ; Code-generator required, PIC16F1827 Definitions
    65                           ; 
    66                           ; SFR Addresses
    67  0000                     	;# 
    68  0001                     	;# 
    69  0002                     	;# 
    70  0003                     	;# 
    71  0004                     	;# 
    72  0005                     	;# 
    73  0006                     	;# 
    74  0007                     	;# 
    75  0008                     	;# 
    76  0009                     	;# 
    77  000A                     	;# 
    78  000B                     	;# 
    79  000C                     	;# 
    80  000D                     	;# 
    81  0011                     	;# 
    82  0012                     	;# 
    83  0013                     	;# 
    84  0014                     	;# 
    85  0015                     	;# 
    86  0016                     	;# 
    87  0016                     	;# 
    88  0017                     	;# 
    89  0018                     	;# 
    90  0019                     	;# 
    91  001A                     	;# 
    92  001B                     	;# 
    93  001C                     	;# 
    94  001E                     	;# 
    95  001F                     	;# 
    96  008C                     	;# 
    97  008D                     	;# 
    98  0091                     	;# 
    99  0092                     	;# 
   100  0093                     	;# 
   101  0094                     	;# 
   102  0095                     	;# 
   103  0096                     	;# 
   104  0097                     	;# 
   105  0098                     	;# 
   106  0099                     	;# 
   107  009A                     	;# 
   108  009B                     	;# 
   109  009B                     	;# 
   110  009C                     	;# 
   111  009D                     	;# 
   112  009E                     	;# 
   113  010C                     	;# 
   114  010D                     	;# 
   115  0111                     	;# 
   116  0112                     	;# 
   117  0113                     	;# 
   118  0114                     	;# 
   119  0115                     	;# 
   120  0116                     	;# 
   121  0117                     	;# 
   122  0118                     	;# 
   123  0119                     	;# 
   124  011A                     	;# 
   125  011B                     	;# 
   126  011D                     	;# 
   127  011E                     	;# 
   128  018C                     	;# 
   129  018D                     	;# 
   130  0191                     	;# 
   131  0191                     	;# 
   132  0192                     	;# 
   133  0193                     	;# 
   134  0193                     	;# 
   135  0193                     	;# 
   136  0194                     	;# 
   137  0195                     	;# 
   138  0196                     	;# 
   139  0199                     	;# 
   140  019A                     	;# 
   141  019B                     	;# 
   142  019B                     	;# 
   143  019B                     	;# 
   144  019B                     	;# 
   145  019C                     	;# 
   146  019C                     	;# 
   147  019D                     	;# 
   148  019E                     	;# 
   149  019F                     	;# 
   150  020C                     	;# 
   151  020D                     	;# 
   152  0211                     	;# 
   153  0211                     	;# 
   154  0212                     	;# 
   155  0212                     	;# 
   156  0213                     	;# 
   157  0213                     	;# 
   158  0214                     	;# 
   159  0214                     	;# 
   160  0215                     	;# 
   161  0215                     	;# 
   162  0215                     	;# 
   163  0216                     	;# 
   164  0216                     	;# 
   165  0217                     	;# 
   166  0217                     	;# 
   167  0219                     	;# 
   168  021A                     	;# 
   169  021B                     	;# 
   170  021C                     	;# 
   171  021D                     	;# 
   172  021E                     	;# 
   173  021F                     	;# 
   174  0291                     	;# 
   175  0291                     	;# 
   176  0292                     	;# 
   177  0293                     	;# 
   178  0294                     	;# 
   179  0295                     	;# 
   180  0295                     	;# 
   181  0296                     	;# 
   182  0298                     	;# 
   183  0298                     	;# 
   184  0299                     	;# 
   185  029A                     	;# 
   186  029B                     	;# 
   187  029C                     	;# 
   188  029C                     	;# 
   189  029D                     	;# 
   190  029E                     	;# 
   191  029E                     	;# 
   192  0311                     	;# 
   193  0311                     	;# 
   194  0312                     	;# 
   195  0313                     	;# 
   196  0318                     	;# 
   197  0318                     	;# 
   198  0319                     	;# 
   199  031A                     	;# 
   200  0394                     	;# 
   201  0395                     	;# 
   202  0396                     	;# 
   203  039A                     	;# 
   204  039C                     	;# 
   205  039D                     	;# 
   206  039E                     	;# 
   207  039F                     	;# 
   208  0415                     	;# 
   209  0416                     	;# 
   210  0417                     	;# 
   211  041C                     	;# 
   212  041D                     	;# 
   213  041E                     	;# 
   214  0FE4                     	;# 
   215  0FE5                     	;# 
   216  0FE6                     	;# 
   217  0FE7                     	;# 
   218  0FE8                     	;# 
   219  0FE9                     	;# 
   220  0FEA                     	;# 
   221  0FEB                     	;# 
   222  0FED                     	;# 
   223  0FEE                     	;# 
   224  0FEF                     	;# 
   225  0000                     	;# 
   226  0001                     	;# 
   227  0002                     	;# 
   228  0003                     	;# 
   229  0004                     	;# 
   230  0005                     	;# 
   231  0006                     	;# 
   232  0007                     	;# 
   233  0008                     	;# 
   234  0009                     	;# 
   235  000A                     	;# 
   236  000B                     	;# 
   237  000C                     	;# 
   238  000D                     	;# 
   239  0011                     	;# 
   240  0012                     	;# 
   241  0013                     	;# 
   242  0014                     	;# 
   243  0015                     	;# 
   244  0016                     	;# 
   245  0016                     	;# 
   246  0017                     	;# 
   247  0018                     	;# 
   248  0019                     	;# 
   249  001A                     	;# 
   250  001B                     	;# 
   251  001C                     	;# 
   252  001E                     	;# 
   253  001F                     	;# 
   254  008C                     	;# 
   255  008D                     	;# 
   256  0091                     	;# 
   257  0092                     	;# 
   258  0093                     	;# 
   259  0094                     	;# 
   260  0095                     	;# 
   261  0096                     	;# 
   262  0097                     	;# 
   263  0098                     	;# 
   264  0099                     	;# 
   265  009A                     	;# 
   266  009B                     	;# 
   267  009B                     	;# 
   268  009C                     	;# 
   269  009D                     	;# 
   270  009E                     	;# 
   271  010C                     	;# 
   272  010D                     	;# 
   273  0111                     	;# 
   274  0112                     	;# 
   275  0113                     	;# 
   276  0114                     	;# 
   277  0115                     	;# 
   278  0116                     	;# 
   279  0117                     	;# 
   280  0118                     	;# 
   281  0119                     	;# 
   282  011A                     	;# 
   283  011B                     	;# 
   284  011D                     	;# 
   285  011E                     	;# 
   286  018C                     	;# 
   287  018D                     	;# 
   288  0191                     	;# 
   289  0191                     	;# 
   290  0192                     	;# 
   291  0193                     	;# 
   292  0193                     	;# 
   293  0193                     	;# 
   294  0194                     	;# 
   295  0195                     	;# 
   296  0196                     	;# 
   297  0199                     	;# 
   298  019A                     	;# 
   299  019B                     	;# 
   300  019B                     	;# 
   301  019B                     	;# 
   302  019B                     	;# 
   303  019C                     	;# 
   304  019C                     	;# 
   305  019D                     	;# 
   306  019E                     	;# 
   307  019F                     	;# 
   308  020C                     	;# 
   309  020D                     	;# 
   310  0211                     	;# 
   311  0211                     	;# 
   312  0212                     	;# 
   313  0212                     	;# 
   314  0213                     	;# 
   315  0213                     	;# 
   316  0214                     	;# 
   317  0214                     	;# 
   318  0215                     	;# 
   319  0215                     	;# 
   320  0215                     	;# 
   321  0216                     	;# 
   322  0216                     	;# 
   323  0217                     	;# 
   324  0217                     	;# 
   325  0219                     	;# 
   326  021A                     	;# 
   327  021B                     	;# 
   328  021C                     	;# 
   329  021D                     	;# 
   330  021E                     	;# 
   331  021F                     	;# 
   332  0291                     	;# 
   333  0291                     	;# 
   334  0292                     	;# 
   335  0293                     	;# 
   336  0294                     	;# 
   337  0295                     	;# 
   338  0295                     	;# 
   339  0296                     	;# 
   340  0298                     	;# 
   341  0298                     	;# 
   342  0299                     	;# 
   343  029A                     	;# 
   344  029B                     	;# 
   345  029C                     	;# 
   346  029C                     	;# 
   347  029D                     	;# 
   348  029E                     	;# 
   349  029E                     	;# 
   350  0311                     	;# 
   351  0311                     	;# 
   352  0312                     	;# 
   353  0313                     	;# 
   354  0318                     	;# 
   355  0318                     	;# 
   356  0319                     	;# 
   357  031A                     	;# 
   358  0394                     	;# 
   359  0395                     	;# 
   360  0396                     	;# 
   361  039A                     	;# 
   362  039C                     	;# 
   363  039D                     	;# 
   364  039E                     	;# 
   365  039F                     	;# 
   366  0415                     	;# 
   367  0416                     	;# 
   368  0417                     	;# 
   369  041C                     	;# 
   370  041D                     	;# 
   371  041E                     	;# 
   372  0FE4                     	;# 
   373  0FE5                     	;# 
   374  0FE6                     	;# 
   375  0FE7                     	;# 
   376  0FE8                     	;# 
   377  0FE9                     	;# 
   378  0FEA                     	;# 
   379  0FEB                     	;# 
   380  0FED                     	;# 
   381  0FEE                     	;# 
   382  0FEF                     	;# 
   383  0000                     	;# 
   384  0001                     	;# 
   385  0002                     	;# 
   386  0003                     	;# 
   387  0004                     	;# 
   388  0005                     	;# 
   389  0006                     	;# 
   390  0007                     	;# 
   391  0008                     	;# 
   392  0009                     	;# 
   393  000A                     	;# 
   394  000B                     	;# 
   395  000C                     	;# 
   396  000D                     	;# 
   397  0011                     	;# 
   398  0012                     	;# 
   399  0013                     	;# 
   400  0014                     	;# 
   401  0015                     	;# 
   402  0016                     	;# 
   403  0016                     	;# 
   404  0017                     	;# 
   405  0018                     	;# 
   406  0019                     	;# 
   407  001A                     	;# 
   408  001B                     	;# 
   409  001C                     	;# 
   410  001E                     	;# 
   411  001F                     	;# 
   412  008C                     	;# 
   413  008D                     	;# 
   414  0091                     	;# 
   415  0092                     	;# 
   416  0093                     	;# 
   417  0094                     	;# 
   418  0095                     	;# 
   419  0096                     	;# 
   420  0097                     	;# 
   421  0098                     	;# 
   422  0099                     	;# 
   423  009A                     	;# 
   424  009B                     	;# 
   425  009B                     	;# 
   426  009C                     	;# 
   427  009D                     	;# 
   428  009E                     	;# 
   429  010C                     	;# 
   430  010D                     	;# 
   431  0111                     	;# 
   432  0112                     	;# 
   433  0113                     	;# 
   434  0114                     	;# 
   435  0115                     	;# 
   436  0116                     	;# 
   437  0117                     	;# 
   438  0118                     	;# 
   439  0119                     	;# 
   440  011A                     	;# 
   441  011B                     	;# 
   442  011D                     	;# 
   443  011E                     	;# 
   444  018C                     	;# 
   445  018D                     	;# 
   446  0191                     	;# 
   447  0191                     	;# 
   448  0192                     	;# 
   449  0193                     	;# 
   450  0193                     	;# 
   451  0193                     	;# 
   452  0194                     	;# 
   453  0195                     	;# 
   454  0196                     	;# 
   455  0199                     	;# 
   456  019A                     	;# 
   457  019B                     	;# 
   458  019B                     	;# 
   459  019B                     	;# 
   460  019B                     	;# 
   461  019C                     	;# 
   462  019C                     	;# 
   463  019D                     	;# 
   464  019E                     	;# 
   465  019F                     	;# 
   466  020C                     	;# 
   467  020D                     	;# 
   468  0211                     	;# 
   469  0211                     	;# 
   470  0212                     	;# 
   471  0212                     	;# 
   472  0213                     	;# 
   473  0213                     	;# 
   474  0214                     	;# 
   475  0214                     	;# 
   476  0215                     	;# 
   477  0215                     	;# 
   478  0215                     	;# 
   479  0216                     	;# 
   480  0216                     	;# 
   481  0217                     	;# 
   482  0217                     	;# 
   483  0219                     	;# 
   484  021A                     	;# 
   485  021B                     	;# 
   486  021C                     	;# 
   487  021D                     	;# 
   488  021E                     	;# 
   489  021F                     	;# 
   490  0291                     	;# 
   491  0291                     	;# 
   492  0292                     	;# 
   493  0293                     	;# 
   494  0294                     	;# 
   495  0295                     	;# 
   496  0295                     	;# 
   497  0296                     	;# 
   498  0298                     	;# 
   499  0298                     	;# 
   500  0299                     	;# 
   501  029A                     	;# 
   502  029B                     	;# 
   503  029C                     	;# 
   504  029C                     	;# 
   505  029D                     	;# 
   506  029E                     	;# 
   507  029E                     	;# 
   508  0311                     	;# 
   509  0311                     	;# 
   510  0312                     	;# 
   511  0313                     	;# 
   512  0318                     	;# 
   513  0318                     	;# 
   514  0319                     	;# 
   515  031A                     	;# 
   516  0394                     	;# 
   517  0395                     	;# 
   518  0396                     	;# 
   519  039A                     	;# 
   520  039C                     	;# 
   521  039D                     	;# 
   522  039E                     	;# 
   523  039F                     	;# 
   524  0415                     	;# 
   525  0416                     	;# 
   526  0417                     	;# 
   527  041C                     	;# 
   528  041D                     	;# 
   529  041E                     	;# 
   530  0FE4                     	;# 
   531  0FE5                     	;# 
   532  0FE6                     	;# 
   533  0FE7                     	;# 
   534  0FE8                     	;# 
   535  0FE9                     	;# 
   536  0FEA                     	;# 
   537  0FEB                     	;# 
   538  0FED                     	;# 
   539  0FEE                     	;# 
   540  0FEF                     	;# 
   541  0000                     	;# 
   542  0001                     	;# 
   543  0002                     	;# 
   544  0003                     	;# 
   545  0004                     	;# 
   546  0005                     	;# 
   547  0006                     	;# 
   548  0007                     	;# 
   549  0008                     	;# 
   550  0009                     	;# 
   551  000A                     	;# 
   552  000B                     	;# 
   553  000C                     	;# 
   554  000D                     	;# 
   555  0011                     	;# 
   556  0012                     	;# 
   557  0013                     	;# 
   558  0014                     	;# 
   559  0015                     	;# 
   560  0016                     	;# 
   561  0016                     	;# 
   562  0017                     	;# 
   563  0018                     	;# 
   564  0019                     	;# 
   565  001A                     	;# 
   566  001B                     	;# 
   567  001C                     	;# 
   568  001E                     	;# 
   569  001F                     	;# 
   570  008C                     	;# 
   571  008D                     	;# 
   572  0091                     	;# 
   573  0092                     	;# 
   574  0093                     	;# 
   575  0094                     	;# 
   576  0095                     	;# 
   577  0096                     	;# 
   578  0097                     	;# 
   579  0098                     	;# 
   580  0099                     	;# 
   581  009A                     	;# 
   582  009B                     	;# 
   583  009B                     	;# 
   584  009C                     	;# 
   585  009D                     	;# 
   586  009E                     	;# 
   587  010C                     	;# 
   588  010D                     	;# 
   589  0111                     	;# 
   590  0112                     	;# 
   591  0113                     	;# 
   592  0114                     	;# 
   593  0115                     	;# 
   594  0116                     	;# 
   595  0117                     	;# 
   596  0118                     	;# 
   597  0119                     	;# 
   598  011A                     	;# 
   599  011B                     	;# 
   600  011D                     	;# 
   601  011E                     	;# 
   602  018C                     	;# 
   603  018D                     	;# 
   604  0191                     	;# 
   605  0191                     	;# 
   606  0192                     	;# 
   607  0193                     	;# 
   608  0193                     	;# 
   609  0193                     	;# 
   610  0194                     	;# 
   611  0195                     	;# 
   612  0196                     	;# 
   613  0199                     	;# 
   614  019A                     	;# 
   615  019B                     	;# 
   616  019B                     	;# 
   617  019B                     	;# 
   618  019B                     	;# 
   619  019C                     	;# 
   620  019C                     	;# 
   621  019D                     	;# 
   622  019E                     	;# 
   623  019F                     	;# 
   624  020C                     	;# 
   625  020D                     	;# 
   626  0211                     	;# 
   627  0211                     	;# 
   628  0212                     	;# 
   629  0212                     	;# 
   630  0213                     	;# 
   631  0213                     	;# 
   632  0214                     	;# 
   633  0214                     	;# 
   634  0215                     	;# 
   635  0215                     	;# 
   636  0215                     	;# 
   637  0216                     	;# 
   638  0216                     	;# 
   639  0217                     	;# 
   640  0217                     	;# 
   641  0219                     	;# 
   642  021A                     	;# 
   643  021B                     	;# 
   644  021C                     	;# 
   645  021D                     	;# 
   646  021E                     	;# 
   647  021F                     	;# 
   648  0291                     	;# 
   649  0291                     	;# 
   650  0292                     	;# 
   651  0293                     	;# 
   652  0294                     	;# 
   653  0295                     	;# 
   654  0295                     	;# 
   655  0296                     	;# 
   656  0298                     	;# 
   657  0298                     	;# 
   658  0299                     	;# 
   659  029A                     	;# 
   660  029B                     	;# 
   661  029C                     	;# 
   662  029C                     	;# 
   663  029D                     	;# 
   664  029E                     	;# 
   665  029E                     	;# 
   666  0311                     	;# 
   667  0311                     	;# 
   668  0312                     	;# 
   669  0313                     	;# 
   670  0318                     	;# 
   671  0318                     	;# 
   672  0319                     	;# 
   673  031A                     	;# 
   674  0394                     	;# 
   675  0395                     	;# 
   676  0396                     	;# 
   677  039A                     	;# 
   678  039C                     	;# 
   679  039D                     	;# 
   680  039E                     	;# 
   681  039F                     	;# 
   682  0415                     	;# 
   683  0416                     	;# 
   684  0417                     	;# 
   685  041C                     	;# 
   686  041D                     	;# 
   687  041E                     	;# 
   688  0FE4                     	;# 
   689  0FE5                     	;# 
   690  0FE6                     	;# 
   691  0FE7                     	;# 
   692  0FE8                     	;# 
   693  0FE9                     	;# 
   694  0FEA                     	;# 
   695  0FEB                     	;# 
   696  0FED                     	;# 
   697  0FEE                     	;# 
   698  0FEF                     	;# 
   699                           
   700                           	psect	idataBANK0
   701  058B                     __pidataBANK0:	
   702                           
   703                           ;initializer for _lcd_kontrast
   704  058B  34B1               	retlw	177
   705                           
   706                           	psect	stringtext1
   707  0800                     __pstringtext1:	
   708  0800                     _harftablo:	
   709  0800  3400               	retlw	0
   710  0801  3400               	retlw	0
   711  0802  3400               	retlw	0
   712  0803  3400               	retlw	0
   713  0804  3400               	retlw	0
   714  0805  3400               	retlw	0
   715  0806  3400               	retlw	0
   716  0807  345F               	retlw	95
   717  0808  3400               	retlw	0
   718  0809  3400               	retlw	0
   719  080A  3400               	retlw	0
   720  080B  3403               	retlw	3
   721  080C  3400               	retlw	0
   722  080D  3403               	retlw	3
   723  080E  3400               	retlw	0
   724  080F  3414               	retlw	20
   725  0810  343E               	retlw	62
   726  0811  3414               	retlw	20
   727  0812  343E               	retlw	62
   728  0813  3414               	retlw	20
   729  0814  3424               	retlw	36
   730  0815  342A               	retlw	42
   731  0816  347F               	retlw	127
   732  0817  342A               	retlw	42
   733  0818  3412               	retlw	18
   734  0819  3443               	retlw	67
   735  081A  3433               	retlw	51
   736  081B  3408               	retlw	8
   737  081C  3466               	retlw	102
   738  081D  3461               	retlw	97
   739  081E  3436               	retlw	54
   740  081F  3449               	retlw	73
   741  0820  3455               	retlw	85
   742  0821  3422               	retlw	34
   743  0822  3450               	retlw	80
   744  0823  3400               	retlw	0
   745  0824  3405               	retlw	5
   746  0825  3403               	retlw	3
   747  0826  3400               	retlw	0
   748  0827  3400               	retlw	0
   749  0828  3400               	retlw	0
   750  0829  341C               	retlw	28
   751  082A  3422               	retlw	34
   752  082B  3441               	retlw	65
   753  082C  3400               	retlw	0
   754  082D  3400               	retlw	0
   755  082E  3441               	retlw	65
   756  082F  3422               	retlw	34
   757  0830  341C               	retlw	28
   758  0831  3400               	retlw	0
   759  0832  3414               	retlw	20
   760  0833  3408               	retlw	8
   761  0834  343E               	retlw	62
   762  0835  3408               	retlw	8
   763  0836  3414               	retlw	20
   764  0837  3408               	retlw	8
   765  0838  3408               	retlw	8
   766  0839  343E               	retlw	62
   767  083A  3408               	retlw	8
   768  083B  3408               	retlw	8
   769  083C  3400               	retlw	0
   770  083D  3450               	retlw	80
   771  083E  3430               	retlw	48
   772  083F  3400               	retlw	0
   773  0840  3400               	retlw	0
   774  0841  3408               	retlw	8
   775  0842  3408               	retlw	8
   776  0843  3408               	retlw	8
   777  0844  3408               	retlw	8
   778  0845  3408               	retlw	8
   779  0846  3400               	retlw	0
   780  0847  3460               	retlw	96
   781  0848  3460               	retlw	96
   782  0849  3400               	retlw	0
   783  084A  3400               	retlw	0
   784  084B  3420               	retlw	32
   785  084C  3410               	retlw	16
   786  084D  3408               	retlw	8
   787  084E  3404               	retlw	4
   788  084F  3402               	retlw	2
   789  0850  343E               	retlw	62
   790  0851  3451               	retlw	81
   791  0852  3449               	retlw	73
   792  0853  3445               	retlw	69
   793  0854  343E               	retlw	62
   794  0855  3404               	retlw	4
   795  0856  3402               	retlw	2
   796  0857  347F               	retlw	127
   797  0858  3400               	retlw	0
   798  0859  3400               	retlw	0
   799  085A  3442               	retlw	66
   800  085B  3461               	retlw	97
   801  085C  3451               	retlw	81
   802  085D  3449               	retlw	73
   803  085E  3446               	retlw	70
   804  085F  3422               	retlw	34
   805  0860  3441               	retlw	65
   806  0861  3449               	retlw	73
   807  0862  3449               	retlw	73
   808  0863  3436               	retlw	54
   809  0864  3418               	retlw	24
   810  0865  3414               	retlw	20
   811  0866  3412               	retlw	18
   812  0867  347F               	retlw	127
   813  0868  3410               	retlw	16
   814  0869  3427               	retlw	39
   815  086A  3445               	retlw	69
   816  086B  3445               	retlw	69
   817  086C  3445               	retlw	69
   818  086D  3439               	retlw	57
   819  086E  343E               	retlw	62
   820  086F  3449               	retlw	73
   821  0870  3449               	retlw	73
   822  0871  3449               	retlw	73
   823  0872  3432               	retlw	50
   824  0873  3401               	retlw	1
   825  0874  3401               	retlw	1
   826  0875  3471               	retlw	113
   827  0876  3409               	retlw	9
   828  0877  3407               	retlw	7
   829  0878  3436               	retlw	54
   830  0879  3449               	retlw	73
   831  087A  3449               	retlw	73
   832  087B  3449               	retlw	73
   833  087C  3436               	retlw	54
   834  087D  3426               	retlw	38
   835  087E  3449               	retlw	73
   836  087F  3449               	retlw	73
   837  0880  3449               	retlw	73
   838  0881  343E               	retlw	62
   839  0882  3400               	retlw	0
   840  0883  3436               	retlw	54
   841  0884  3436               	retlw	54
   842  0885  3400               	retlw	0
   843  0886  3400               	retlw	0
   844  0887  3400               	retlw	0
   845  0888  3456               	retlw	86
   846  0889  3436               	retlw	54
   847  088A  3400               	retlw	0
   848  088B  3400               	retlw	0
   849  088C  3408               	retlw	8
   850  088D  3414               	retlw	20
   851  088E  3422               	retlw	34
   852  088F  3441               	retlw	65
   853  0890  3400               	retlw	0
   854  0891  3414               	retlw	20
   855  0892  3414               	retlw	20
   856  0893  3414               	retlw	20
   857  0894  3414               	retlw	20
   858  0895  3414               	retlw	20
   859  0896  3400               	retlw	0
   860  0897  3441               	retlw	65
   861  0898  3422               	retlw	34
   862  0899  3414               	retlw	20
   863  089A  3408               	retlw	8
   864  089B  3402               	retlw	2
   865  089C  3401               	retlw	1
   866  089D  3451               	retlw	81
   867  089E  3409               	retlw	9
   868  089F  3406               	retlw	6
   869  08A0  343E               	retlw	62
   870  08A1  3441               	retlw	65
   871  08A2  3459               	retlw	89
   872  08A3  3455               	retlw	85
   873  08A4  345E               	retlw	94
   874  08A5  347E               	retlw	126
   875  08A6  3409               	retlw	9
   876  08A7  3409               	retlw	9
   877  08A8  3409               	retlw	9
   878  08A9  347E               	retlw	126
   879  08AA  347F               	retlw	127
   880  08AB  3449               	retlw	73
   881  08AC  3449               	retlw	73
   882  08AD  3449               	retlw	73
   883  08AE  3436               	retlw	54
   884  08AF  343E               	retlw	62
   885  08B0  3441               	retlw	65
   886  08B1  3441               	retlw	65
   887  08B2  3441               	retlw	65
   888  08B3  3422               	retlw	34
   889  08B4  347F               	retlw	127
   890  08B5  3441               	retlw	65
   891  08B6  3441               	retlw	65
   892  08B7  3441               	retlw	65
   893  08B8  343E               	retlw	62
   894  08B9  347F               	retlw	127
   895  08BA  3449               	retlw	73
   896  08BB  3449               	retlw	73
   897  08BC  3449               	retlw	73
   898  08BD  3441               	retlw	65
   899  08BE  347F               	retlw	127
   900  08BF  3409               	retlw	9
   901  08C0  3409               	retlw	9
   902  08C1  3409               	retlw	9
   903  08C2  3401               	retlw	1
   904  08C3  343E               	retlw	62
   905  08C4  3441               	retlw	65
   906  08C5  3441               	retlw	65
   907  08C6  3449               	retlw	73
   908  08C7  343A               	retlw	58
   909  08C8  347F               	retlw	127
   910  08C9  3408               	retlw	8
   911  08CA  3408               	retlw	8
   912  08CB  3408               	retlw	8
   913  08CC  347F               	retlw	127
   914  08CD  3400               	retlw	0
   915  08CE  3441               	retlw	65
   916  08CF  347F               	retlw	127
   917  08D0  3441               	retlw	65
   918  08D1  3400               	retlw	0
   919  08D2  3430               	retlw	48
   920  08D3  3440               	retlw	64
   921  08D4  3440               	retlw	64
   922  08D5  3440               	retlw	64
   923  08D6  343F               	retlw	63
   924  08D7  347F               	retlw	127
   925  08D8  3408               	retlw	8
   926  08D9  3414               	retlw	20
   927  08DA  3422               	retlw	34
   928  08DB  3441               	retlw	65
   929  08DC  347F               	retlw	127
   930  08DD  3440               	retlw	64
   931  08DE  3440               	retlw	64
   932  08DF  3440               	retlw	64
   933  08E0  3440               	retlw	64
   934  08E1  347F               	retlw	127
   935  08E2  3402               	retlw	2
   936  08E3  340C               	retlw	12
   937  08E4  3402               	retlw	2
   938  08E5  347F               	retlw	127
   939  08E6  347F               	retlw	127
   940  08E7  3402               	retlw	2
   941  08E8  3404               	retlw	4
   942  08E9  3408               	retlw	8
   943  08EA  347F               	retlw	127
   944  08EB  343E               	retlw	62
   945  08EC  3441               	retlw	65
   946  08ED  3441               	retlw	65
   947  08EE  3441               	retlw	65
   948  08EF  343E               	retlw	62
   949  08F0  347F               	retlw	127
   950  08F1  3409               	retlw	9
   951  08F2  3409               	retlw	9
   952  08F3  3409               	retlw	9
   953  08F4  3406               	retlw	6
   954  08F5  341E               	retlw	30
   955  08F6  3421               	retlw	33
   956  08F7  3421               	retlw	33
   957  08F8  3421               	retlw	33
   958  08F9  345E               	retlw	94
   959  08FA  347F               	retlw	127
   960  08FB  3409               	retlw	9
   961  08FC  3409               	retlw	9
   962  08FD  3409               	retlw	9
   963  08FE  3476               	retlw	118
   964  08FF  3426               	retlw	38
   965  0900  3449               	retlw	73
   966  0901  3449               	retlw	73
   967  0902  3449               	retlw	73
   968  0903  3432               	retlw	50
   969  0904  3401               	retlw	1
   970  0905  3401               	retlw	1
   971  0906  347F               	retlw	127
   972  0907  3401               	retlw	1
   973  0908  3401               	retlw	1
   974  0909  343F               	retlw	63
   975  090A  3440               	retlw	64
   976  090B  3440               	retlw	64
   977  090C  3440               	retlw	64
   978  090D  343F               	retlw	63
   979  090E  341F               	retlw	31
   980  090F  3420               	retlw	32
   981  0910  3440               	retlw	64
   982  0911  3420               	retlw	32
   983  0912  341F               	retlw	31
   984  0913  347F               	retlw	127
   985  0914  3420               	retlw	32
   986  0915  3410               	retlw	16
   987  0916  3420               	retlw	32
   988  0917  347F               	retlw	127
   989  0918  3441               	retlw	65
   990  0919  3422               	retlw	34
   991  091A  341C               	retlw	28
   992  091B  3422               	retlw	34
   993  091C  3441               	retlw	65
   994  091D  3407               	retlw	7
   995  091E  3408               	retlw	8
   996  091F  3470               	retlw	112
   997  0920  3408               	retlw	8
   998  0921  3407               	retlw	7
   999  0922  3461               	retlw	97
  1000  0923  3451               	retlw	81
  1001  0924  3449               	retlw	73
  1002  0925  3445               	retlw	69
  1003  0926  3443               	retlw	67
  1004  0927  3400               	retlw	0
  1005  0928  347F               	retlw	127
  1006  0929  3441               	retlw	65
  1007  092A  3400               	retlw	0
  1008  092B  3400               	retlw	0
  1009  092C  3402               	retlw	2
  1010  092D  3404               	retlw	4
  1011  092E  3408               	retlw	8
  1012  092F  3410               	retlw	16
  1013  0930  3420               	retlw	32
  1014  0931  3400               	retlw	0
  1015  0932  3400               	retlw	0
  1016  0933  3441               	retlw	65
  1017  0934  347F               	retlw	127
  1018  0935  3400               	retlw	0
  1019  0936  3404               	retlw	4
  1020  0937  3402               	retlw	2
  1021  0938  3401               	retlw	1
  1022  0939  3402               	retlw	2
  1023  093A  3404               	retlw	4
  1024  093B  3440               	retlw	64
  1025  093C  3440               	retlw	64
  1026  093D  3440               	retlw	64
  1027  093E  3440               	retlw	64
  1028  093F  3440               	retlw	64
  1029  0940  3400               	retlw	0
  1030  0941  3401               	retlw	1
  1031  0942  3402               	retlw	2
  1032  0943  3404               	retlw	4
  1033  0944  3400               	retlw	0
  1034  0945  3420               	retlw	32
  1035  0946  3454               	retlw	84
  1036  0947  3454               	retlw	84
  1037  0948  3454               	retlw	84
  1038  0949  3478               	retlw	120
  1039  094A  347F               	retlw	127
  1040  094B  3444               	retlw	68
  1041  094C  3444               	retlw	68
  1042  094D  3444               	retlw	68
  1043  094E  3438               	retlw	56
  1044  094F  3438               	retlw	56
  1045  0950  3444               	retlw	68
  1046  0951  3444               	retlw	68
  1047  0952  3444               	retlw	68
  1048  0953  3444               	retlw	68
  1049  0954  3438               	retlw	56
  1050  0955  3444               	retlw	68
  1051  0956  3444               	retlw	68
  1052  0957  3444               	retlw	68
  1053  0958  347F               	retlw	127
  1054  0959  3438               	retlw	56
  1055  095A  3454               	retlw	84
  1056  095B  3454               	retlw	84
  1057  095C  3454               	retlw	84
  1058  095D  3418               	retlw	24
  1059  095E  3404               	retlw	4
  1060  095F  3404               	retlw	4
  1061  0960  347E               	retlw	126
  1062  0961  3405               	retlw	5
  1063  0962  3405               	retlw	5
  1064  0963  3408               	retlw	8
  1065  0964  3454               	retlw	84
  1066  0965  3454               	retlw	84
  1067  0966  3454               	retlw	84
  1068  0967  343C               	retlw	60
  1069  0968  347F               	retlw	127
  1070  0969  3408               	retlw	8
  1071  096A  3404               	retlw	4
  1072  096B  3404               	retlw	4
  1073  096C  3478               	retlw	120
  1074  096D  3400               	retlw	0
  1075  096E  3444               	retlw	68
  1076  096F  347D               	retlw	125
  1077  0970  3440               	retlw	64
  1078  0971  3400               	retlw	0
  1079  0972  3420               	retlw	32
  1080  0973  3440               	retlw	64
  1081  0974  3444               	retlw	68
  1082  0975  343D               	retlw	61
  1083  0976  3400               	retlw	0
  1084  0977  347F               	retlw	127
  1085  0978  3410               	retlw	16
  1086  0979  3428               	retlw	40
  1087  097A  3444               	retlw	68
  1088  097B  3400               	retlw	0
  1089  097C  3400               	retlw	0
  1090  097D  3441               	retlw	65
  1091  097E  347F               	retlw	127
  1092  097F  3440               	retlw	64
  1093  0980  3400               	retlw	0
  1094  0981  347C               	retlw	124
  1095  0982  3404               	retlw	4
  1096  0983  3478               	retlw	120
  1097  0984  3404               	retlw	4
  1098  0985  3478               	retlw	120
  1099  0986  347C               	retlw	124
  1100  0987  3408               	retlw	8
  1101  0988  3404               	retlw	4
  1102  0989  3404               	retlw	4
  1103  098A  3478               	retlw	120
  1104  098B  3438               	retlw	56
  1105  098C  3444               	retlw	68
  1106  098D  3444               	retlw	68
  1107  098E  3444               	retlw	68
  1108  098F  3438               	retlw	56
  1109  0990  347C               	retlw	124
  1110  0991  3414               	retlw	20
  1111  0992  3414               	retlw	20
  1112  0993  3414               	retlw	20
  1113  0994  3408               	retlw	8
  1114  0995  3408               	retlw	8
  1115  0996  3414               	retlw	20
  1116  0997  3414               	retlw	20
  1117  0998  3414               	retlw	20
  1118  0999  347C               	retlw	124
  1119  099A  3400               	retlw	0
  1120  099B  347C               	retlw	124
  1121  099C  3408               	retlw	8
  1122  099D  3404               	retlw	4
  1123  099E  3404               	retlw	4
  1124  099F  3448               	retlw	72
  1125  09A0  3454               	retlw	84
  1126  09A1  3454               	retlw	84
  1127  09A2  3454               	retlw	84
  1128  09A3  3420               	retlw	32
  1129  09A4  3404               	retlw	4
  1130  09A5  3404               	retlw	4
  1131  09A6  343F               	retlw	63
  1132  09A7  3444               	retlw	68
  1133  09A8  3444               	retlw	68
  1134  09A9  343C               	retlw	60
  1135  09AA  3440               	retlw	64
  1136  09AB  3440               	retlw	64
  1137  09AC  3420               	retlw	32
  1138  09AD  347C               	retlw	124
  1139  09AE  341C               	retlw	28
  1140  09AF  3420               	retlw	32
  1141  09B0  3440               	retlw	64
  1142  09B1  3420               	retlw	32
  1143  09B2  341C               	retlw	28
  1144  09B3  343C               	retlw	60
  1145  09B4  3440               	retlw	64
  1146  09B5  3430               	retlw	48
  1147  09B6  3440               	retlw	64
  1148  09B7  343C               	retlw	60
  1149  09B8  3444               	retlw	68
  1150  09B9  3428               	retlw	40
  1151  09BA  3410               	retlw	16
  1152  09BB  3428               	retlw	40
  1153  09BC  3444               	retlw	68
  1154  09BD  340C               	retlw	12
  1155  09BE  3450               	retlw	80
  1156  09BF  3450               	retlw	80
  1157  09C0  3450               	retlw	80
  1158  09C1  343C               	retlw	60
  1159  09C2  3444               	retlw	68
  1160  09C3  3464               	retlw	100
  1161  09C4  3454               	retlw	84
  1162  09C5  344C               	retlw	76
  1163  09C6  3444               	retlw	68
  1164  09C7  3400               	retlw	0
  1165  09C8  3408               	retlw	8
  1166  09C9  3436               	retlw	54
  1167  09CA  3441               	retlw	65
  1168  09CB  3441               	retlw	65
  1169  09CC  3400               	retlw	0
  1170  09CD  3400               	retlw	0
  1171  09CE  347F               	retlw	127
  1172  09CF  3400               	retlw	0
  1173  09D0  3400               	retlw	0
  1174  09D1  3441               	retlw	65
  1175  09D2  3441               	retlw	65
  1176  09D3  3436               	retlw	54
  1177  09D4  3408               	retlw	8
  1178  09D5  3400               	retlw	0
  1179  09D6  3402               	retlw	2
  1180  09D7  3401               	retlw	1
  1181  09D8  3402               	retlw	2
  1182  09D9  3404               	retlw	4
  1183  09DA  3402               	retlw	2
  1184  09DB  341E               	retlw	30
  1185  09DC  3421               	retlw	33
  1186  09DD  3461               	retlw	97
  1187  09DE  3421               	retlw	33
  1188  09DF  3412               	retlw	18
  1189  09E0  343D               	retlw	61
  1190  09E1  3442               	retlw	66
  1191  09E2  3452               	retlw	82
  1192  09E3  3452               	retlw	82
  1193  09E4  3475               	retlw	117
  1194  09E5  343C               	retlw	60
  1195  09E6  3443               	retlw	67
  1196  09E7  3442               	retlw	66
  1197  09E8  3443               	retlw	67
  1198  09E9  343C               	retlw	60
  1199  09EA  343C               	retlw	60
  1200  09EB  3441               	retlw	65
  1201  09EC  3440               	retlw	64
  1202  09ED  3441               	retlw	65
  1203  09EE  343C               	retlw	60
  1204  09EF  3400               	retlw	0
  1205  09F0  3442               	retlw	66
  1206  09F1  347F               	retlw	127
  1207  09F2  3442               	retlw	66
  1208  09F3  3400               	retlw	0
  1209  09F4  3446               	retlw	70
  1210  09F5  3449               	retlw	73
  1211  09F6  3469               	retlw	105
  1212  09F7  3449               	retlw	73
  1213  09F8  3431               	retlw	49
  1214  09F9  341C               	retlw	28
  1215  09FA  3422               	retlw	34
  1216  09FB  3462               	retlw	98
  1217  09FC  3422               	retlw	34
  1218  09FD  3410               	retlw	16
  1219  09FE  340D               	retlw	13
  1220  09FF  3452               	retlw	82
  1221  0A00  3452               	retlw	82
  1222  0A01  3452               	retlw	82
  1223  0A02  343D               	retlw	61
  1224  0A03  3438               	retlw	56
  1225  0A04  3446               	retlw	70
  1226  0A05  3444               	retlw	68
  1227  0A06  3446               	retlw	70
  1228  0A07  3438               	retlw	56
  1229  0A08  343C               	retlw	60
  1230  0A09  3441               	retlw	65
  1231  0A0A  3440               	retlw	64
  1232  0A0B  3421               	retlw	33
  1233  0A0C  347C               	retlw	124
  1234  0A0D  3400               	retlw	0
  1235  0A0E  3444               	retlw	68
  1236  0A0F  347C               	retlw	124
  1237  0A10  3440               	retlw	64
  1238  0A11  3400               	retlw	0
  1239  0A12  3424               	retlw	36
  1240  0A13  342A               	retlw	42
  1241  0A14  346A               	retlw	106
  1242  0A15  342A               	retlw	42
  1243  0A16  3410               	retlw	16
  1244  0A17                     __end_of_harftablo:	
  1245  0018                     _CARRY	set	24
  1246  0095                     _OPTION_REGbits	set	149
  1247  008D                     _TRISB	set	141
  1248  008C                     _TRISA	set	140
  1249  0097                     _WDTCON	set	151
  1250  0098                     _OSCTUNE	set	152
  1251  0099                     _OSCCON	set	153
  1252  046F                     _TRISB7	set	1135
  1253  046B                     _TRISB3	set	1131
  1254  046C                     _TRISB4	set	1132
  1255  046D                     _TRISB5	set	1133
  1256  046E                     _TRISB6	set	1134
  1257  04D6                     _PLLR	set	1238
  1258  011D                     _APFCON0	set	285
  1259  011E                     _APFCON1	set	286
  1260  010D                     _LATB	set	269
  1261  010C                     _LATA	set	268
  1262  086E                     _LATB6	set	2158
  1263  086F                     _LATB7	set	2159
  1264  086B                     _LATB3	set	2155
  1265  086D                     _LATB5	set	2157
  1266  086C                     _LATB4	set	2156
  1267  018C                     _ANSELA	set	396
  1268  018D                     _ANSELB	set	397
  1269  020C                     _WPUA	set	524
  1270  020D                     _WPUB	set	525
  1271  0A17                     STR_4:	
  1272  0A17  3441               	retlw	65	;'A'
  1273  0A18  3442               	retlw	66	;'B'
  1274  0A19  3443               	retlw	67	;'C'
  1275  0A1A  34C7               	retlw	-57
  1276  0A1B  3444               	retlw	68	;'D'
  1277  0A1C  3445               	retlw	69	;'E'
  1278  0A1D  3446               	retlw	70	;'F'
  1279  0A1E  3447               	retlw	71	;'G'
  1280  0A1F  34D0               	retlw	-48
  1281  0A20  3448               	retlw	72	;'H'
  1282  0A21  3449               	retlw	73	;'I'
  1283  0A22  34DD               	retlw	-35
  1284  0A23  344A               	retlw	74	;'J'
  1285  0A24  344B               	retlw	75	;'K'
  1286  0A25  344C               	retlw	76	;'L'
  1287  0A26  344D               	retlw	77	;'M'
  1288  0A27  344E               	retlw	78	;'N'
  1289  0A28  344F               	retlw	79	;'O'
  1290  0A29  34D6               	retlw	-42
  1291  0A2A  3450               	retlw	80	;'P'
  1292  0A2B  3452               	retlw	82	;'R'
  1293  0A2C  3453               	retlw	83	;'S'
  1294  0A2D  34DE               	retlw	-34
  1295  0A2E  3454               	retlw	84	;'T'
  1296  0A2F  3455               	retlw	85	;'U'
  1297  0A30  34DC               	retlw	-36
  1298  0A31  3456               	retlw	86	;'V'
  1299  0A32  3459               	retlw	89	;'Y'
  1300  0A33  345A               	retlw	90	;'Z'
  1301  0A34  3420               	retlw	32	;' '
  1302  0A35  3461               	retlw	97	;'a'
  1303  0A36  3462               	retlw	98	;'b'
  1304  0A37  3463               	retlw	99	;'c'
  1305  0A38  34E7               	retlw	-25
  1306  0A39  3464               	retlw	100	;'d'
  1307  0A3A  3465               	retlw	101	;'e'
  1308  0A3B  3466               	retlw	102	;'f'
  1309  0A3C  3467               	retlw	103	;'g'
  1310  0A3D  34F0               	retlw	-16
  1311  0A3E  3468               	retlw	104	;'h'
  1312  0A3F  34FD               	retlw	-3
  1313  0A40  3469               	retlw	105	;'i'
  1314  0A41  346A               	retlw	106	;'j'
  1315  0A42  346B               	retlw	107	;'k'
  1316  0A43  346C               	retlw	108	;'l'
  1317  0A44  346D               	retlw	109	;'m'
  1318  0A45  346E               	retlw	110	;'n'
  1319  0A46  346F               	retlw	111	;'o'
  1320  0A47  34F6               	retlw	-10
  1321  0A48  3470               	retlw	112	;'p'
  1322  0A49  3472               	retlw	114	;'r'
  1323  0A4A  3473               	retlw	115	;'s'
  1324  0A4B  34FE               	retlw	-2
  1325  0A4C  3474               	retlw	116	;'t'
  1326  0A4D  3475               	retlw	117	;'u'
  1327  0A4E  34FC               	retlw	-4
  1328  0A4F  3476               	retlw	118	;'v'
  1329  0A50  3479               	retlw	121	;'y'
  1330  0A51  347A               	retlw	122	;'z'
  1331  0A52  342E               	retlw	46	;'.'
  1332  0A53  342C               	retlw	44	;','
  1333  0A54  343A               	retlw	58	;':'
  1334  0A55  343B               	retlw	59	;';'
  1335  0A56  3421               	retlw	33	;'!'
  1336  0A57  343F               	retlw	63	;'?'
  1337  0A58  345B               	retlw	91	;'['
  1338  0A59  347B               	retlw	123	;'{'
  1339  0A5A  3428               	retlw	40	;'('
  1340  0A5B  3429               	retlw	41	;')'
  1341  0A5C  347D               	retlw	125	;'}'
  1342  0A5D  345D               	retlw	93	;']'
  1343  0A5E  343C               	retlw	60	;'<'
  1344  0A5F  343E               	retlw	62	;'>'
  1345  0A60  3440               	retlw	64	;'@'
  1346  0A61  342B               	retlw	43	;'+'
  1347  0A62  342D               	retlw	45	;'-'
  1348  0A63  342A               	retlw	42	;'*'
  1349  0A64  342F               	retlw	47	;'/'
  1350  0A65  3423               	retlw	35	;'#'
  1351  0A66  3425               	retlw	37	;'%'
  1352  0A67  3427               	retlw	39	;'''
  1353  0A68  3422               	retlw	34	;'"'
  1354  0A69  342F               	retlw	47	;'/'
  1355  0A6A  345C               	retlw	92	;'\'
  1356  0A6B  3400               	retlw	0
  1357                           
  1358                           	psect	stringtext2
  1359  0A6C                     __pstringtext2:	
  1360  0A6C                     STR_5:	
  1361  0A6C  3447               	retlw	71	;'G'
  1362  0A6D  3445               	retlw	69	;'E'
  1363  0A6E  344E               	retlw	78	;'N'
  1364  0A6F  34C7               	retlw	-57
  1365  0A70  3420               	retlw	32	;' '
  1366  0A71  344D               	retlw	77	;'M'
  1367  0A72  3455               	retlw	85	;'U'
  1368  0A73  3443               	retlw	67	;'C'
  1369  0A74  34DD               	retlw	-35
  1370  0A75  3454               	retlw	84	;'T'
  1371  0A76  344C               	retlw	76	;'L'
  1372  0A77  3445               	retlw	69	;'E'
  1373  0A78  3452               	retlw	82	;'R'
  1374  0A79  3400               	retlw	0
  1375                           
  1376                           	psect	stringtext3
  1377  0A7A                     __pstringtext3:	
  1378  0A7A                     STR_3:	
  1379  0A7A  3447               	retlw	71	;'G'
  1380  0A7B  3465               	retlw	101	;'e'
  1381  0A7C  346E               	retlw	110	;'n'
  1382  0A7D  34E7               	retlw	-25
  1383  0A7E  3420               	retlw	32	;' '
  1384  0A7F  344D               	retlw	77	;'M'
  1385  0A80  3475               	retlw	117	;'u'
  1386  0A81  3463               	retlw	99	;'c'
  1387  0A82  3469               	retlw	105	;'i'
  1388  0A83  3474               	retlw	116	;'t'
  1389  0A84  346C               	retlw	108	;'l'
  1390  0A85  3465               	retlw	101	;'e'
  1391  0A86  3472               	retlw	114	;'r'
  1392  0A87  3400               	retlw	0
  1393                           
  1394                           	psect	stringtext4
  1395  0A88                     __pstringtext4:	
  1396  0A88                     STR_1:	
  1397  0A88  344E               	retlw	78	;'N'
  1398  0A89  346F               	retlw	111	;'o'
  1399  0A8A  346B               	retlw	107	;'k'
  1400  0A8B  3469               	retlw	105	;'i'
  1401  0A8C  3461               	retlw	97	;'a'
  1402  0A8D  3420               	retlw	32	;' '
  1403  0A8E  3435               	retlw	53	;'5'
  1404  0A8F  3431               	retlw	49	;'1'
  1405  0A90  3431               	retlw	49	;'1'
  1406  0A91  3430               	retlw	48	;'0'
  1407  0A92  3400               	retlw	0
  1408                           
  1409                           	psect	stringtext5
  1410  0A93                     __pstringtext5:	
  1411  0A93                     STR_2:	
  1412  0A93  344C               	retlw	76	;'L'
  1413  0A94  3443               	retlw	67	;'C'
  1414  0A95  3444               	retlw	68	;'D'
  1415  0A96  3420               	retlw	32	;' '
  1416  0A97  3454               	retlw	84	;'T'
  1417  0A98  3445               	retlw	69	;'E'
  1418  0A99  3453               	retlw	83	;'S'
  1419  0A9A  3454               	retlw	84	;'T'
  1420  0A9B  34DD               	retlw	-35
  1421  0A9C  3400               	retlw	0
  1422                           
  1423                           	psect	stringtext6
  1424  0000                     __pstringtext6:	
  1425                           
  1426                           ; #config settings
  1427  0000                     
  1428                           	psect	cinit
  1429  07FA                     start_initialization:	
  1430  07FA                     __initialization:	
  1431                           
  1432                           ; Initialize objects allocated to BANK0
  1433  07FA  3185  258B         	fcall	__pidataBANK0	;fetch initializer
  1434  07FC  00A3               	movwf	__pdataBANK0& (0+127)
  1435  07FD                     end_of_initialization:	
  1436                           ;End of C runtime variable initialization code
  1437                           
  1438  07FD                     __end_of__initialization:	
  1439  07FD  0020               	movlb	0
  1440  07FE  3186  2EB6         	ljmp	_main	;jump to C main() function
  1441                           
  1442                           	psect	dataBANK0
  1443  0023                     __pdataBANK0:	
  1444  0023                     _lcd_kontrast:	
  1445  0023                     	ds	1
  1446                           
  1447                           	psect	cstackCOMMON
  1448  0070                     __pcstackCOMMON:	
  1449  0070                     ?_PIN_MANAGER_Initialize:	
  1450  0070                     ??_PIN_MANAGER_Initialize:	
  1451                           ; 1 bytes @ 0x0
  1452                           
  1453  0070                     ?_OSCILLATOR_Initialize:	
  1454                           ; 1 bytes @ 0x0
  1455                           
  1456  0070                     ??_OSCILLATOR_Initialize:	
  1457                           ; 1 bytes @ 0x0
  1458                           
  1459  0070                     ?_WDT_Initialize:	
  1460                           ; 1 bytes @ 0x0
  1461                           
  1462  0070                     ??_WDT_Initialize:	
  1463                           ; 1 bytes @ 0x0
  1464                           
  1465  0070                     ?_lcd_baslat:	
  1466                           ; 1 bytes @ 0x0
  1467                           
  1468  0070                     ?_lcd_sil:	
  1469                           ; 1 bytes @ 0x0
  1470                           
  1471  0070                     ?_lcd_satirsil:	
  1472                           ; 1 bytes @ 0x0
  1473                           
  1474  0070                     ?_lcd_ekrani_tersle:	
  1475                           ; 1 bytes @ 0x0
  1476                           
  1477  0070                     ?_lcd_normalmode:	
  1478                           ; 1 bytes @ 0x0
  1479                           
  1480  0070                     ?_lcd_veriyaz:	
  1481                           ; 1 bytes @ 0x0
  1482                           
  1483  0070                     ??_lcd_veriyaz:	
  1484                           ; 1 bytes @ 0x0
  1485                           
  1486  0070                     ?_lcd_harfyaz:	
  1487                           ; 1 bytes @ 0x0
  1488                           
  1489  0070                     ?_SYSTEM_Initialize:	
  1490                           ; 1 bytes @ 0x0
  1491                           
  1492  0070                     ??_SYSTEM_Initialize:	
  1493                           ; 1 bytes @ 0x0
  1494                           
  1495  0070                     ?_main:	
  1496                           ; 1 bytes @ 0x0
  1497                           
  1498  0070                     ?___bmul:	
  1499                           ; 1 bytes @ 0x0
  1500                           
  1501  0070                     ?___wmul:	
  1502                           ; 1 bytes @ 0x0
  1503                           
  1504  0070                     ___bmul@multiplicand:	
  1505                           ; 2 bytes @ 0x0
  1506                           
  1507  0070                     ___wmul@multiplier:	
  1508                           ; 1 bytes @ 0x0
  1509                           
  1510                           
  1511                           ; 2 bytes @ 0x0
  1512  0070                     	ds	1
  1513  0071                     ??___bmul:	
  1514  0071                     lcd_veriyaz@veri:	
  1515                           ; 1 bytes @ 0x1
  1516                           
  1517                           
  1518                           ; 1 bytes @ 0x1
  1519  0071                     	ds	1
  1520  0072                     lcd_veriyaz@i:	
  1521  0072                     ___bmul@product:	
  1522                           ; 1 bytes @ 0x2
  1523                           
  1524  0072                     ___wmul@multiplicand:	
  1525                           ; 1 bytes @ 0x2
  1526                           
  1527                           
  1528                           ; 2 bytes @ 0x2
  1529  0072                     	ds	1
  1530  0073                     ??_lcd_baslat:	
  1531  0073                     ??_lcd_ekrani_tersle:	
  1532                           ; 1 bytes @ 0x3
  1533                           
  1534  0073                     ??_lcd_normalmode:	
  1535                           ; 1 bytes @ 0x3
  1536                           
  1537  0073                     ___bmul@multiplier:	
  1538                           ; 1 bytes @ 0x3
  1539                           
  1540                           
  1541                           ; 1 bytes @ 0x3
  1542  0073                     	ds	1
  1543  0074                     ?_lcd_git:	
  1544  0074                     ??___wmul:	
  1545                           ; 1 bytes @ 0x4
  1546                           
  1547  0074                     lcd_git@sutun:	
  1548                           ; 1 bytes @ 0x4
  1549                           
  1550  0074                     ___wmul@product:	
  1551                           ; 1 bytes @ 0x4
  1552                           
  1553                           
  1554                           ; 2 bytes @ 0x4
  1555  0074                     	ds	1
  1556  0075                     ??_lcd_git:	
  1557                           
  1558                           ; 1 bytes @ 0x5
  1559  0075                     	ds	1
  1560  0076                     ??_lcd_harfyaz:	
  1561  0076                     lcd_git@satir:	
  1562                           ; 1 bytes @ 0x6
  1563                           
  1564  0076                     lcd_harfyaz@harf:	
  1565                           ; 1 bytes @ 0x6
  1566                           
  1567                           
  1568                           ; 1 bytes @ 0x6
  1569  0076                     	ds	1
  1570  0077                     ??_lcd_sil:	
  1571  0077                     ??_lcd_satirsil:	
  1572                           ; 1 bytes @ 0x7
  1573                           
  1574  0077                     lcd_harfyaz@adres:	
  1575                           ; 1 bytes @ 0x7
  1576                           
  1577                           
  1578                           ; 2 bytes @ 0x7
  1579  0077                     	ds	1
  1580  0078                     lcd_satirsil@satir:	
  1581  0078                     lcd_sil@i:	
  1582                           ; 1 bytes @ 0x8
  1583                           
  1584                           
  1585                           ; 2 bytes @ 0x8
  1586  0078                     	ds	1
  1587  0079                     ?_lcd_mesajyaz:	
  1588  0079                     lcd_mesajyaz@sutun:	
  1589                           ; 1 bytes @ 0x9
  1590                           
  1591  0079                     lcd_satirsil@i:	
  1592                           ; 1 bytes @ 0x9
  1593                           
  1594                           
  1595                           ; 1 bytes @ 0x9
  1596  0079                     	ds	1
  1597  007A                     lcd_mesajyaz@mesaj:	
  1598                           
  1599                           ; 2 bytes @ 0xA
  1600  007A                     	ds	2
  1601  007C                     ??_lcd_mesajyaz:	
  1602                           
  1603                           ; 1 bytes @ 0xC
  1604  007C                     	ds	1
  1605  007D                     lcd_mesajyaz@satir:	
  1606                           
  1607                           ; 1 bytes @ 0xD
  1608  007D                     	ds	1
  1609                           
  1610                           	psect	cstackBANK0
  1611  0020                     __pcstackBANK0:	
  1612  0020                     ??_main:	
  1613                           
  1614                           ; 1 bytes @ 0x0
  1615  0020                     	ds	2
  1616  0022                     main@i:	
  1617                           
  1618                           ; 1 bytes @ 0x2
  1619  0022                     	ds	1
  1620                           
  1621                           	psect	maintext
  1622  06B6                     __pmaintext:	
  1623 ;;
  1624 ;;Main: autosize = 0, tempsize = 2, incstack = 0, save=0
  1625 ;;
  1626 ;; *************** function _main *****************
  1627 ;; Defined at:
  1628 ;;		line 52 in file "main.c"
  1629 ;; Parameters:    Size  Location     Type
  1630 ;;		None
  1631 ;; Auto vars:     Size  Location     Type
  1632 ;;  i               1    2[BANK0 ] unsigned char 
  1633 ;; Return value:  Size  Location     Type
  1634 ;;                  1    wreg      void 
  1635 ;; Registers used:
  1636 ;;		wreg, fsr0l, fsr0h, status,2, status,0, pclath, cstack
  1637 ;; Tracked objects:
  1638 ;;		On entry : B1F/0
  1639 ;;		On exit  : 0/0
  1640 ;;		Unchanged: 0/0
  1641 ;; Data sizes:     COMMON   BANK0   BANK1   BANK2   BANK3   BANK4
  1642 ;;      Params:         0       0       0       0       0       0
  1643 ;;      Locals:         0       1       0       0       0       0
  1644 ;;      Temps:          0       2       0       0       0       0
  1645 ;;      Totals:         0       3       0       0       0       0
  1646 ;;Total ram usage:        3 bytes
  1647 ;; Hardware stack levels required when called:    3
  1648 ;; This function calls:
  1649 ;;		_SYSTEM_Initialize
  1650 ;;		_lcd_baslat
  1651 ;;		_lcd_ekrani_tersle
  1652 ;;		_lcd_mesajyaz
  1653 ;;		_lcd_normalmode
  1654 ;;		_lcd_satirsil
  1655 ;;		_lcd_sil
  1656 ;; This function is called by:
  1657 ;;		Startup code after reset
  1658 ;; This function uses a non-reentrant model
  1659 ;;
  1660                           
  1661                           
  1662                           ;psect for function _main
  1663  06B6                     _main:	
  1664                           
  1665                           ;main.c: 55: SYSTEM_Initialize();
  1666                           
  1667                           ;incstack = 0
  1668                           ; Regs used in _main: [wreg-fsr0h+status,2+status,0+pclath+cstack]
  1669  06B6  3185  25A3  3186   	fcall	_SYSTEM_Initialize
  1670                           
  1671                           ;main.c: 72: lcd_baslat();
  1672  06B9  3186  2664  3186   	fcall	_lcd_baslat
  1673                           
  1674                           ;main.c: 73: lcd_mesajyaz(0,2,"Nokia 5110");
  1675  06BC  3002               	movlw	2
  1676  06BD  0020               	movlb	0	; select bank0
  1677  06BE  00A0               	movwf	??_main
  1678  06BF  0820               	movf	??_main,w
  1679  06C0  00F9               	movwf	lcd_mesajyaz@sutun
  1680  06C1  3088               	movlw	low (STR_1| (0+32768))
  1681  06C2  00FA               	movwf	lcd_mesajyaz@mesaj
  1682  06C3  308A               	movlw	high (STR_1| (0+32768))
  1683  06C4  00FB               	movwf	lcd_mesajyaz@mesaj+1
  1684  06C5  3000               	movlw	0
  1685  06C6  3186  2604  3186   	fcall	_lcd_mesajyaz
  1686                           
  1687                           ;main.c: 74: lcd_mesajyaz(1,2,"LCD TESTÝ");
  1688  06C9  3002               	movlw	2
  1689  06CA  0020               	movlb	0	; select bank0
  1690  06CB  00A0               	movwf	??_main
  1691  06CC  0820               	movf	??_main,w
  1692  06CD  00F9               	movwf	lcd_mesajyaz@sutun
  1693  06CE  3093               	movlw	low (STR_2| (0+32768))
  1694  06CF  00FA               	movwf	lcd_mesajyaz@mesaj
  1695  06D0  308A               	movlw	high (STR_2| (0+32768))
  1696  06D1  00FB               	movwf	lcd_mesajyaz@mesaj+1
  1697  06D2  3001               	movlw	1
  1698  06D3  3186  2604  3186   	fcall	_lcd_mesajyaz
  1699                           
  1700                           ;main.c: 75: lcd_mesajyaz(3,0,"Genç Mucitler");
  1701  06D6  01F9               	clrf	lcd_mesajyaz@sutun
  1702  06D7  307A               	movlw	low (STR_3| (0+32768))
  1703  06D8  00FA               	movwf	lcd_mesajyaz@mesaj
  1704  06D9  308A               	movlw	high (STR_3| (0+32768))
  1705  06DA  00FB               	movwf	lcd_mesajyaz@mesaj+1
  1706  06DB  3003               	movlw	3
  1707  06DC  3186  2604  3186   	fcall	_lcd_mesajyaz
  1708                           
  1709                           ;main.c: 76: _delay((unsigned long)((3000)*(32000000/4000.0)));
  1710  06DF  307A               	movlw	122
  1711  06E0  0020               	movlb	0	; select bank0
  1712  06E1  00A1               	movwf	??_main+1
  1713  06E2  30C1               	movlw	193
  1714  06E3  00A0               	movwf	??_main
  1715  06E4  3081               	movlw	129
  1716  06E5                     u397:	
  1717  06E5  0B89               	decfsz	9,f
  1718  06E6  2EE5               	goto	u397
  1719  06E7  0BA0               	decfsz	??_main,f
  1720  06E8  2EE5               	goto	u397
  1721  06E9  0BA1               	decfsz	??_main+1,f
  1722  06EA  2EE5               	goto	u397
  1723  06EB  3200               	nop2
  1724                           
  1725                           ;main.c: 78: lcd_sil();
  1726  06EC  3186  268A  3186   	fcall	_lcd_sil
  1727                           
  1728                           ;main.c: 79: lcd_mesajyaz(0,0,"ABCÇDEFGÐHIÝJKLMNOÖPRSÞTUÜVYZ abcçdefgðhýijklmnoöprsþtuüv
      +                          yz.,:;!?[{()}]<>@+-*/#%'\"/\\");
  1729  06EF  01F9               	clrf	lcd_mesajyaz@sutun
  1730  06F0  3017               	movlw	low (STR_4| (0+32768))
  1731  06F1  00FA               	movwf	lcd_mesajyaz@mesaj
  1732  06F2  308A               	movlw	high (STR_4| (0+32768))
  1733  06F3  00FB               	movwf	lcd_mesajyaz@mesaj+1
  1734  06F4  3000               	movlw	0
  1735  06F5  3186  2604  3186   	fcall	_lcd_mesajyaz
  1736                           
  1737                           ;main.c: 80: _delay((unsigned long)((3000)*(32000000/4000.0)));
  1738  06F8  307A               	movlw	122
  1739  06F9  0020               	movlb	0	; select bank0
  1740  06FA  00A1               	movwf	??_main+1
  1741  06FB  30C1               	movlw	193
  1742  06FC  00A0               	movwf	??_main
  1743  06FD  3081               	movlw	129
  1744  06FE                     u407:	
  1745  06FE  0B89               	decfsz	9,f
  1746  06FF  2EFE               	goto	u407
  1747  0700  0BA0               	decfsz	??_main,f
  1748  0701  2EFE               	goto	u407
  1749  0702  0BA1               	decfsz	??_main+1,f
  1750  0703  2EFE               	goto	u407
  1751  0704  3200               	nop2
  1752                           
  1753                           ;main.c: 83: for(char i=0;i<8;i++)
  1754  0705  0020               	movlb	0	; select bank0
  1755  0706  01A2               	clrf	main@i
  1756  0707  3008               	movlw	8
  1757  0708  0222               	subwf	main@i,w
  1758  0709  1803               	btfsc	3,0
  1759  070A  2F24               	goto	l1024
  1760  070B                     l1016:	
  1761                           
  1762                           ;main.c: 84: {
  1763                           ;main.c: 85: lcd_satirsil(i);
  1764  070B  0822               	movf	main@i,w
  1765  070C  3186  2621  3186   	fcall	_lcd_satirsil
  1766                           
  1767                           ;main.c: 86: _delay((unsigned long)((400)*(32000000/4000.0)));
  1768  070F  3011               	movlw	17
  1769  0710  0020               	movlb	0	; select bank0
  1770  0711  00A1               	movwf	??_main+1
  1771  0712  303C               	movlw	60
  1772  0713  00A0               	movwf	??_main
  1773  0714  30CB               	movlw	203
  1774  0715                     u417:	
  1775  0715  0B89               	decfsz	9,f
  1776  0716  2F15               	goto	u417
  1777  0717  0BA0               	decfsz	??_main,f
  1778  0718  2F15               	goto	u417
  1779  0719  0BA1               	decfsz	??_main+1,f
  1780  071A  2F15               	goto	u417
  1781  071B  3001               	movlw	1
  1782  071C  0020               	movlb	0	; select bank0
  1783  071D  00A0               	movwf	??_main
  1784  071E  0820               	movf	??_main,w
  1785  071F  07A2               	addwf	main@i,f
  1786  0720  3008               	movlw	8
  1787  0721  0222               	subwf	main@i,w
  1788  0722  1C03               	skipc
  1789  0723  2F0B               	goto	l1016
  1790  0724                     l1024:	
  1791                           
  1792                           ;main.c: 87: }
  1793                           ;main.c: 89: lcd_mesajyaz(2,0,"GENÇ MUCÝTLER");
  1794  0724  01F9               	clrf	lcd_mesajyaz@sutun
  1795  0725  306C               	movlw	low (STR_5| (0+32768))
  1796  0726  00FA               	movwf	lcd_mesajyaz@mesaj
  1797  0727  308A               	movlw	high (STR_5| (0+32768))
  1798  0728  00FB               	movwf	lcd_mesajyaz@mesaj+1
  1799  0729  3002               	movlw	2
  1800  072A  3186  2604  3186   	fcall	_lcd_mesajyaz
  1801  072D                     l1026:	
  1802                           ;main.c: 91: while (1)
  1803                           
  1804                           
  1805                           ;main.c: 92: {
  1806                           ;main.c: 95: lcd_ekrani_tersle();
  1807  072D  3185  2590  3186   	fcall	_lcd_ekrani_tersle
  1808                           
  1809                           ;main.c: 96: _delay((unsigned long)((1000)*(32000000/4000.0)));
  1810  0730  3029               	movlw	41
  1811  0731  0020               	movlb	0	; select bank0
  1812  0732  00A1               	movwf	??_main+1
  1813  0733  3096               	movlw	150
  1814  0734  00A0               	movwf	??_main
  1815  0735  307F               	movlw	127
  1816  0736                     u427:	
  1817  0736  0B89               	decfsz	9,f
  1818  0737  2F36               	goto	u427
  1819  0738  0BA0               	decfsz	??_main,f
  1820  0739  2F36               	goto	u427
  1821  073A  0BA1               	decfsz	??_main+1,f
  1822  073B  2F36               	goto	u427
  1823                           
  1824                           ;main.c: 97: lcd_normalmode();
  1825  073C  3185  2596  3186   	fcall	_lcd_normalmode
  1826                           
  1827                           ;main.c: 98: _delay((unsigned long)((1000)*(32000000/4000.0)));
  1828  073F  3029               	movlw	41
  1829  0740  0020               	movlb	0	; select bank0
  1830  0741  00A1               	movwf	??_main+1
  1831  0742  3096               	movlw	150
  1832  0743  00A0               	movwf	??_main
  1833  0744  307F               	movlw	127
  1834  0745                     u437:	
  1835  0745  0B89               	decfsz	9,f
  1836  0746  2F45               	goto	u437
  1837  0747  0BA0               	decfsz	??_main,f
  1838  0748  2F45               	goto	u437
  1839  0749  0BA1               	decfsz	??_main+1,f
  1840  074A  2F45               	goto	u437
  1841  074B  2F2D               	goto	l1026
  1842  074C                     __end_of_main:	
  1843                           
  1844                           	psect	text1
  1845  068A                     __ptext1:	
  1846 ;; *************** function _lcd_sil *****************
  1847 ;; Defined at:
  1848 ;;		line 248 in file "nokia5110.c"
  1849 ;; Parameters:    Size  Location     Type
  1850 ;;		None
  1851 ;; Auto vars:     Size  Location     Type
  1852 ;;  i               2    8[COMMON] int 
  1853 ;; Return value:  Size  Location     Type
  1854 ;;                  1    wreg      void 
  1855 ;; Registers used:
  1856 ;;		wreg, status,2, status,0, pclath, cstack
  1857 ;; Tracked objects:
  1858 ;;		On entry : 0/0
  1859 ;;		On exit  : 0/0
  1860 ;;		Unchanged: 0/0
  1861 ;; Data sizes:     COMMON   BANK0   BANK1   BANK2   BANK3   BANK4
  1862 ;;      Params:         0       0       0       0       0       0
  1863 ;;      Locals:         2       0       0       0       0       0
  1864 ;;      Temps:          1       0       0       0       0       0
  1865 ;;      Totals:         3       0       0       0       0       0
  1866 ;;Total ram usage:        3 bytes
  1867 ;; Hardware stack levels used:    1
  1868 ;; Hardware stack levels required when called:    2
  1869 ;; This function calls:
  1870 ;;		_lcd_git
  1871 ;;		_lcd_veriyaz
  1872 ;; This function is called by:
  1873 ;;		_main
  1874 ;; This function uses a non-reentrant model
  1875 ;;
  1876                           
  1877                           
  1878                           ;psect for function _lcd_sil
  1879  068A                     _lcd_sil:	
  1880                           
  1881                           ;nokia5110.c: 250: int i;
  1882                           ;nokia5110.c: 251: lcd_git(0,0);
  1883                           
  1884                           ;incstack = 0
  1885                           ; Regs used in _lcd_sil: [wreg+status,2+status,0+pclath+cstack]
  1886  068A  01F4               	clrf	lcd_git@sutun
  1887  068B  3000               	movlw	0
  1888  068C  3185  25BD  3186   	fcall	_lcd_git
  1889                           
  1890                           ;nokia5110.c: 253: LATB3=1;
  1891  068F  0022               	movlb	2	; select bank2
  1892  0690  158D               	bsf	13,3	;volatile
  1893                           
  1894                           ;nokia5110.c: 254: for(i=0;i<504;i++)
  1895  0691  01F8               	clrf	lcd_sil@i
  1896  0692  01F9               	clrf	lcd_sil@i+1
  1897  0693  0879               	movf	lcd_sil@i+1,w
  1898  0694  3A80               	xorlw	128
  1899  0695  00F7               	movwf	??_lcd_sil
  1900  0696  3081               	movlw	129
  1901  0697  0277               	subwf	??_lcd_sil,w
  1902  0698  1D03               	skipz
  1903  0699  2E9C               	goto	u325
  1904  069A  30F8               	movlw	248
  1905  069B  0278               	subwf	lcd_sil@i,w
  1906  069C                     u325:	
  1907  069C  1803               	btfsc	3,0
  1908  069D  2EB1               	goto	l968
  1909  069E                     l962:	
  1910                           
  1911                           ;nokia5110.c: 255: {
  1912                           ;nokia5110.c: 256: lcd_veriyaz(0x00);
  1913  069E  3000               	movlw	0
  1914  069F  3186  263F  3186   	fcall	_lcd_veriyaz
  1915  06A2  3001               	movlw	1
  1916  06A3  07F8               	addwf	lcd_sil@i,f
  1917  06A4  3000               	movlw	0
  1918  06A5  3DF9               	addwfc	lcd_sil@i+1,f
  1919  06A6  0879               	movf	lcd_sil@i+1,w
  1920  06A7  3A80               	xorlw	128
  1921  06A8  00F7               	movwf	??_lcd_sil
  1922  06A9  3081               	movlw	129
  1923  06AA  0277               	subwf	??_lcd_sil,w
  1924  06AB  1D03               	skipz
  1925  06AC  2EAF               	goto	u335
  1926  06AD  30F8               	movlw	248
  1927  06AE  0278               	subwf	lcd_sil@i,w
  1928  06AF                     u335:	
  1929  06AF  1C03               	skipc
  1930  06B0  2E9E               	goto	l962
  1931  06B1                     l968:	
  1932                           
  1933                           ;nokia5110.c: 257: }
  1934                           ;nokia5110.c: 259: lcd_git(0,0);
  1935  06B1  01F4               	clrf	lcd_git@sutun
  1936  06B2  3000               	movlw	0
  1937  06B3  3185  25BD         	fcall	_lcd_git
  1938  06B5  0008               	return
  1939  06B6                     __end_of_lcd_sil:	
  1940                           
  1941                           	psect	text2
  1942  0621                     __ptext2:	
  1943 ;; *************** function _lcd_satirsil *****************
  1944 ;; Defined at:
  1945 ;;		line 265 in file "nokia5110.c"
  1946 ;; Parameters:    Size  Location     Type
  1947 ;;  satir           1    wreg     unsigned char 
  1948 ;; Auto vars:     Size  Location     Type
  1949 ;;  satir           1    8[COMMON] unsigned char 
  1950 ;;  i               1    9[COMMON] unsigned char 
  1951 ;; Return value:  Size  Location     Type
  1952 ;;                  1    wreg      void 
  1953 ;; Registers used:
  1954 ;;		wreg, status,2, status,0, pclath, cstack
  1955 ;; Tracked objects:
  1956 ;;		On entry : 0/0
  1957 ;;		On exit  : 0/0
  1958 ;;		Unchanged: 0/0
  1959 ;; Data sizes:     COMMON   BANK0   BANK1   BANK2   BANK3   BANK4
  1960 ;;      Params:         0       0       0       0       0       0
  1961 ;;      Locals:         2       0       0       0       0       0
  1962 ;;      Temps:          1       0       0       0       0       0
  1963 ;;      Totals:         3       0       0       0       0       0
  1964 ;;Total ram usage:        3 bytes
  1965 ;; Hardware stack levels used:    1
  1966 ;; Hardware stack levels required when called:    2
  1967 ;; This function calls:
  1968 ;;		_lcd_git
  1969 ;;		_lcd_veriyaz
  1970 ;; This function is called by:
  1971 ;;		_main
  1972 ;; This function uses a non-reentrant model
  1973 ;;
  1974                           
  1975                           
  1976                           ;psect for function _lcd_satirsil
  1977  0621                     _lcd_satirsil:	
  1978                           
  1979                           ;incstack = 0
  1980                           ; Regs used in _lcd_satirsil: [wreg+status,2+status,0+pclath+cstack]
  1981                           ;lcd_satirsil@satir stored from wreg
  1982  0621  00F8               	movwf	lcd_satirsil@satir
  1983                           
  1984                           ;nokia5110.c: 267: char i;
  1985                           ;nokia5110.c: 268: lcd_git(satir,0);
  1986  0622  01F4               	clrf	lcd_git@sutun
  1987  0623  0878               	movf	lcd_satirsil@satir,w
  1988  0624  3185  25BD  3186   	fcall	_lcd_git
  1989                           
  1990                           ;nokia5110.c: 270: LATB3=1;
  1991  0627  0022               	movlb	2	; select bank2
  1992  0628  158D               	bsf	13,3	;volatile
  1993                           
  1994                           ;nokia5110.c: 271: for(i=0;i<84;i++)
  1995  0629  01F9               	clrf	lcd_satirsil@i
  1996  062A  3054               	movlw	84
  1997  062B  0279               	subwf	lcd_satirsil@i,w
  1998  062C  1803               	btfsc	3,0
  1999  062D  2E3A               	goto	l986
  2000  062E                     l980:	
  2001                           
  2002                           ;nokia5110.c: 272: {
  2003                           ;nokia5110.c: 273: lcd_veriyaz(0x00);
  2004  062E  3000               	movlw	0
  2005  062F  3186  263F  3186   	fcall	_lcd_veriyaz
  2006  0632  3001               	movlw	1
  2007  0633  00F7               	movwf	??_lcd_satirsil
  2008  0634  0877               	movf	??_lcd_satirsil,w
  2009  0635  07F9               	addwf	lcd_satirsil@i,f
  2010  0636  3054               	movlw	84
  2011  0637  0279               	subwf	lcd_satirsil@i,w
  2012  0638  1C03               	skipc
  2013  0639  2E2E               	goto	l980
  2014  063A                     l986:	
  2015                           
  2016                           ;nokia5110.c: 274: }
  2017                           ;nokia5110.c: 276: lcd_git(satir,0);
  2018  063A  01F4               	clrf	lcd_git@sutun
  2019  063B  0878               	movf	lcd_satirsil@satir,w
  2020  063C  3185  25BD         	fcall	_lcd_git
  2021  063E  0008               	return
  2022  063F                     __end_of_lcd_satirsil:	
  2023                           
  2024                           	psect	text3
  2025  0596                     __ptext3:	
  2026 ;; *************** function _lcd_normalmode *****************
  2027 ;; Defined at:
  2028 ;;		line 315 in file "nokia5110.c"
  2029 ;; Parameters:    Size  Location     Type
  2030 ;;		None
  2031 ;; Auto vars:     Size  Location     Type
  2032 ;;		None
  2033 ;; Return value:  Size  Location     Type
  2034 ;;                  1    wreg      void 
  2035 ;; Registers used:
  2036 ;;		wreg, status,2, status,0, pclath, cstack
  2037 ;; Tracked objects:
  2038 ;;		On entry : 0/0
  2039 ;;		On exit  : 0/0
  2040 ;;		Unchanged: 0/0
  2041 ;; Data sizes:     COMMON   BANK0   BANK1   BANK2   BANK3   BANK4
  2042 ;;      Params:         0       0       0       0       0       0
  2043 ;;      Locals:         0       0       0       0       0       0
  2044 ;;      Temps:          0       0       0       0       0       0
  2045 ;;      Totals:         0       0       0       0       0       0
  2046 ;;Total ram usage:        0 bytes
  2047 ;; Hardware stack levels used:    1
  2048 ;; Hardware stack levels required when called:    1
  2049 ;; This function calls:
  2050 ;;		_lcd_veriyaz
  2051 ;; This function is called by:
  2052 ;;		_main
  2053 ;; This function uses a non-reentrant model
  2054 ;;
  2055                           
  2056                           
  2057                           ;psect for function _lcd_normalmode
  2058  0596                     _lcd_normalmode:	
  2059                           
  2060                           ;nokia5110.c: 317: LATB3=0;
  2061                           
  2062                           ;incstack = 0
  2063                           ; Regs used in _lcd_normalmode: [wreg+status,2+status,0+pclath+cstack]
  2064  0596  0022               	movlb	2	; select bank2
  2065  0597  118D               	bcf	13,3	;volatile
  2066                           
  2067                           ;nokia5110.c: 318: lcd_veriyaz(0x0C);
  2068  0598  300C               	movlw	12
  2069  0599  3186  263F         	fcall	_lcd_veriyaz
  2070  059B  0008               	return
  2071  059C                     __end_of_lcd_normalmode:	
  2072                           
  2073                           	psect	text4
  2074  0604                     __ptext4:	
  2075 ;; *************** function _lcd_mesajyaz *****************
  2076 ;; Defined at:
  2077 ;;		line 166 in file "nokia5110.c"
  2078 ;; Parameters:    Size  Location     Type
  2079 ;;  satir           1    wreg     unsigned char 
  2080 ;;  sutun           1    9[COMMON] unsigned char 
  2081 ;;  mesaj           2   10[COMMON] PTR const unsigned char 
  2082 ;;		 -> STR_5(14), STR_4(85), STR_3(14), STR_2(10), 
  2083 ;;		 -> STR_1(11), 
  2084 ;; Auto vars:     Size  Location     Type
  2085 ;;  satir           1   13[COMMON] unsigned char 
  2086 ;; Return value:  Size  Location     Type
  2087 ;;                  1    wreg      void 
  2088 ;; Registers used:
  2089 ;;		wreg, fsr0l, fsr0h, status,2, status,0, pclath, cstack
  2090 ;; Tracked objects:
  2091 ;;		On entry : 0/0
  2092 ;;		On exit  : 0/0
  2093 ;;		Unchanged: 0/0
  2094 ;; Data sizes:     COMMON   BANK0   BANK1   BANK2   BANK3   BANK4
  2095 ;;      Params:         3       0       0       0       0       0
  2096 ;;      Locals:         1       0       0       0       0       0
  2097 ;;      Temps:          1       0       0       0       0       0
  2098 ;;      Totals:         5       0       0       0       0       0
  2099 ;;Total ram usage:        5 bytes
  2100 ;; Hardware stack levels used:    1
  2101 ;; Hardware stack levels required when called:    2
  2102 ;; This function calls:
  2103 ;;		_lcd_git
  2104 ;;		_lcd_harfyaz
  2105 ;; This function is called by:
  2106 ;;		_main
  2107 ;; This function uses a non-reentrant model
  2108 ;;
  2109                           
  2110                           
  2111                           ;psect for function _lcd_mesajyaz
  2112  0604                     _lcd_mesajyaz:	
  2113                           
  2114                           ;incstack = 0
  2115                           ; Regs used in _lcd_mesajyaz: [wreg-fsr0h+status,2+status,0+pclath+cstack]
  2116                           ;lcd_mesajyaz@satir stored from wreg
  2117  0604  00FD               	movwf	lcd_mesajyaz@satir
  2118                           
  2119                           ;nokia5110.c: 168: lcd_git(satir, sutun);
  2120  0605  0879               	movf	lcd_mesajyaz@sutun,w
  2121  0606  00FC               	movwf	??_lcd_mesajyaz
  2122  0607  087C               	movf	??_lcd_mesajyaz,w
  2123  0608  00F4               	movwf	lcd_git@sutun
  2124  0609  087D               	movf	lcd_mesajyaz@satir,w
  2125  060A  3185  25BD  3186   	fcall	_lcd_git
  2126  060D                     l946:	
  2127                           ;nokia5110.c: 169: do {
  2128                           
  2129                           
  2130                           ;nokia5110.c: 170: lcd_harfyaz(*mesaj++);
  2131  060D  087A               	movf	lcd_mesajyaz@mesaj,w
  2132  060E  0084               	movwf	4
  2133  060F  087B               	movf	lcd_mesajyaz@mesaj+1,w
  2134  0610  0085               	movwf	5
  2135  0611  0800               	movf	0,w	;code access
  2136  0612  3187  274C  3186   	fcall	_lcd_harfyaz
  2137  0615  3001               	movlw	1
  2138  0616  07FA               	addwf	lcd_mesajyaz@mesaj,f
  2139  0617  3000               	movlw	0
  2140  0618  3DFB               	addwfc	lcd_mesajyaz@mesaj+1,f
  2141                           
  2142                           ;nokia5110.c: 171: } while (*mesaj);
  2143  0619  087A               	movf	lcd_mesajyaz@mesaj,w
  2144  061A  0084               	movwf	4
  2145  061B  087B               	movf	lcd_mesajyaz@mesaj+1,w
  2146  061C  0085               	movwf	5
  2147  061D  0012               	moviw fsr0++
  2148  061E  1903               	btfsc	3,2
  2149  061F  0008               	return
  2150  0620  2E0D               	goto	l946
  2151  0621                     __end_of_lcd_mesajyaz:	
  2152                           
  2153                           	psect	text5
  2154  074C                     __ptext5:	
  2155 ;; *************** function _lcd_harfyaz *****************
  2156 ;; Defined at:
  2157 ;;		line 188 in file "nokia5110.c"
  2158 ;; Parameters:    Size  Location     Type
  2159 ;;  harf            1    wreg     unsigned char 
  2160 ;; Auto vars:     Size  Location     Type
  2161 ;;  harf            1    6[COMMON] unsigned char 
  2162 ;;  adres           2    7[COMMON] int 
  2163 ;; Return value:  Size  Location     Type
  2164 ;;                  1    wreg      void 
  2165 ;; Registers used:
  2166 ;;		wreg, fsr0l, fsr0h, status,2, status,0, pclath, cstack
  2167 ;; Tracked objects:
  2168 ;;		On entry : 0/0
  2169 ;;		On exit  : 0/0
  2170 ;;		Unchanged: 0/0
  2171 ;; Data sizes:     COMMON   BANK0   BANK1   BANK2   BANK3   BANK4
  2172 ;;      Params:         0       0       0       0       0       0
  2173 ;;      Locals:         3       0       0       0       0       0
  2174 ;;      Temps:          0       0       0       0       0       0
  2175 ;;      Totals:         3       0       0       0       0       0
  2176 ;;Total ram usage:        3 bytes
  2177 ;; Hardware stack levels used:    1
  2178 ;; Hardware stack levels required when called:    1
  2179 ;; This function calls:
  2180 ;;		___wmul
  2181 ;;		_lcd_veriyaz
  2182 ;; This function is called by:
  2183 ;;		_lcd_mesajyaz
  2184 ;;		_lcd_mesajyaz_cp
  2185 ;;		_putch
  2186 ;; This function uses a non-reentrant model
  2187 ;;
  2188                           
  2189                           
  2190                           ;psect for function _lcd_harfyaz
  2191  074C                     _lcd_harfyaz:	
  2192                           
  2193                           ;incstack = 0
  2194                           ; Regs used in _lcd_harfyaz: [wreg-fsr0h+status,2+status,0+pclath+cstack]
  2195                           ;lcd_harfyaz@harf stored from wreg
  2196  074C  00F6               	movwf	lcd_harfyaz@harf
  2197                           
  2198                           ;nokia5110.c: 190: int adres;
  2199                           ;nokia5110.c: 191: LATB3=1;
  2200  074D  0022               	movlb	2	; select bank2
  2201  074E  158D               	bsf	13,3	;volatile
  2202                           
  2203                           ;nokia5110.c: 193: switch(harf)
  2204  074F  2F80               	goto	l920
  2205  0750                     l132:	
  2206                           ;nokia5110.c: 194: {
  2207                           ;nokia5110.c: 195: case 'Ç':
  2208                           
  2209                           
  2210                           ;nokia5110.c: 196: adres=475;
  2211  0750  30DB               	movlw	219
  2212  0751  2F5F               	goto	L7
  2213  0752                     l134:	
  2214                           ;nokia5110.c: 198: case 'Ð':
  2215                           
  2216                           ;nokia5110.c: 197: break;
  2217                           
  2218                           
  2219                           ;nokia5110.c: 199: adres=480;
  2220  0752  30E0               	movlw	224
  2221  0753  2F5F               	goto	L7
  2222  0754                     l135:	
  2223                           ;nokia5110.c: 201: case 'Ö':
  2224                           
  2225                           ;nokia5110.c: 200: break;
  2226                           
  2227                           
  2228                           ;nokia5110.c: 202: adres=485;
  2229  0754  30E5               	movlw	229
  2230  0755  2F5F               	goto	L7
  2231  0756                     l136:	
  2232                           ;nokia5110.c: 204: case 'Ü':
  2233                           
  2234                           ;nokia5110.c: 203: break;
  2235                           
  2236                           
  2237                           ;nokia5110.c: 205: adres=490;
  2238  0756  30EA               	movlw	234
  2239  0757  2F5F               	goto	L7
  2240  0758                     l137:	
  2241                           ;nokia5110.c: 207: case 'Ý':
  2242                           
  2243                           ;nokia5110.c: 206: break;
  2244                           
  2245                           
  2246                           ;nokia5110.c: 208: adres=495;
  2247  0758  30EF               	movlw	239
  2248  0759  2F5F               	goto	L7
  2249  075A                     l138:	
  2250                           ;nokia5110.c: 210: case 'Þ':
  2251                           
  2252                           ;nokia5110.c: 209: break;
  2253                           
  2254                           
  2255                           ;nokia5110.c: 211: adres=500;
  2256  075A  30F4               	movlw	244
  2257  075B  2F5F               	goto	L7
  2258  075C                     l139:	
  2259                           ;nokia5110.c: 213: case 'ç':
  2260                           
  2261                           ;nokia5110.c: 212: break;
  2262                           
  2263                           
  2264                           ;nokia5110.c: 214: adres=505;
  2265  075C  30F9               	movlw	249
  2266  075D  2F5F               	goto	L7
  2267  075E                     l140:	
  2268                           ;nokia5110.c: 216: case 'ð':
  2269                           
  2270                           ;nokia5110.c: 215: break;
  2271                           
  2272                           
  2273                           ;nokia5110.c: 217: adres=510;
  2274  075E  30FE               	movlw	254
  2275  075F                     L7:	
  2276  075F  00F7               	movwf	lcd_harfyaz@adres
  2277  0760  3001               	movlw	1
  2278  0761  2F6B               	goto	L11
  2279  0762                     l141:	
  2280                           ;nokia5110.c: 219: case 'ö':
  2281                           
  2282                           ;nokia5110.c: 218: break;
  2283                           
  2284                           
  2285                           ;nokia5110.c: 220: adres=515;
  2286  0762  3003               	movlw	3
  2287  0763  2F69               	goto	L12
  2288  0764                     l142:	
  2289                           ;nokia5110.c: 222: case 'ü':
  2290                           
  2291                           ;nokia5110.c: 221: break;
  2292                           
  2293                           
  2294                           ;nokia5110.c: 223: adres=520;
  2295  0764  3008               	movlw	8
  2296  0765  2F69               	goto	L12
  2297  0766                     l143:	
  2298                           ;nokia5110.c: 225: case 'ý':
  2299                           
  2300                           ;nokia5110.c: 224: break;
  2301                           
  2302                           
  2303                           ;nokia5110.c: 226: adres=525;
  2304  0766  300D               	movlw	13
  2305  0767  2F69               	goto	L12
  2306  0768                     l144:	
  2307                           ;nokia5110.c: 228: case 'þ':
  2308                           
  2309                           ;nokia5110.c: 227: break;
  2310                           
  2311                           
  2312                           ;nokia5110.c: 229: adres=530;
  2313  0768  3012               	movlw	18
  2314  0769                     L12:	
  2315  0769  00F7               	movwf	lcd_harfyaz@adres
  2316  076A  3002               	movlw	2
  2317  076B                     L11:	
  2318  076B  00F8               	movwf	lcd_harfyaz@adres+1
  2319                           
  2320                           ;nokia5110.c: 230: break;
  2321  076C  2FA6               	goto	l922
  2322  076D                     l916:	
  2323                           ;nokia5110.c: 231: default:
  2324                           
  2325                           
  2326                           ;nokia5110.c: 232: adres=(harf-' ')*5;
  2327  076D  0876               	movf	lcd_harfyaz@harf,w
  2328  076E  3EE0               	addlw	224
  2329  076F  00F0               	movwf	___wmul@multiplier
  2330  0770  30FF               	movlw	255
  2331  0771  1803               	skipnc
  2332  0772  3000               	movlw	0
  2333  0773  00F1               	movwf	___wmul@multiplier+1
  2334  0774  3005               	movlw	5
  2335  0775  00F2               	movwf	___wmul@multiplicand
  2336  0776  3000               	movlw	0
  2337  0777  00F3               	movwf	___wmul@multiplicand+1
  2338  0778  3185  25E9  3187   	fcall	___wmul
  2339  077B  0871               	movf	?___wmul+1,w
  2340  077C  00F8               	movwf	lcd_harfyaz@adres+1
  2341  077D  0870               	movf	?___wmul,w
  2342  077E  00F7               	movwf	lcd_harfyaz@adres
  2343                           
  2344                           ;nokia5110.c: 235: }
  2345                           
  2346                           ;nokia5110.c: 234: break;
  2347  077F  2FA6               	goto	l922
  2348  0780                     l920:	
  2349  0780  0876               	movf	lcd_harfyaz@harf,w
  2350                           
  2351                           ; Switch size 1, requested type "space"
  2352                           ; Number of cases is 12, Range of values is 199 to 254
  2353                           ; switch strategies available:
  2354                           ; Name         Instructions Cycles
  2355                           ; simple_byte           37    19 (average)
  2356                           ; direct_byte          121     9 (fixed)
  2357                           ; jumptable            263     9 (fixed)
  2358                           ;	Chosen strategy is simple_byte
  2359  0781  3AC7               	xorlw	199	; case 199
  2360  0782  1903               	skipnz
  2361  0783  2F50               	goto	l132
  2362  0784  3A17               	xorlw	23	; case 208
  2363  0785  1903               	skipnz
  2364  0786  2F52               	goto	l134
  2365  0787  3A06               	xorlw	6	; case 214
  2366  0788  1903               	skipnz
  2367  0789  2F54               	goto	l135
  2368  078A  3A0A               	xorlw	10	; case 220
  2369  078B  1903               	skipnz
  2370  078C  2F56               	goto	l136
  2371  078D  3A01               	xorlw	1	; case 221
  2372  078E  1903               	skipnz
  2373  078F  2F58               	goto	l137
  2374  0790  3A03               	xorlw	3	; case 222
  2375  0791  1903               	skipnz
  2376  0792  2F5A               	goto	l138
  2377  0793  3A39               	xorlw	57	; case 231
  2378  0794  1903               	skipnz
  2379  0795  2F5C               	goto	l139
  2380  0796  3A17               	xorlw	23	; case 240
  2381  0797  1903               	skipnz
  2382  0798  2F5E               	goto	l140
  2383  0799  3A06               	xorlw	6	; case 246
  2384  079A  1903               	skipnz
  2385  079B  2F62               	goto	l141
  2386  079C  3A0A               	xorlw	10	; case 252
  2387  079D  1903               	skipnz
  2388  079E  2F64               	goto	l142
  2389  079F  3A01               	xorlw	1	; case 253
  2390  07A0  1903               	skipnz
  2391  07A1  2F66               	goto	l143
  2392  07A2  3A03               	xorlw	3	; case 254
  2393  07A3  1903               	skipnz
  2394  07A4  2F68               	goto	l144
  2395  07A5  2F6D               	goto	l916
  2396  07A6                     l922:	
  2397                           
  2398                           ;nokia5110.c: 237: lcd_veriyaz(harftablo[adres++]);
  2399  07A6  0878               	movf	lcd_harfyaz@adres+1,w
  2400  07A7  0085               	movwf	5
  2401  07A8  0877               	movf	lcd_harfyaz@adres,w
  2402  07A9  0084               	movwf	4
  2403  07AA  3000               	movlw	low (_harftablo| (0+32768))
  2404  07AB  0784               	addwf	4,f
  2405  07AC  3088               	movlw	high (_harftablo| (0+32768))
  2406  07AD  3D85               	addwfc	5,f
  2407  07AE  0800               	movf	0,w	;code access
  2408  07AF  3186  263F  3187   	fcall	_lcd_veriyaz
  2409  07B2  3001               	movlw	1
  2410  07B3  07F7               	addwf	lcd_harfyaz@adres,f
  2411  07B4  3000               	movlw	0
  2412  07B5  3DF8               	addwfc	lcd_harfyaz@adres+1,f
  2413                           
  2414                           ;nokia5110.c: 238: lcd_veriyaz(harftablo[adres++]);
  2415  07B6  0878               	movf	lcd_harfyaz@adres+1,w
  2416  07B7  0085               	movwf	5
  2417  07B8  0877               	movf	lcd_harfyaz@adres,w
  2418  07B9  0084               	movwf	4
  2419  07BA  3000               	movlw	low (_harftablo| (0+32768))
  2420  07BB  0784               	addwf	4,f
  2421  07BC  3088               	movlw	high (_harftablo| (0+32768))
  2422  07BD  3D85               	addwfc	5,f
  2423  07BE  0800               	movf	0,w	;code access
  2424  07BF  3186  263F  3187   	fcall	_lcd_veriyaz
  2425  07C2  3001               	movlw	1
  2426  07C3  07F7               	addwf	lcd_harfyaz@adres,f
  2427  07C4  3000               	movlw	0
  2428  07C5  3DF8               	addwfc	lcd_harfyaz@adres+1,f
  2429                           
  2430                           ;nokia5110.c: 239: lcd_veriyaz(harftablo[adres++]);
  2431  07C6  0878               	movf	lcd_harfyaz@adres+1,w
  2432  07C7  0085               	movwf	5
  2433  07C8  0877               	movf	lcd_harfyaz@adres,w
  2434  07C9  0084               	movwf	4
  2435  07CA  3000               	movlw	low (_harftablo| (0+32768))
  2436  07CB  0784               	addwf	4,f
  2437  07CC  3088               	movlw	high (_harftablo| (0+32768))
  2438  07CD  3D85               	addwfc	5,f
  2439  07CE  0800               	movf	0,w	;code access
  2440  07CF  3186  263F  3187   	fcall	_lcd_veriyaz
  2441  07D2  3001               	movlw	1
  2442  07D3  07F7               	addwf	lcd_harfyaz@adres,f
  2443  07D4  3000               	movlw	0
  2444  07D5  3DF8               	addwfc	lcd_harfyaz@adres+1,f
  2445                           
  2446                           ;nokia5110.c: 240: lcd_veriyaz(harftablo[adres++]);
  2447  07D6  0878               	movf	lcd_harfyaz@adres+1,w
  2448  07D7  0085               	movwf	5
  2449  07D8  0877               	movf	lcd_harfyaz@adres,w
  2450  07D9  0084               	movwf	4
  2451  07DA  3000               	movlw	low (_harftablo| (0+32768))
  2452  07DB  0784               	addwf	4,f
  2453  07DC  3088               	movlw	high (_harftablo| (0+32768))
  2454  07DD  3D85               	addwfc	5,f
  2455  07DE  0800               	movf	0,w	;code access
  2456  07DF  3186  263F  3187   	fcall	_lcd_veriyaz
  2457  07E2  3001               	movlw	1
  2458  07E3  07F7               	addwf	lcd_harfyaz@adres,f
  2459  07E4  3000               	movlw	0
  2460  07E5  3DF8               	addwfc	lcd_harfyaz@adres+1,f
  2461                           
  2462                           ;nokia5110.c: 241: lcd_veriyaz(harftablo[adres++]);
  2463  07E6  0878               	movf	lcd_harfyaz@adres+1,w
  2464  07E7  0085               	movwf	5
  2465  07E8  0877               	movf	lcd_harfyaz@adres,w
  2466  07E9  0084               	movwf	4
  2467  07EA  3000               	movlw	low (_harftablo| (0+32768))
  2468  07EB  0784               	addwf	4,f
  2469  07EC  3088               	movlw	high (_harftablo| (0+32768))
  2470  07ED  3D85               	addwfc	5,f
  2471  07EE  0800               	movf	0,w	;code access
  2472  07EF  3186  263F  3187   	fcall	_lcd_veriyaz
  2473  07F2  3001               	movlw	1
  2474  07F3  07F7               	addwf	lcd_harfyaz@adres,f
  2475  07F4  3000               	movlw	0
  2476  07F5  3DF8               	addwfc	lcd_harfyaz@adres+1,f
  2477                           
  2478                           ;nokia5110.c: 242: lcd_veriyaz( 0x00);
  2479  07F6  3000               	movlw	0
  2480  07F7  3186  263F         	fcall	_lcd_veriyaz
  2481  07F9  0008               	return
  2482  07FA                     __end_of_lcd_harfyaz:	
  2483                           
  2484                           	psect	text6
  2485  05E9                     __ptext6:	
  2486 ;; *************** function ___wmul *****************
  2487 ;; Defined at:
  2488 ;;		line 15 in file "C:\Program Files (x86)\Microchip\xc8\v1.44\sources\common\Umul16.c"
  2489 ;; Parameters:    Size  Location     Type
  2490 ;;  multiplier      2    0[COMMON] unsigned int 
  2491 ;;  multiplicand    2    2[COMMON] unsigned int 
  2492 ;; Auto vars:     Size  Location     Type
  2493 ;;  product         2    4[COMMON] unsigned int 
  2494 ;; Return value:  Size  Location     Type
  2495 ;;                  2    0[COMMON] unsigned int 
  2496 ;; Registers used:
  2497 ;;		wreg, status,2, status,0
  2498 ;; Tracked objects:
  2499 ;;		On entry : 0/0
  2500 ;;		On exit  : 0/0
  2501 ;;		Unchanged: 0/0
  2502 ;; Data sizes:     COMMON   BANK0   BANK1   BANK2   BANK3   BANK4
  2503 ;;      Params:         4       0       0       0       0       0
  2504 ;;      Locals:         2       0       0       0       0       0
  2505 ;;      Temps:          0       0       0       0       0       0
  2506 ;;      Totals:         6       0       0       0       0       0
  2507 ;;Total ram usage:        6 bytes
  2508 ;; Hardware stack levels used:    1
  2509 ;; This function calls:
  2510 ;;		Nothing
  2511 ;; This function is called by:
  2512 ;;		_lcd_harfyaz
  2513 ;; This function uses a non-reentrant model
  2514 ;;
  2515                           
  2516                           
  2517                           ;psect for function ___wmul
  2518  05E9                     ___wmul:	
  2519                           
  2520                           ;incstack = 0
  2521                           ; Regs used in ___wmul: [wreg+status,2+status,0]
  2522  05E9  01F4               	clrf	___wmul@product
  2523  05EA  01F5               	clrf	___wmul@product+1
  2524  05EB                     l862:	
  2525  05EB  1C70               	btfss	___wmul@multiplier,0
  2526  05EC  2DF1               	goto	l260
  2527  05ED  0872               	movf	___wmul@multiplicand,w
  2528  05EE  07F4               	addwf	___wmul@product,f
  2529  05EF  0873               	movf	___wmul@multiplicand+1,w
  2530  05F0  3DF5               	addwfc	___wmul@product+1,f
  2531  05F1                     l260:	
  2532  05F1  3001               	movlw	1
  2533  05F2                     u255:	
  2534  05F2  35F2               	lslf	___wmul@multiplicand,f
  2535  05F3  0DF3               	rlf	___wmul@multiplicand+1,f
  2536  05F4  0B89               	decfsz	9,f
  2537  05F5  2DF2               	goto	u255
  2538  05F6  3001               	movlw	1
  2539  05F7                     u265:	
  2540  05F7  36F1               	lsrf	___wmul@multiplier+1,f
  2541  05F8  0CF0               	rrf	___wmul@multiplier,f
  2542  05F9  0B89               	decfsz	9,f
  2543  05FA  2DF7               	goto	u265
  2544  05FB  0870               	movf	___wmul@multiplier,w
  2545  05FC  0471               	iorwf	___wmul@multiplier+1,w
  2546  05FD  1D03               	btfss	3,2
  2547  05FE  2DEB               	goto	l862
  2548  05FF  0875               	movf	___wmul@product+1,w
  2549  0600  00F1               	movwf	?___wmul+1
  2550  0601  0874               	movf	___wmul@product,w
  2551  0602  00F0               	movwf	?___wmul
  2552  0603  0008               	return
  2553  0604                     __end_of___wmul:	
  2554                           
  2555                           	psect	text7
  2556  05BD                     __ptext7:	
  2557 ;; *************** function _lcd_git *****************
  2558 ;; Defined at:
  2559 ;;		line 155 in file "nokia5110.c"
  2560 ;; Parameters:    Size  Location     Type
  2561 ;;  satir           1    wreg     unsigned char 
  2562 ;;  sutun           1    4[COMMON] unsigned char 
  2563 ;; Auto vars:     Size  Location     Type
  2564 ;;  satir           1    6[COMMON] unsigned char 
  2565 ;; Return value:  Size  Location     Type
  2566 ;;                  1    wreg      void 
  2567 ;; Registers used:
  2568 ;;		wreg, status,2, status,0, pclath, cstack
  2569 ;; Tracked objects:
  2570 ;;		On entry : 0/0
  2571 ;;		On exit  : 0/0
  2572 ;;		Unchanged: 0/0
  2573 ;; Data sizes:     COMMON   BANK0   BANK1   BANK2   BANK3   BANK4
  2574 ;;      Params:         1       0       0       0       0       0
  2575 ;;      Locals:         1       0       0       0       0       0
  2576 ;;      Temps:          1       0       0       0       0       0
  2577 ;;      Totals:         3       0       0       0       0       0
  2578 ;;Total ram usage:        3 bytes
  2579 ;; Hardware stack levels used:    1
  2580 ;; Hardware stack levels required when called:    1
  2581 ;; This function calls:
  2582 ;;		___bmul
  2583 ;;		_lcd_veriyaz
  2584 ;; This function is called by:
  2585 ;;		_lcd_mesajyaz
  2586 ;;		_lcd_sil
  2587 ;;		_lcd_satirsil
  2588 ;; This function uses a non-reentrant model
  2589 ;;
  2590                           
  2591                           
  2592                           ;psect for function _lcd_git
  2593  05BD                     _lcd_git:	
  2594                           
  2595                           ;incstack = 0
  2596                           ; Regs used in _lcd_git: [wreg+status,2+status,0+pclath+cstack]
  2597                           ;lcd_git@satir stored from wreg
  2598  05BD  00F6               	movwf	lcd_git@satir
  2599                           
  2600                           ;nokia5110.c: 157: LATB3=0;
  2601  05BE  0022               	movlb	2	; select bank2
  2602  05BF  118D               	bcf	13,3	;volatile
  2603                           
  2604                           ;nokia5110.c: 158: lcd_veriyaz(0x40 | satir);
  2605  05C0  0876               	movf	lcd_git@satir,w
  2606  05C1  3840               	iorlw	64
  2607  05C2  3186  263F  3185   	fcall	_lcd_veriyaz
  2608                           
  2609                           ;nokia5110.c: 159: lcd_veriyaz(0x80 | (sutun*6));
  2610  05C5  3006               	movlw	6
  2611  05C6  00F5               	movwf	??_lcd_git
  2612  05C7  0875               	movf	??_lcd_git,w
  2613  05C8  00F0               	movwf	___bmul@multiplicand
  2614  05C9  0874               	movf	lcd_git@sutun,w
  2615  05CA  3185  25AC  3185   	fcall	___bmul
  2616  05CD  3880               	iorlw	128
  2617  05CE  3186  263F         	fcall	_lcd_veriyaz
  2618  05D0  0008               	return
  2619  05D1                     __end_of_lcd_git:	
  2620                           
  2621                           	psect	text8
  2622  05AC                     __ptext8:	
  2623 ;; *************** function ___bmul *****************
  2624 ;; Defined at:
  2625 ;;		line 4 in file "C:\Program Files (x86)\Microchip\xc8\v1.44\sources\common\Umul8.c"
  2626 ;; Parameters:    Size  Location     Type
  2627 ;;  multiplier      1    wreg     unsigned char 
  2628 ;;  multiplicand    1    0[COMMON] unsigned char 
  2629 ;; Auto vars:     Size  Location     Type
  2630 ;;  multiplier      1    3[COMMON] unsigned char 
  2631 ;;  product         1    2[COMMON] unsigned char 
  2632 ;; Return value:  Size  Location     Type
  2633 ;;                  1    wreg      unsigned char 
  2634 ;; Registers used:
  2635 ;;		wreg, status,2, status,0
  2636 ;; Tracked objects:
  2637 ;;		On entry : 0/0
  2638 ;;		On exit  : 0/0
  2639 ;;		Unchanged: 0/0
  2640 ;; Data sizes:     COMMON   BANK0   BANK1   BANK2   BANK3   BANK4
  2641 ;;      Params:         1       0       0       0       0       0
  2642 ;;      Locals:         2       0       0       0       0       0
  2643 ;;      Temps:          1       0       0       0       0       0
  2644 ;;      Totals:         4       0       0       0       0       0
  2645 ;;Total ram usage:        4 bytes
  2646 ;; Hardware stack levels used:    1
  2647 ;; This function calls:
  2648 ;;		Nothing
  2649 ;; This function is called by:
  2650 ;;		_lcd_git
  2651 ;; This function uses a non-reentrant model
  2652 ;;
  2653                           
  2654                           
  2655                           ;psect for function ___bmul
  2656  05AC                     ___bmul:	
  2657                           
  2658                           ;incstack = 0
  2659                           ; Regs used in ___bmul: [wreg+status,2+status,0]
  2660                           ;___bmul@multiplier stored from wreg
  2661  05AC  00F3               	movwf	___bmul@multiplier
  2662  05AD  01F2               	clrf	___bmul@product
  2663  05AE                     l876:	
  2664  05AE  1C73               	btfss	___bmul@multiplier,0
  2665  05AF  2DB4               	goto	l880
  2666  05B0  0870               	movf	___bmul@multiplicand,w
  2667  05B1  00F1               	movwf	??___bmul
  2668  05B2  0871               	movf	??___bmul,w
  2669  05B3  07F2               	addwf	___bmul@product,f
  2670  05B4                     l880:	
  2671  05B4  1003               	clrc
  2672  05B5  0DF0               	rlf	___bmul@multiplicand,f
  2673  05B6  1003               	clrc
  2674  05B7  0CF3               	rrf	___bmul@multiplier,f
  2675  05B8  0873               	movf	___bmul@multiplier,w
  2676  05B9  1D03               	btfss	3,2
  2677  05BA  2DAE               	goto	l876
  2678  05BB  0872               	movf	___bmul@product,w
  2679  05BC  0008               	return
  2680  05BD                     __end_of___bmul:	
  2681                           
  2682                           	psect	text9
  2683  0590                     __ptext9:	
  2684 ;; *************** function _lcd_ekrani_tersle *****************
  2685 ;; Defined at:
  2686 ;;		line 305 in file "nokia5110.c"
  2687 ;; Parameters:    Size  Location     Type
  2688 ;;		None
  2689 ;; Auto vars:     Size  Location     Type
  2690 ;;		None
  2691 ;; Return value:  Size  Location     Type
  2692 ;;                  1    wreg      void 
  2693 ;; Registers used:
  2694 ;;		wreg, status,2, status,0, pclath, cstack
  2695 ;; Tracked objects:
  2696 ;;		On entry : 0/0
  2697 ;;		On exit  : 0/0
  2698 ;;		Unchanged: 0/0
  2699 ;; Data sizes:     COMMON   BANK0   BANK1   BANK2   BANK3   BANK4
  2700 ;;      Params:         0       0       0       0       0       0
  2701 ;;      Locals:         0       0       0       0       0       0
  2702 ;;      Temps:          0       0       0       0       0       0
  2703 ;;      Totals:         0       0       0       0       0       0
  2704 ;;Total ram usage:        0 bytes
  2705 ;; Hardware stack levels used:    1
  2706 ;; Hardware stack levels required when called:    1
  2707 ;; This function calls:
  2708 ;;		_lcd_veriyaz
  2709 ;; This function is called by:
  2710 ;;		_main
  2711 ;; This function uses a non-reentrant model
  2712 ;;
  2713                           
  2714                           
  2715                           ;psect for function _lcd_ekrani_tersle
  2716  0590                     _lcd_ekrani_tersle:	
  2717                           
  2718                           ;nokia5110.c: 307: LATB3=0;
  2719                           
  2720                           ;incstack = 0
  2721                           ; Regs used in _lcd_ekrani_tersle: [wreg+status,2+status,0+pclath+cstack]
  2722  0590  0022               	movlb	2	; select bank2
  2723  0591  118D               	bcf	13,3	;volatile
  2724                           
  2725                           ;nokia5110.c: 308: lcd_veriyaz(0x0D);
  2726  0592  300D               	movlw	13
  2727  0593  3186  263F         	fcall	_lcd_veriyaz
  2728  0595  0008               	return
  2729  0596                     __end_of_lcd_ekrani_tersle:	
  2730                           
  2731                           	psect	text10
  2732  0664                     __ptext10:	
  2733 ;; *************** function _lcd_baslat *****************
  2734 ;; Defined at:
  2735 ;;		line 127 in file "nokia5110.c"
  2736 ;; Parameters:    Size  Location     Type
  2737 ;;		None
  2738 ;; Auto vars:     Size  Location     Type
  2739 ;;		None
  2740 ;; Return value:  Size  Location     Type
  2741 ;;                  1    wreg      void 
  2742 ;; Registers used:
  2743 ;;		wreg, status,2, status,0, pclath, cstack
  2744 ;; Tracked objects:
  2745 ;;		On entry : 0/0
  2746 ;;		On exit  : 0/0
  2747 ;;		Unchanged: 0/0
  2748 ;; Data sizes:     COMMON   BANK0   BANK1   BANK2   BANK3   BANK4
  2749 ;;      Params:         0       0       0       0       0       0
  2750 ;;      Locals:         0       0       0       0       0       0
  2751 ;;      Temps:          0       0       0       0       0       0
  2752 ;;      Totals:         0       0       0       0       0       0
  2753 ;;Total ram usage:        0 bytes
  2754 ;; Hardware stack levels used:    1
  2755 ;; Hardware stack levels required when called:    1
  2756 ;; This function calls:
  2757 ;;		_lcd_veriyaz
  2758 ;; This function is called by:
  2759 ;;		_main
  2760 ;; This function uses a non-reentrant model
  2761 ;;
  2762                           
  2763                           
  2764                           ;psect for function _lcd_baslat
  2765  0664                     _lcd_baslat:	
  2766                           
  2767                           ;nokia5110.c: 128: TRISB6 = 0;
  2768                           
  2769                           ;incstack = 0
  2770                           ; Regs used in _lcd_baslat: [wreg+status,2+status,0+pclath+cstack]
  2771  0664  0021               	movlb	1	; select bank1
  2772  0665  130D               	bcf	13,6	;volatile
  2773                           
  2774                           ;nokia5110.c: 129: TRISB5 = 0;
  2775  0666  128D               	bcf	13,5	;volatile
  2776                           
  2777                           ;nokia5110.c: 130: TRISB4 = 0;
  2778  0667  120D               	bcf	13,4	;volatile
  2779                           
  2780                           ;nokia5110.c: 131: TRISB3 = 0;
  2781  0668  118D               	bcf	13,3	;volatile
  2782                           
  2783                           ;nokia5110.c: 132: TRISB7 = 0;
  2784  0669  138D               	bcf	13,7	;volatile
  2785                           
  2786                           ;nokia5110.c: 134: LATB4=0;
  2787  066A  0022               	movlb	2	; select bank2
  2788  066B  120D               	bcf	13,4	;volatile
  2789                           
  2790                           ;nokia5110.c: 135: LATB5=0;
  2791  066C  128D               	bcf	13,5	;volatile
  2792                           
  2793                           ;nokia5110.c: 136: LATB3=0;
  2794  066D  118D               	bcf	13,3	;volatile
  2795                           
  2796                           ;nokia5110.c: 139: LATB7=0;
  2797  066E  138D               	bcf	13,7	;volatile
  2798                           
  2799                           ;nokia5110.c: 140: LATB7=1;
  2800  066F  178D               	bsf	13,7	;volatile
  2801                           
  2802                           ;nokia5110.c: 142: LATB3=0;
  2803  0670  118D               	bcf	13,3	;volatile
  2804                           
  2805                           ;nokia5110.c: 143: lcd_veriyaz(0x21);
  2806  0671  3021               	movlw	33
  2807  0672  3186  263F  3186   	fcall	_lcd_veriyaz
  2808                           
  2809                           ;nokia5110.c: 144: lcd_veriyaz(lcd_kontrast);
  2810  0675  0020               	movlb	0	; select bank0
  2811  0676  0823               	movf	_lcd_kontrast,w
  2812  0677  3186  263F  3186   	fcall	_lcd_veriyaz
  2813                           
  2814                           ;nokia5110.c: 145: lcd_veriyaz(0x04);
  2815  067A  3004               	movlw	4
  2816  067B  3186  263F  3186   	fcall	_lcd_veriyaz
  2817                           
  2818                           ;nokia5110.c: 146: lcd_veriyaz(0x14);
  2819  067E  3014               	movlw	20
  2820  067F  3186  263F  3186   	fcall	_lcd_veriyaz
  2821                           
  2822                           ;nokia5110.c: 147: lcd_veriyaz(0x20);
  2823  0682  3020               	movlw	32
  2824  0683  3186  263F  3186   	fcall	_lcd_veriyaz
  2825                           
  2826                           ;nokia5110.c: 148: lcd_veriyaz(0x0C);
  2827  0686  300C               	movlw	12
  2828  0687  3186  263F         	fcall	_lcd_veriyaz
  2829  0689  0008               	return
  2830  068A                     __end_of_lcd_baslat:	
  2831                           
  2832                           	psect	text11
  2833  063F                     __ptext11:	
  2834 ;; *************** function _lcd_veriyaz *****************
  2835 ;; Defined at:
  2836 ;;		line 326 in file "nokia5110.c"
  2837 ;; Parameters:    Size  Location     Type
  2838 ;;  veri            1    wreg     unsigned char 
  2839 ;; Auto vars:     Size  Location     Type
  2840 ;;  veri            1    1[COMMON] unsigned char 
  2841 ;;  i               1    2[COMMON] unsigned char 
  2842 ;; Return value:  Size  Location     Type
  2843 ;;                  1    wreg      void 
  2844 ;; Registers used:
  2845 ;;		wreg, status,2, status,0
  2846 ;; Tracked objects:
  2847 ;;		On entry : 0/0
  2848 ;;		On exit  : 0/0
  2849 ;;		Unchanged: 0/0
  2850 ;; Data sizes:     COMMON   BANK0   BANK1   BANK2   BANK3   BANK4
  2851 ;;      Params:         0       0       0       0       0       0
  2852 ;;      Locals:         2       0       0       0       0       0
  2853 ;;      Temps:          1       0       0       0       0       0
  2854 ;;      Totals:         3       0       0       0       0       0
  2855 ;;Total ram usage:        3 bytes
  2856 ;; Hardware stack levels used:    1
  2857 ;; This function calls:
  2858 ;;		Nothing
  2859 ;; This function is called by:
  2860 ;;		_lcd_baslat
  2861 ;;		_lcd_git
  2862 ;;		_lcd_harfyaz
  2863 ;;		_lcd_sil
  2864 ;;		_lcd_satirsil
  2865 ;;		_lcd_ekrani_tersle
  2866 ;;		_lcd_normalmode
  2867 ;;		_lcd_kontrast_artir
  2868 ;; This function uses a non-reentrant model
  2869 ;;
  2870                           
  2871                           
  2872                           ;psect for function _lcd_veriyaz
  2873  063F                     _lcd_veriyaz:	
  2874                           
  2875                           ;incstack = 0
  2876                           ; Regs used in _lcd_veriyaz: [wreg+status,2+status,0]
  2877                           ;lcd_veriyaz@veri stored from wreg
  2878  063F  00F1               	movwf	lcd_veriyaz@veri
  2879                           
  2880                           ;nokia5110.c: 328: char i;
  2881                           ;nokia5110.c: 330: LATB6=0;
  2882  0640  0022               	movlb	2	; select bank2
  2883  0641  130D               	bcf	13,6	;volatile
  2884                           
  2885                           ;nokia5110.c: 332: for(i=0;i<8;i++)
  2886  0642  01F2               	clrf	lcd_veriyaz@i
  2887  0643  3008               	movlw	8
  2888  0644  0272               	subwf	lcd_veriyaz@i,w
  2889  0645  1803               	btfsc	3,0
  2890  0646  2E62               	goto	l172
  2891  0647                     l848:	
  2892                           
  2893                           ;nokia5110.c: 333: {
  2894                           ;nokia5110.c: 334: veri=veri<<1;
  2895  0647  3571               	lslf	lcd_veriyaz@veri,w
  2896  0648  00F0               	movwf	??_lcd_veriyaz
  2897  0649  0870               	movf	??_lcd_veriyaz,w
  2898  064A  00F1               	movwf	lcd_veriyaz@veri
  2899                           
  2900                           ;nokia5110.c: 335: LATB4=CARRY;
  2901  064B  0020               	movlb	0	; select bank0
  2902  064C  1C03               	btfss	3,0	;volatile
  2903  064D  2E51               	goto	u210
  2904  064E  0022               	movlb	2	; select bank2
  2905  064F  160D               	bsf	13,4	;volatile
  2906  0650  2E53               	goto	l852
  2907  0651                     u210:	
  2908  0651  0022               	movlb	2	; select bank2
  2909  0652  120D               	bcf	13,4	;volatile
  2910  0653                     l852:	
  2911                           
  2912                           ;nokia5110.c: 336: LATB5=1;
  2913  0653  168D               	bsf	13,5	;volatile
  2914                           
  2915                           ;nokia5110.c: 337: _delay((unsigned long)((1)*(32000000/4000000.0)));
  2916  0654  3200               	nop2	;2 cycle nop
  2917  0655  3200               	nop2	;2 cycle nop
  2918  0656  3200               	nop2	;2 cycle nop
  2919  0657  3200               	nop2	;2 cycle nop
  2920                           
  2921                           ;nokia5110.c: 338: LATB5=0;
  2922  0658  0022               	movlb	2	; select bank2
  2923  0659  128D               	bcf	13,5	;volatile
  2924  065A  3001               	movlw	1
  2925  065B  00F0               	movwf	??_lcd_veriyaz
  2926  065C  0870               	movf	??_lcd_veriyaz,w
  2927  065D  07F2               	addwf	lcd_veriyaz@i,f
  2928  065E  3008               	movlw	8
  2929  065F  0272               	subwf	lcd_veriyaz@i,w
  2930  0660  1C03               	skipc
  2931  0661  2E47               	goto	l848
  2932  0662                     l172:	
  2933                           
  2934                           ;nokia5110.c: 339: }
  2935                           ;nokia5110.c: 341: LATB6=1;
  2936  0662  170D               	bsf	13,6	;volatile
  2937  0663  0008               	return
  2938  0664                     __end_of_lcd_veriyaz:	
  2939                           
  2940                           	psect	text12
  2941  05A3                     __ptext12:	
  2942 ;; *************** function _SYSTEM_Initialize *****************
  2943 ;; Defined at:
  2944 ;;		line 69 in file "mcc_generated_files/mcc.c"
  2945 ;; Parameters:    Size  Location     Type
  2946 ;;		None
  2947 ;; Auto vars:     Size  Location     Type
  2948 ;;		None
  2949 ;; Return value:  Size  Location     Type
  2950 ;;                  1    wreg      void 
  2951 ;; Registers used:
  2952 ;;		wreg, status,2, status,0, pclath, cstack
  2953 ;; Tracked objects:
  2954 ;;		On entry : 0/0
  2955 ;;		On exit  : 0/0
  2956 ;;		Unchanged: 0/0
  2957 ;; Data sizes:     COMMON   BANK0   BANK1   BANK2   BANK3   BANK4
  2958 ;;      Params:         0       0       0       0       0       0
  2959 ;;      Locals:         0       0       0       0       0       0
  2960 ;;      Temps:          0       0       0       0       0       0
  2961 ;;      Totals:         0       0       0       0       0       0
  2962 ;;Total ram usage:        0 bytes
  2963 ;; Hardware stack levels used:    1
  2964 ;; Hardware stack levels required when called:    1
  2965 ;; This function calls:
  2966 ;;		_OSCILLATOR_Initialize
  2967 ;;		_PIN_MANAGER_Initialize
  2968 ;;		_WDT_Initialize
  2969 ;; This function is called by:
  2970 ;;		_main
  2971 ;; This function uses a non-reentrant model
  2972 ;;
  2973                           
  2974                           
  2975                           ;psect for function _SYSTEM_Initialize
  2976  05A3                     _SYSTEM_Initialize:	
  2977                           
  2978                           ;mcc.c: 72: PIN_MANAGER_Initialize();
  2979                           
  2980                           ;incstack = 0
  2981                           ; Regs used in _SYSTEM_Initialize: [wreg+status,2+status,0+pclath+cstack]
  2982  05A3  3185  25D1  3185   	fcall	_PIN_MANAGER_Initialize
  2983                           
  2984                           ;mcc.c: 73: OSCILLATOR_Initialize();
  2985  05A6  3185  259C  3185   	fcall	_OSCILLATOR_Initialize
  2986                           
  2987                           ;mcc.c: 74: WDT_Initialize();
  2988  05A9  3185  258C         	fcall	_WDT_Initialize
  2989  05AB  0008               	return
  2990  05AC                     __end_of_SYSTEM_Initialize:	
  2991                           
  2992                           	psect	text13
  2993  058C                     __ptext13:	
  2994 ;; *************** function _WDT_Initialize *****************
  2995 ;; Defined at:
  2996 ;;		line 89 in file "mcc_generated_files/mcc.c"
  2997 ;; Parameters:    Size  Location     Type
  2998 ;;		None
  2999 ;; Auto vars:     Size  Location     Type
  3000 ;;		None
  3001 ;; Return value:  Size  Location     Type
  3002 ;;                  1    wreg      void 
  3003 ;; Registers used:
  3004 ;;		wreg
  3005 ;; Tracked objects:
  3006 ;;		On entry : 0/0
  3007 ;;		On exit  : 0/0
  3008 ;;		Unchanged: 0/0
  3009 ;; Data sizes:     COMMON   BANK0   BANK1   BANK2   BANK3   BANK4
  3010 ;;      Params:         0       0       0       0       0       0
  3011 ;;      Locals:         0       0       0       0       0       0
  3012 ;;      Temps:          0       0       0       0       0       0
  3013 ;;      Totals:         0       0       0       0       0       0
  3014 ;;Total ram usage:        0 bytes
  3015 ;; Hardware stack levels used:    1
  3016 ;; This function calls:
  3017 ;;		Nothing
  3018 ;; This function is called by:
  3019 ;;		_SYSTEM_Initialize
  3020 ;; This function uses a non-reentrant model
  3021 ;;
  3022                           
  3023                           
  3024                           ;psect for function _WDT_Initialize
  3025  058C                     _WDT_Initialize:	
  3026                           
  3027                           ;mcc.c: 92: WDTCON = 0x16;
  3028                           
  3029                           ;incstack = 0
  3030                           ; Regs used in _WDT_Initialize: [wreg]
  3031  058C  3016               	movlw	22
  3032  058D  0021               	movlb	1	; select bank1
  3033  058E  0097               	movwf	23	;volatile
  3034  058F  0008               	return
  3035  0590                     __end_of_WDT_Initialize:	
  3036                           
  3037                           	psect	text14
  3038  05D1                     __ptext14:	
  3039 ;; *************** function _PIN_MANAGER_Initialize *****************
  3040 ;; Defined at:
  3041 ;;		line 52 in file "mcc_generated_files/pin_manager.c"
  3042 ;; Parameters:    Size  Location     Type
  3043 ;;		None
  3044 ;; Auto vars:     Size  Location     Type
  3045 ;;		None
  3046 ;; Return value:  Size  Location     Type
  3047 ;;                  1    wreg      void 
  3048 ;; Registers used:
  3049 ;;		wreg, status,2
  3050 ;; Tracked objects:
  3051 ;;		On entry : 0/0
  3052 ;;		On exit  : 0/0
  3053 ;;		Unchanged: 0/0
  3054 ;; Data sizes:     COMMON   BANK0   BANK1   BANK2   BANK3   BANK4
  3055 ;;      Params:         0       0       0       0       0       0
  3056 ;;      Locals:         0       0       0       0       0       0
  3057 ;;      Temps:          0       0       0       0       0       0
  3058 ;;      Totals:         0       0       0       0       0       0
  3059 ;;Total ram usage:        0 bytes
  3060 ;; Hardware stack levels used:    1
  3061 ;; This function calls:
  3062 ;;		Nothing
  3063 ;; This function is called by:
  3064 ;;		_SYSTEM_Initialize
  3065 ;; This function uses a non-reentrant model
  3066 ;;
  3067                           
  3068                           
  3069                           ;psect for function _PIN_MANAGER_Initialize
  3070  05D1                     _PIN_MANAGER_Initialize:	
  3071                           
  3072                           ;pin_manager.c: 57: LATA = 0x00;
  3073                           
  3074                           ;incstack = 0
  3075                           ; Regs used in _PIN_MANAGER_Initialize: [wreg+status,2]
  3076  05D1  0022               	movlb	2	; select bank2
  3077  05D2  018C               	clrf	12	;volatile
  3078                           
  3079                           ;pin_manager.c: 58: LATB = 0x00;
  3080  05D3  018D               	clrf	13	;volatile
  3081                           
  3082                           ;pin_manager.c: 63: TRISA = 0xFF;
  3083  05D4  30FF               	movlw	255
  3084  05D5  0021               	movlb	1	; select bank1
  3085  05D6  008C               	movwf	12	;volatile
  3086                           
  3087                           ;pin_manager.c: 64: TRISB = 0x06;
  3088  05D7  3006               	movlw	6
  3089  05D8  008D               	movwf	13	;volatile
  3090                           
  3091                           ;pin_manager.c: 69: ANSELB = 0xFE;
  3092  05D9  30FE               	movlw	254
  3093  05DA  0023               	movlb	3	; select bank3
  3094  05DB  008D               	movwf	13	;volatile
  3095                           
  3096                           ;pin_manager.c: 70: ANSELA = 0x1F;
  3097  05DC  301F               	movlw	31
  3098  05DD  008C               	movwf	12	;volatile
  3099                           
  3100                           ;pin_manager.c: 75: WPUB = 0xFF;
  3101  05DE  30FF               	movlw	255
  3102  05DF  0024               	movlb	4	; select bank4
  3103  05E0  008D               	movwf	13	;volatile
  3104                           
  3105                           ;pin_manager.c: 76: WPUA = 0x20;
  3106  05E1  3020               	movlw	32
  3107  05E2  008C               	movwf	12	;volatile
  3108                           
  3109                           ;pin_manager.c: 77: OPTION_REGbits.nWPUEN = 0;
  3110  05E3  0021               	movlb	1	; select bank1
  3111  05E4  1395               	bcf	21,7	;volatile
  3112                           
  3113                           ;pin_manager.c: 83: APFCON1 = 0x00;
  3114  05E5  0022               	movlb	2	; select bank2
  3115  05E6  019E               	clrf	30	;volatile
  3116                           
  3117                           ;pin_manager.c: 84: APFCON0 = 0x00;
  3118  05E7  019D               	clrf	29	;volatile
  3119  05E8  0008               	return
  3120  05E9                     __end_of_PIN_MANAGER_Initialize:	
  3121                           
  3122                           	psect	text15
  3123  059C                     __ptext15:	
  3124 ;; *************** function _OSCILLATOR_Initialize *****************
  3125 ;; Defined at:
  3126 ;;		line 77 in file "mcc_generated_files/mcc.c"
  3127 ;; Parameters:    Size  Location     Type
  3128 ;;		None
  3129 ;; Auto vars:     Size  Location     Type
  3130 ;;		None
  3131 ;; Return value:  Size  Location     Type
  3132 ;;                  1    wreg      void 
  3133 ;; Registers used:
  3134 ;;		wreg, status,2
  3135 ;; Tracked objects:
  3136 ;;		On entry : 0/0
  3137 ;;		On exit  : 0/0
  3138 ;;		Unchanged: 0/0
  3139 ;; Data sizes:     COMMON   BANK0   BANK1   BANK2   BANK3   BANK4
  3140 ;;      Params:         0       0       0       0       0       0
  3141 ;;      Locals:         0       0       0       0       0       0
  3142 ;;      Temps:          0       0       0       0       0       0
  3143 ;;      Totals:         0       0       0       0       0       0
  3144 ;;Total ram usage:        0 bytes
  3145 ;; Hardware stack levels used:    1
  3146 ;; This function calls:
  3147 ;;		Nothing
  3148 ;; This function is called by:
  3149 ;;		_SYSTEM_Initialize
  3150 ;; This function uses a non-reentrant model
  3151 ;;
  3152                           
  3153                           
  3154                           ;psect for function _OSCILLATOR_Initialize
  3155  059C                     _OSCILLATOR_Initialize:	
  3156                           
  3157                           ;mcc.c: 80: OSCCON = 0x38;
  3158                           
  3159                           ;incstack = 0
  3160                           ; Regs used in _OSCILLATOR_Initialize: [wreg+status,2]
  3161  059C  3038               	movlw	56
  3162  059D  0021               	movlb	1	; select bank1
  3163  059E  0099               	movwf	25	;volatile
  3164                           
  3165                           ;mcc.c: 82: OSCTUNE = 0x00;
  3166  059F  0198               	clrf	24	;volatile
  3167  05A0                     l20:	
  3168                           ;mcc.c: 85: {
  3169                           
  3170                           ;mcc.c: 84: while(PLLR == 0)
  3171                           
  3172  05A0  1B1A               	btfsc	26,6	;volatile
  3173  05A1  0008               	return
  3174  05A2  2DA0               	goto	l20
  3175  05A3                     __end_of_OSCILLATOR_Initialize:	
  3176  007E                     btemp	set	126	;btemp
  3177  007E                     wtemp0	set	126


Data Sizes:
    Strings     134
    Constant    535
    Data        1
    BSS         0
    Persistent  0
    Stack       0

Auto Spaces:
    Space          Size  Autos    Used
    COMMON           14     14      14
    BANK0            80      3       4
    BANK1            80      0       0
    BANK2            80      0       0
    BANK3            80      0       0
    BANK4            48      0       0

Pointer List with Targets:

    lcd_mesajyaz@mesaj	PTR const unsigned char  size(2) Largest target is 85
		 -> STR_5(CODE[14]), STR_4(CODE[85]), STR_3(CODE[14]), STR_2(CODE[10]), 
		 -> STR_1(CODE[11]), 


Critical Paths under _main in COMMON

    _main->_lcd_mesajyaz
    _lcd_sil->_lcd_git
    _lcd_satirsil->_lcd_git
    _lcd_normalmode->_lcd_veriyaz
    _lcd_mesajyaz->_lcd_harfyaz
    _lcd_harfyaz->___wmul
    _lcd_git->___bmul
    _lcd_ekrani_tersle->_lcd_veriyaz
    _lcd_baslat->_lcd_veriyaz

Critical Paths under _main in BANK0

    None.

Critical Paths under _main in BANK1

    None.

Critical Paths under _main in BANK2

    None.

Critical Paths under _main in BANK3

    None.

Critical Paths under _main in BANK4

    None.

Call Graph Tables:

 ---------------------------------------------------------------------------------
 (Depth) Function   	        Calls       Base Space   Used Autos Params    Refs
 ---------------------------------------------------------------------------------
 (0) _main                                                 3     3      0    3176
                                              0 BANK0      3     3      0
                  _SYSTEM_Initialize
                         _lcd_baslat
                  _lcd_ekrani_tersle
                       _lcd_mesajyaz
                     _lcd_normalmode
                       _lcd_satirsil
                            _lcd_sil
 ---------------------------------------------------------------------------------
 (1) _lcd_sil                                              3     3      0     638
                                              7 COMMON     3     3      0
                            _lcd_git
                        _lcd_veriyaz
 ---------------------------------------------------------------------------------
 (1) _lcd_satirsil                                         3     3      0     682
                                              7 COMMON     3     3      0
                            _lcd_git
                        _lcd_veriyaz
 ---------------------------------------------------------------------------------
 (1) _lcd_normalmode                                       0     0      0      69
                        _lcd_veriyaz
 ---------------------------------------------------------------------------------
 (1) _lcd_mesajyaz                                         5     2      3    1581
                                              9 COMMON     5     2      3
                            _lcd_git
                        _lcd_harfyaz
 ---------------------------------------------------------------------------------
 (2) _lcd_harfyaz                                          3     3      0     439
                                              6 COMMON     3     3      0
                             ___wmul
                        _lcd_veriyaz
 ---------------------------------------------------------------------------------
 (3) ___wmul                                               6     2      4     198
                                              0 COMMON     6     2      4
 ---------------------------------------------------------------------------------
 (2) _lcd_git                                              3     2      1     523
                                              4 COMMON     3     2      1
                             ___bmul
                        _lcd_veriyaz
 ---------------------------------------------------------------------------------
 (3) ___bmul                                               4     3      1     145
                                              0 COMMON     4     3      1
 ---------------------------------------------------------------------------------
 (1) _lcd_ekrani_tersle                                    0     0      0      69
                        _lcd_veriyaz
 ---------------------------------------------------------------------------------
 (1) _lcd_baslat                                           0     0      0      69
                        _lcd_veriyaz
 ---------------------------------------------------------------------------------
 (2) _lcd_veriyaz                                          3     3      0      69
                                              0 COMMON     3     3      0
 ---------------------------------------------------------------------------------
 (1) _SYSTEM_Initialize                                    0     0      0       0
              _OSCILLATOR_Initialize
             _PIN_MANAGER_Initialize
                     _WDT_Initialize
 ---------------------------------------------------------------------------------
 (2) _WDT_Initialize                                       0     0      0       0
 ---------------------------------------------------------------------------------
 (2) _PIN_MANAGER_Initialize                               0     0      0       0
 ---------------------------------------------------------------------------------
 (2) _OSCILLATOR_Initialize                                0     0      0       0
 ---------------------------------------------------------------------------------
 Estimated maximum stack depth 3
 ---------------------------------------------------------------------------------

 Call Graph Graphs:

 _main (ROOT)
   _SYSTEM_Initialize
     _OSCILLATOR_Initialize
     _PIN_MANAGER_Initialize
     _WDT_Initialize
   _lcd_baslat
     _lcd_veriyaz
   _lcd_ekrani_tersle
     _lcd_veriyaz
   _lcd_mesajyaz
     _lcd_git
       ___bmul
       _lcd_veriyaz
     _lcd_harfyaz
       ___wmul
       _lcd_veriyaz
   _lcd_normalmode
     _lcd_veriyaz
   _lcd_satirsil
     _lcd_git
       ___bmul
       _lcd_veriyaz
     _lcd_veriyaz
   _lcd_sil
     _lcd_git
       ___bmul
       _lcd_veriyaz
     _lcd_veriyaz

 Address spaces:
Name               Size   Autos  Total    Cost      Usage
BIGRAM             170      0       0       0        0.0%
EEDATA             100      0       0       0        0.0%
NULL                 0      0       0       0        0.0%
CODE                 0      0       0       0        0.0%
BITCOMMON            E      0       0       1        0.0%
BITSFR0              0      0       0       1        0.0%
SFR0                 0      0       0       1        0.0%
COMMON               E      E       E       2      100.0%
BITSFR1              0      0       0       2        0.0%
SFR1                 0      0       0       2        0.0%
BITSFR2              0      0       0       3        0.0%
SFR2                 0      0       0       3        0.0%
STACK                0      0       0       3        0.0%
BITSFR3              0      0       0       4        0.0%
SFR3                 0      0       0       4        0.0%
ABS                  0      0      12       4        0.0%
BITBANK0            50      0       0       5        0.0%
BITSFR4              0      0       0       5        0.0%
SFR4                 0      0       0       5        0.0%
BANK0               50      3       4       6        5.0%
BITSFR5              0      0       0       6        0.0%
SFR5                 0      0       0       6        0.0%
BITBANK1            50      0       0       7        0.0%
BITSFR6              0      0       0       7        0.0%
SFR6                 0      0       0       7        0.0%
BANK1               50      0       0       8        0.0%
BITSFR7              0      0       0       8        0.0%
SFR7                 0      0       0       8        0.0%
BITBANK2            50      0       0       9        0.0%
BITSFR8              0      0       0       9        0.0%
SFR8                 0      0       0       9        0.0%
BANK2               50      0       0      10        0.0%
BITSFR9              0      0       0      10        0.0%
SFR9                 0      0       0      10        0.0%
BITBANK3            50      0       0      11        0.0%
BITSFR10             0      0       0      11        0.0%
SFR10                0      0       0      11        0.0%
BANK3               50      0       0      12        0.0%
BITSFR11             0      0       0      12        0.0%
SFR11                0      0       0      12        0.0%
BITBANK4            30      0       0      13        0.0%
BITSFR12             0      0       0      13        0.0%
SFR12                0      0       0      13        0.0%
BANK4               30      0       0      14        0.0%
BITSFR13             0      0       0      14        0.0%
SFR13                0      0       0      14        0.0%
BITSFR14             0      0       0      15        0.0%
SFR14                0      0       0      15        0.0%
DATA                 0      0      12      15        0.0%
BITSFR15             0      0       0      16        0.0%
SFR15                0      0       0      16        0.0%
BITSFR16             0      0       0      17        0.0%
SFR16                0      0       0      17        0.0%
BITSFR17             0      0       0      18        0.0%
SFR17                0      0       0      18        0.0%
BITSFR18             0      0       0      19        0.0%
SFR18                0      0       0      19        0.0%
BITSFR19             0      0       0      20        0.0%
SFR19                0      0       0      20        0.0%
BITSFR20             0      0       0      21        0.0%
SFR20                0      0       0      21        0.0%
BITSFR21             0      0       0      22        0.0%
SFR21                0      0       0      22        0.0%
BITSFR22             0      0       0      23        0.0%
SFR22                0      0       0      23        0.0%
BITSFR23             0      0       0      24        0.0%
SFR23                0      0       0      24        0.0%
BITSFR24             0      0       0      25        0.0%
SFR24                0      0       0      25        0.0%
BITSFR25             0      0       0      26        0.0%
SFR25                0      0       0      26        0.0%
BITSFR26             0      0       0      27        0.0%
SFR26                0      0       0      27        0.0%
BITSFR27             0      0       0      28        0.0%
SFR27                0      0       0      28        0.0%
BITSFR28             0      0       0      29        0.0%
SFR28                0      0       0      29        0.0%
BITSFR29             0      0       0      30        0.0%
SFR29                0      0       0      30        0.0%
BITSFR30             0      0       0      31        0.0%
SFR30                0      0       0      31        0.0%
BITSFR31             0      0       0      32        0.0%
SFR31                0      0       0      32        0.0%


Microchip Technology PIC Macro Assembler V1.44 build -154322312 
Symbol Table                                                                                   Mon Oct 09 20:37:44 2017

                 ___bmul@product 0072                    ?_lcd_satirsil 0070                     ?_lcd_veriyaz 0070  
                    __CFG_CP$OFF 0000                               l20 05A0              ___wmul@multiplicand 0072  
                            l140 075E                              l132 0750                              l141 0762  
                            l142 0764                              l134 0752                              l143 0766  
                            l135 0754                              l144 0768                              l136 0756  
                            l137 0758                              l138 075A                              l139 075C  
                            l172 0662                              l260 05F1                              l920 0780  
                            l922 07A6                              l852 0653                              l916 076D  
                            l862 05EB                              l848 0647                              l880 05B4  
                            l946 060D                              l962 069E                              l876 05AE  
                            l980 062E                              l968 06B1                              l986 063A  
                            u210 0651                              u325 069C                              u255 05F2  
                            u335 06AF                              u407 06FE                              u265 05F7  
                            u417 0715                     __CFG_CPD$OFF 0000                              u427 0736  
                            u437 0745                              u397 06E5                     __CFG_BORV$LO 0000  
                            wreg 0009                     __CFG_IESO$ON 0000                     __CFG_FOSC$HS 0000  
                   lcd_git@satir 0076                     lcd_git@sutun 0074                     __CFG_LVP$OFF 0000  
                           l1024 0724                             l1016 070B                             l1026 072D  
                ?_lcd_normalmode 0070                             STR_1 0A88                             STR_2 0A93  
                           STR_3 0A7A                             STR_4 0A17                             STR_5 0A6C  
                           _LATA 010C                             _LATB 010D                             _PLLR 04D6  
                           _WPUA 020C                             _WPUB 020D                     __CFG_WRT$OFF 0000  
                  __CFG_FCMEN$ON 0000                             _main 06B6                             fsr0h 0005  
                           indf0 0000                             fsr0l 0004                             btemp 007E  
                  __CFG_BOREN$ON 0000                             start 0002                   ??_lcd_mesajyaz 007C  
              ___bmul@multiplier 0073                    __CFG_MCLRE$ON 0000                   ??_lcd_satirsil 0077  
                  __CFG_PLLEN$ON 0000   __size_of_OSCILLATOR_Initialize 0007    __end_of_OSCILLATOR_Initialize 05A3  
                          ?_main 0070                    __CFG_WDTE$OFF 0000                            _CARRY 0018  
                          _LATB3 086B                            _LATB4 086C                            _LATB5 086D  
                          _LATB6 086E                            _LATB7 086F                            _TRISA 008C  
                          _TRISB 008D                  __end_of_lcd_git 05D1                  __end_of_lcd_sil 06B6  
                 _WDT_Initialize 058C                     lcd_veriyaz@i 0072                            main@i 0022  
                          status 0003                            wtemp0 007E                lcd_mesajyaz@mesaj 007A  
              lcd_mesajyaz@satir 007D                lcd_mesajyaz@sutun 0079                  __initialization 07FA  
                   __end_of_main 074C                           ??_main 0020           __end_of_WDT_Initialize 0590  
                         _ANSELA 018C                           _ANSELB 018D                    lcd_satirsil@i 0079  
                         _OSCCON 0099                           _WDTCON 0097                           _TRISB3 046B  
                         _TRISB4 046C                           _TRISB5 046D                           _TRISB6 046E  
                         _TRISB7 046F                   __CFG_PWRTE$OFF 0000             __size_of_lcd_harfyaz 00AE  
                         ___bmul 05AC                           ___wmul 05E9                   __CFG_STVREN$ON 0000  
           __size_of_lcd_veriyaz 0025                        ??_lcd_git 0075                        ??_lcd_sil 0077  
           __end_of_lcd_mesajyaz 0621                  ?_WDT_Initialize 0070             __end_of_lcd_satirsil 063F  
              _SYSTEM_Initialize 05A3          __end_of__initialization 07FD               ?_SYSTEM_Initialize 0070  
            ___bmul@multiplicand 0070                   __pcstackCOMMON 0070                     __pidataBANK0 058B  
            ??_SYSTEM_Initialize 0070                   _OPTION_REGbits 0095                 ??_lcd_normalmode 0073  
      __end_of_SYSTEM_Initialize 05AC                  lcd_harfyaz@harf 0076                       __pmaintext 06B6  
                        ?___bmul 0070                          ?___wmul 0070                          _APFCON0 011D  
                        _APFCON1 011E                       _lcd_baslat 0664                          _OSCTUNE 0098  
              __end_of_harftablo 0A17                  __size_of___bmul 0011                  __size_of___wmul 001B  
          __size_of_lcd_mesajyaz 001D                          __ptext1 068A                          __ptext2 0621  
                        __ptext3 0596                          __ptext4 0604                          __ptext5 074C  
                        __ptext6 05E9                          __ptext7 05BD                          __ptext8 05AC  
                        __ptext9 0590                          _lcd_git 05BD                          _lcd_sil 068A  
          _OSCILLATOR_Initialize 059C            __size_of_lcd_satirsil 001E         ??_PIN_MANAGER_Initialize 0070  
     __size_of_SYSTEM_Initialize 0009             end_of_initialization 07FD                     _lcd_mesajyaz 0604  
                   _lcd_kontrast 0023                     _lcd_satirsil 0621                 ??_WDT_Initialize 0070  
                    ?_lcd_baslat 0070                    ??_lcd_harfyaz 0076                _lcd_ekrani_tersle 0590  
                  ??_lcd_veriyaz 0070                   __end_of___bmul 05BD               ?_lcd_ekrani_tersle 0070  
                 __end_of___wmul 0604           ?_OSCILLATOR_Initialize 0070              ??_lcd_ekrani_tersle 0073  
            start_initialization 07FA  __size_of_PIN_MANAGER_Initialize 0018        __end_of_lcd_ekrani_tersle 0596  
            __size_of_lcd_baslat 0026                         ??___bmul 0071                         ??___wmul 0074  
            __end_of_lcd_harfyaz 07FA                      __pdataBANK0 0023              __end_of_lcd_veriyaz 0664  
                      ___latbits 0001                 lcd_harfyaz@adres 0077                    __pcstackBANK0 0020  
         _PIN_MANAGER_Initialize 05D1                        _harftablo 0800                         ?_lcd_git 0074  
                       ?_lcd_sil 0070                   ___wmul@product 0074          __size_of_lcd_normalmode 0006  
                    _lcd_harfyaz 074C       __size_of_lcd_ekrani_tersle 0006                      _lcd_veriyaz 063F  
              ___wmul@multiplier 0070                     ??_lcd_baslat 0073               __end_of_lcd_baslat 068A  
        ??_OSCILLATOR_Initialize 0070                 __size_of_lcd_git 0014                 __size_of_lcd_sil 002C  
                       __ptext10 0664                         __ptext11 063F                         __ptext12 05A3  
                       __ptext13 058C                         __ptext14 05D1                         __ptext15 059C  
                  __size_of_main 0096                  lcd_veriyaz@veri 0071                         lcd_sil@i 0078  
              lcd_satirsil@satir 0078          __size_of_WDT_Initialize 0004                   _lcd_normalmode 0596  
        ?_PIN_MANAGER_Initialize 0070                __CFG_CLKOUTEN$OFF 0000                    __pstringtext1 0800  
                  __pstringtext2 0A6C                    __pstringtext3 0A7A                    __pstringtext4 0A88  
                  __pstringtext5 0A93                    __pstringtext6 0000           __end_of_lcd_normalmode 059C  
 __end_of_PIN_MANAGER_Initialize 05E9                     ?_lcd_harfyaz 0070                    ?_lcd_mesajyaz 0079  
