Microchip MPLAB XC8 Compiler V1.45 ()

Linker command line:

-W-3 --edf=C:\Program Files (x86)\Microchip\xc8\v1.45\dat\en_msgs.txt -cs \
  -h+dist/default/production\SDCard_deneme3.production.sym \
  --cmf=dist/default/production\SDCard_deneme3.production.cmf -z -Q18F46K22 \
  -oC:\Users\ABD\AppData\Local\Temp\s9m8.2 \
  -Mdist/default/production/SDCard_deneme3.production.map -E1 -ver=XC8 \
  -ASTACK=0E9Dh-0f37h -pstack=STACK -ACODE=00h-0FFFFh -ACONST=00h-0FFFFh \
  -ASMALLCONST=01000h-010FFhx240 -AMEDIUMCONST=01000h-0FFFFh \
  -ACOMRAM=01h-05Fh -AABS1=00h-0F37h -ABIGRAM=01h-0F37h \
  -ARAM=060h-0FFh,0100h-01FFhx14,0F00h-0F37h -ABANK0=060h-0FFh \
  -ABANK1=0100h-01FFh -ABANK2=0200h-02FFh -ABANK3=0300h-03FFh \
  -ABANK4=0400h-04FFh -ABANK5=0500h-05FFh -ABANK6=0600h-06FFh \
  -ABANK7=0700h-07FFh -ABANK8=0800h-08FFh -ABANK9=0900h-09FFh \
  -ABANK10=0A00h-0AFFh -ABANK11=0B00h-0BFFh -ABANK12=0C00h-0CFFh \
  -ABANK13=0D00h-0DFFh -ABANK14=0E00h-0EFFh -ABANK15=0F00h-0F37h \
  -ASFR=0F38h-0F5Fh,0F60h-0FFFh \
  -preset_vec=00h,intcode=08h,intcodelo,powerup,init -pramtop=01000h \
  -psmallconst=SMALLCONST -pmediumconst=MEDIUMCONST -pconst=CONST \
  -AFARRAM=00h-00h -ACONFIG=0300000h-030000Dh -pconfig=CONFIG \
  -AIDLOC=0200000h-0200007h -pidloc=IDLOC -AEEDATA=0F00000h-0F003FFh \
  -peeprom_data=EEDATA \
  -prdata=COMRAM,nvrram=COMRAM,nvbit=COMRAM,rbss=COMRAM,rbit=COMRAM \
  -pfarbss=FARRAM,fardata=FARRAM,nvFARRAM=FARRAM \
  -pintsave_regs=BIGRAM,bigbss=BIGRAM,bigdata=BIGRAM -pbss=RAM \
  -pidata=CODE,irdata=CODE,ibigdata=CODE,ifardata=CODE -prparam=COMRAM \
  C:\Users\ABD\AppData\Local\Temp\s9m8.obj \
  dist/default/production\SDCard_deneme3.production.obj 

Object code version is 3.11

Machine type is 18F46K22

Call graph: (short form)




                Name                               Link     Load   Length Selector   Space Scale
C:\Users\ABD\AppData\Local\Temp\s9m8.obj
                stack                               E9D      E9D       9B      E9D       2
                init                                 5A       5A        8        4       0
                reset_vec                             0        0        4        0       0
                idloc                            200000   200000        8   200000       0
                config                           300000   300000        E   300000       0
dist/default/production\SDCard_deneme3.production.obj
                intcode                               8        8       52        4       0
                temp                                 3B       3B        C        1       1
                mediumconst                        F73A     F73A      8C6     7B9D       0
                text123                            8D14     8D14       18        4       0
                text122                            7FBE     7FBE       90        4       0
                text121                            8E14     8E14        2     4708       0
                text120                            8BA2     8BA2       2A        4       0
                text118                            8616     8616       54        4       0
                text117                            87A4     87A4       4A        4       0
                text116                            6E60     6E60      12A        4       0
                text115                            79C6     79C6       BE        4       0
                text114                            4DF2     4DF2      28E        4       0
                text113                            8486     8486       68        4       0
                text112                            85B6     85B6       60        4       0
                text111                            7D50     7D50       A6        4       0
                text110                            8DFC     8DFC        8        4       0
                text109                            8A20     8A20       38        4       0
                text108                            74B2     74B2       EE        4       0
                text107                            6D36     6D36      12A        4       0
                text106                            7DF6     7DF6       9C        4       0
                text105                            89E6     89E6       3A        4       0
                text104                            8C8C     8C8C       22        4       0
                text103                            425A     425A      312        4       0
                text102                            3854     3854      396        4       0
                text101                            870E     870E       4C        4       0
                text100                            7BFC     7BFC       AE        4       0
                text99                             6F8A     6F8A      114        4       0
                text98                             456C     456C      2F6        4       0
                text97                             89AA     89AA       3C        4       0
                text96                             5BCC     5BCC      19E        4       0
                text95                             5308     5308      282        4       0
                text94                             7F2C     7F2C       92        4       0
                text93                             80DC     80DC       8E        4       0
                text92                             825A     825A       76        4       0
                text91                             8D7A     8D7A       10        4       0
                text90                             72BE     72BE       FC        4       0
                text89                             8A8E     8A8E       36        4       0
                text88                             1386     1386      800        4       0
                text87                             8C42     8C42       26        4       0
                text86                             57F2     57F2      1F6        4       0
                text85                             82D0     82D0       72        4       0
                text84                             67F0     67F0      166        4       0
                text83                             73BA     73BA       F8        4       0
                text82                             8DAE     8DAE        C        4       0
                text81                             622A     622A      182        4       0
                text80                             8930     8930       3E        4       0
                text79                             8DF4     8DF4        8        4       0
                text78                             8DA2     8DA2        C        4       0
                text77                             8BF4     8BF4       28        4       0
                text76                             7766     7766       D2        4       0
                text75                             300A     300A      430        4       0
                text74                             3F30     3F30      32A        4       0
                text73                             8C1C     8C1C       26        4       0
                text72                             75A0     75A0       E8        4       0
                text71                             63AC     63AC      176        4       0
                text70                             6956     6956      15A        4       0
                text69                             7CAA     7CAA       A6        4       0
                text68                             83B0     83B0       6C        4       0
                text67                             8DE2     8DE2        A        4       0
                text66                             816A     816A       7A        4       0
                text65                             7838     7838       CE        4       0
                text64                             8DD8     8DD8        A        4       0
                text63                             8B78     8B78       2A        4       0
                text62                             84EE     84EE       66        4       0
                text61                             8D96     8D96        C        4       0
                text60                             8CFC     8CFC       18        4       0
                text59                             81E4     81E4       76        4       0
                text58                             8342     8342       6E        4       0
                text57                             8AC4     8AC4       32        4       0
                text56                             8D56     8D56       14        4       0
                text55                             8E10     8E10        4     4708       0
                text54                             8D8A     8D8A        C        4       0
                text53                             8A58     8A58       36        4       0
                text52                             8DCE     8DCE        A        4       0
                text51                             8BCC     8BCC       28        4       0
                text50                             8CE4     8CE4       18        4       0
                text49                             7B40     7B40       BC        4       0
                text48                             709E     709E      112        4       0
                text47                             896E     896E       3C        4       0
                text46                             343A     343A      41A        4       0
                text45                             60A2     60A2      188        4       0
                text44                             5F06     5F06      19C        4       0
                text43                             88B2     88B2       40        4       0
                text42                             558A     558A      268        4       0
                text41                             2606     2606      50A        4       0
                text40                             7906     7906       C0        4       0
                text39                             8830     8830       42        4       0
                text38                             5D6A     5D6A      19C        4       0
                text37                             7688     7688       DE        4       0
                text36                             4862     4862      2D4        4       0
                text35                             6522     6522      168        4       0
                text34                             4B36     4B36      2BC        4       0
                text33                             804E     804E       8E        4       0
                text32                             2B10     2B10      4FA        4       0
                text31                             20F6     20F6      510        4       0
                text30                             71B0     71B0      10E        4       0
                text29                             5080     5080      288        4       0
                text28                             59E8     59E8      1E4        4       0
                text27                             6C00     6C00      136        4       0
                text26                             1B86     1B86      570        4       0
                text25                             8CAE     8CAE       1C        4       0
                text24                             8CCA     8CCA       1A        4       0
                text23                             87EE     87EE       42        4       0
                text22                             8D2C     8D2C       16        4       0
                text21                             8DEC     8DEC        8        4       0
                text20                             8DC4     8DC4        A        4       0
                text19                             8C68     8C68       24        4       0
                text18                             875A     875A       4A        4       0
                text17                             8E04     8E04        6        4       0
                text16                             7E92     7E92       9A        4       0
                text15                             8872     8872       40        4       0
                text14                             88F2     88F2       3E        4       0
                text13                             8B22     8B22       2C        4       0
                text12                             8B4E     8B4E       2A        4       0
                text11                             8554     8554       62        4       0
                text10                             86BC     86BC       52        4       0
                text9                              3BEA     3BEA      346        4       0
                text8                              8D42     8D42       14        4       0
                text7                              6AB0     6AB0      150        4       0
                text6                              866A     866A       52        4       0
                text5                              8DBA     8DBA        A        4       0
                text4                              8AF6     8AF6       2C        4       0
                text3                              668A     668A      166        4       0
                text2                              8D6A     8D6A       10        4       0
                text1                              7A84     7A84       BC        4       0
                text0                                62       62     1324        4       0
                cstackCOMRAM                          1        1       3A        1       1
                cstackBANK0                          60       60       A0       60       1
                cstackBANK1                         100      100       EB      100       1
                cstackBANK2                         200      200       EB      200       1
                bssBIGRAM                           3FC      3FC      AA1      3FC       1
                bssBANK3                            300      300       FC      300       1
                bssBANK2                            2EB      2EB        C      200       1
                bssBANK1                            1EB      1EB        8      100       1
                dataCOMRAM                           4E       4E        5        1       1
                bssCOMRAM                            47       47        7        1       1
                cinit                              841C     841C       6A        4       0
                nvBANK1                             1F3      1F3        4      100       1
                idataCOMRAM                        8E0A     8E0A        5        4       0

TOTAL           Name                               Link     Load   Length     Space
        CLASS   STACK          
                stack                               E9D      E9D       9B         2

        CLASS   CODE           
                intcode                               8        8       52         0
                init                                 5A       5A        8         0
                reset_vec                             0        0        4         0
                text123                            8D14     8D14       18         0
                text122                            7FBE     7FBE       90         0
                text121                            8E14     8E14        2         0
                text120                            8BA2     8BA2       2A         0
                text118                            8616     8616       54         0
                text117                            87A4     87A4       4A         0
                text116                            6E60     6E60      12A         0
                text115                            79C6     79C6       BE         0
                text114                            4DF2     4DF2      28E         0
                text113                            8486     8486       68         0
                text112                            85B6     85B6       60         0
                text111                            7D50     7D50       A6         0
                text110                            8DFC     8DFC        8         0
                text109                            8A20     8A20       38         0
                text108                            74B2     74B2       EE         0
                text107                            6D36     6D36      12A         0
                text106                            7DF6     7DF6       9C         0
                text105                            89E6     89E6       3A         0
                text104                            8C8C     8C8C       22         0
                text103                            425A     425A      312         0
                text102                            3854     3854      396         0
                text101                            870E     870E       4C         0
                text100                            7BFC     7BFC       AE         0
                text99                             6F8A     6F8A      114         0
                text98                             456C     456C      2F6         0
                text97                             89AA     89AA       3C         0
                text96                             5BCC     5BCC      19E         0
                text95                             5308     5308      282         0
                text94                             7F2C     7F2C       92         0
                text93                             80DC     80DC       8E         0
                text92                             825A     825A       76         0
                text91                             8D7A     8D7A       10         0
                text90                             72BE     72BE       FC         0
                text89                             8A8E     8A8E       36         0
                text88                             1386     1386      800         0
                text87                             8C42     8C42       26         0
                text86                             57F2     57F2      1F6         0
                text85                             82D0     82D0       72         0
                text84                             67F0     67F0      166         0
                text83                             73BA     73BA       F8         0
                text82                             8DAE     8DAE        C         0
                text81                             622A     622A      182         0
                text80                             8930     8930       3E         0
                text79                             8DF4     8DF4        8         0
                text78                             8DA2     8DA2        C         0
                text77                             8BF4     8BF4       28         0
                text76                             7766     7766       D2         0
                text75                             300A     300A      430         0
                text74                             3F30     3F30      32A         0
                text73                             8C1C     8C1C       26         0
                text72                             75A0     75A0       E8         0
                text71                             63AC     63AC      176         0
                text70                             6956     6956      15A         0
                text69                             7CAA     7CAA       A6         0
                text68                             83B0     83B0       6C         0
                text67                             8DE2     8DE2        A         0
                text66                             816A     816A       7A         0
                text65                             7838     7838       CE         0
                text64                             8DD8     8DD8        A         0
                text63                             8B78     8B78       2A         0
                text62                             84EE     84EE       66         0
                text61                             8D96     8D96        C         0
                text60                             8CFC     8CFC       18         0
                text59                             81E4     81E4       76         0
                text58                             8342     8342       6E         0
                text57                             8AC4     8AC4       32         0
                text56                             8D56     8D56       14         0
                text55                             8E10     8E10        4         0
                text54                             8D8A     8D8A        C         0
                text53                             8A58     8A58       36         0
                text52                             8DCE     8DCE        A         0
                text51                             8BCC     8BCC       28         0
                text50                             8CE4     8CE4       18         0
                text49                             7B40     7B40       BC         0
                text48                             709E     709E      112         0
                text47                             896E     896E       3C         0
                text46                             343A     343A      41A         0
                text45                             60A2     60A2      188         0
                text44                             5F06     5F06      19C         0
                text43                             88B2     88B2       40         0
                text42                             558A     558A      268         0
                text41                             2606     2606      50A         0
                text40                             7906     7906       C0         0
                text39                             8830     8830       42         0
                text38                             5D6A     5D6A      19C         0
                text37                             7688     7688       DE         0
                text36                             4862     4862      2D4         0
                text35                             6522     6522      168         0
                text34                             4B36     4B36      2BC         0
                text33                             804E     804E       8E         0
                text32                             2B10     2B10      4FA         0
                text31                             20F6     20F6      510         0
                text30                             71B0     71B0      10E         0
                text29                             5080     5080      288         0
                text28                             59E8     59E8      1E4         0
                text27                             6C00     6C00      136         0
                text26                             1B86     1B86      570         0
                text25                             8CAE     8CAE       1C         0
                text24                             8CCA     8CCA       1A         0
                text23                             87EE     87EE       42         0
                text22                             8D2C     8D2C       16         0
                text21                             8DEC     8DEC        8         0
                text20                             8DC4     8DC4        A         0
                text19                             8C68     8C68       24         0
                text18                             875A     875A       4A         0
                text17                             8E04     8E04        6         0
                text16                             7E92     7E92       9A         0
                text15                             8872     8872       40         0
                text14                             88F2     88F2       3E         0
                text13                             8B22     8B22       2C         0
                text12                             8B4E     8B4E       2A         0
                text11                             8554     8554       62         0
                text10                             86BC     86BC       52         0
                text9                              3BEA     3BEA      346         0
                text8                              8D42     8D42       14         0
                text7                              6AB0     6AB0      150         0
                text6                              866A     866A       52         0
                text5                              8DBA     8DBA        A         0
                text4                              8AF6     8AF6       2C         0
                text3                              668A     668A      166         0
                text2                              8D6A     8D6A       10         0
                text1                              7A84     7A84       BC         0
                text0                                62       62     1324         0
                cinit                              841C     841C       6A         0
                idataCOMRAM                        8E0A     8E0A        5         0

        CLASS   CONST          

        CLASS   SMALLCONST     

        CLASS   MEDIUMCONST    
                mediumconst                        F73A     F73A      8C6         0

        CLASS   COMRAM         
                temp                                 3B       3B        C         1
                cstackCOMRAM                          1        1       3A         1
                dataCOMRAM                           4E       4E        5         1
                bssCOMRAM                            47       47        7         1

        CLASS   ABS1           

        CLASS   BIGRAM         
                bssBIGRAM                           3FC      3FC      AA1         1

        CLASS   RAM            

        CLASS   BANK0          
                cstackBANK0                          60       60       A0         1

        CLASS   BANK1          
                cstackBANK1                         100      100       EB         1
                bssBANK1                            1EB      1EB        8         1
                nvBANK1                             1F3      1F3        4         1

        CLASS   BANK2          
                cstackBANK2                         200      200       EB         1
                bssBANK2                            2EB      2EB        C         1

        CLASS   BANK3          
                bssBANK3                            300      300       FC         1

        CLASS   BANK4          

        CLASS   BANK5          

        CLASS   BANK6          

        CLASS   BANK7          

        CLASS   BANK8          

        CLASS   BANK9          

        CLASS   BANK10         

        CLASS   BANK11         

        CLASS   BANK12         

        CLASS   BANK13         

        CLASS   BANK14         

        CLASS   BANK15         

        CLASS   SFR            

        CLASS   FARRAM         

        CLASS   CONFIG         
                config                           300000   300000        E         0

        CLASS   IDLOC          
                idloc                            200000   200000        8         0

        CLASS   EEDATA         



SEGMENTS        Name                           Load    Length   Top    Selector   Space  Class

                reset_vec                      000000  000004  000004         0       0  CODE    
                cstackCOMRAM                   000001  000052  000053         1       1  COMRAM  
                intcode                        000008  008E07  008E0F         4       0  CODE    
                cstackBANK0                    000060  0000A0  000100        60       1  BANK0   
                cstackBANK1                    000100  0000F7  0001F7       100       1  BANK1   
                cstackBANK2                    000200  0000F7  0002F7       200       1  BANK2   
                bssBANK3                       000300  0000FC  0003FC       300       1  BANK3   
                bssBIGRAM                      0003FC  000AA1  000E9D       3FC       1  BIGRAM  
                stack                          000E9D  00009B  000F38       E9D       2  STACK   
                text55                         008E10  000006  008E16      4708       0  CODE    
                mediumconst                    00F73A  0008C6  010000      7B9D       0  MEDIUMCO
                idloc                          200000  000008  200008    200000       0  IDLOC   
                config                         300000  00000E  30000E    300000       0  CONFIG  


UNUSED ADDRESS RANGES

        Name                Unused          Largest block    Delta
        BANK1            0001F7-0001FF                9
        BANK14           000E9D-000EFF               63
        BANK15           000F00-000F37               38
        BANK2            0002F7-0002FF                9
        BIGRAM           000053-00005F                D
                         0001F7-0001FF                9
                         0002F7-0002FF                9
                         000E9D-000F37               9B
        CODE             000004-000007                4
                         008E0F-008E0F                1
                         008E16-00F739             6924
        COMRAM           000053-00005F                D
        CONST            000004-000007                4
                         008E0F-008E0F                1
                         008E16-00F739             6924
        EEDATA           F00000-F003FF              400
        MEDIUMCONST      008E0F-008E0F                1
                         008E16-00F739             6924
        RAM              0001F7-0001FF                9
                         0002F7-0002FF                9
                         000E9D-000F37               63
        SFR              000F38-000FFF               28
        SMALLCONST       008E0F-008E0F                1
                         008E16-00F739              100

                                  Symbol Table

?___aldiv                                 cstackCOMRAM 00000E
?___lldiv                                 cstackCOMRAM 00000E
?___llmod                                 cstackCOMRAM 00000E
?___lmul                                  cstackCOMRAM 000021
?___lwdiv                                 cstackCOMRAM 00000E
?___lwmod                                 cstackCOMRAM 000015
?___wmul                                  cstackCOMRAM 00000E
?_chk_chr                                 cstackCOMRAM 00000E
?_clst2sect                               cstackCOMRAM 00002D
?_cmp_lfn                                 cstackBANK0  0000DD
?_create_chain                            cstackBANK1  000121
?_dbc_1st                                 cstackCOMRAM 00000E
?_dbc_2nd                                 cstackCOMRAM 00000E
?_ff_oem2uni                              cstackCOMRAM 00000E
?_ff_uni2oem                              cstackCOMRAM 00000E
?_ff_wtoupper                             cstackCOMRAM 00000E
?_get_fat                                 cstackBANK1  000100
?_get_fattime                             cstackCOMRAM 00000E
?_get_ldnumber                            cstackCOMRAM 00000E
?_ld_clust                                cstackBANK0  0000DD
?_ld_dword                                cstackCOMRAM 00000E
?_ld_word                                 cstackCOMRAM 000039
?_mem_cmp                                 cstackCOMRAM 00000E
?_pick_lfn                                cstackBANK0  0000DD
?_printf                                  cstackCOMRAM 00001B
?_strchr                                  cstackCOMRAM 00000E
?_tchar2uni                               cstackCOMRAM 000020
?_xatoi                                   cstackCOMRAM 00002D
?_xgets                                   cstackCOMRAM 000010
?_xprintf                                 cstackBANK0  0000B4
EUSART1_Write@txData                      cstackCOMRAM 00000F
PL10                                      text114      004FA2
PL100                                     text0        001132
PL102                                     text114      005034
PL104                                     text88       001AC2
PL106                                     text0        001144
PL108                                     text36       004AD8
PL110                                     text103      004548
PL112                                     text26       00206E
PL114                                     text36       004AEC
PL116                                     text88       001AD4
PL118                                     text98       00481E
PL12                                      text103      00449A
PL120                                     text31       00251E
PL122                                     text34       004D78
PL124                                     text26       002078
PL126                                     text114      00505C
PL128                                     text28       005B88
PL130                                     text0        00116A
PL132                                     text75       003398
PL134                                     text75       0033AC
PL136                                     text45       0061EA
PL138                                     text102      003B6E
PL14                                      text32       002FB4
PL140                                     text0        001178
PL142                                     text84       006920
PL144                                     text0        00118A
PL146                                     text88       001AE0
PL148                                     text74       004214
PL150                                     text44       006078
PL152                                     text45       0061FE
PL154                                     text107      006E2E
PL156                                     text40       00799C
PL158                                     text34       004D9C
PL16                                      text3        0067C2
PL160                                     text0        00119E
PL162                                     text9        003F0A
PL164                                     text0        0011BC
PL166                                     text31       00252A
PL168                                     text41       002A8A
PL170                                     text88       001B00
PL172                                     text29       0052E0
PL174                                     text95       00553E
PL176                                     text31       00253C
PL178                                     text74       00421C
PL18                                      text90       007394
PL180                                     text7        006BE0
PL182                                     text40       0079BA
PL184                                     text70       006A7E
PL186                                     text88       001B12
PL188                                     text86       0059CC
PL190                                     text75       0033C0
PL192                                     text0        0011CE
PL194                                     text28       005B96
PL196                                     text32       002FD2
PL198                                     text44       006082
PL2                                       text0        0010E4
PL20                                      text31       002500
PL200                                     text84       006934
PL202                                     text63       008B92
PL204                                     text0        0011D6
PL206                                     text46       0037EE
PL208                                     text42       0057A4
PL210                                     text44       00608A
PL212                                     text95       00555A
PL214                                     text70       006A8A
PL216                                     text90       0073A0
PL218                                     text26       002084
PL22                                      text36       004AC4
PL220                                     text32       002FDC
PL222                                     text0        0011E6
PL224                                     text116      006F4A
PL226                                     text35       006656
PL228                                     text116      006F62
PL230                                     text35       00666E
PL232                                     text84       006944
PL234                                     text74       004226
PL236                                     text26       00208C
PL238                                     text114      005064
PL24                                      text41       002A80
PL240                                     text102      003B82
PL242                                     text30       0072B4
PL244                                     text74       004230
PL246                                     text88       001B2C
PL248                                     text0        0011FE
PL250                                     text31       00254A
PL252                                     text96       005D54
PL254                                     text76       007814
PL256                                     text115      007A5E
PL258                                     text36       004AF6
PL26                                      text114      004FC8
PL260                                     text32       002FE6
PL262                                     text38       005EE4
PL264                                     text45       006208
PL266                                     text35       006678
PL268                                     text0        00120A
PL270                                     text108      00757A
PL272                                     text33       0080C8
PL274                                     text0        00121E
PL276                                     text41       002A9C
PL278                                     text72       00765E
PL28                                      text31       002514
PL280                                     text34       004DBA
PL282                                     text37       00773C
PL284                                     text86       0059D6
PL286                                     text94       007FB4
PL288                                     text76       007822
PL290                                     text36       004B04
PL292                                     text95       005564
PL294                                     text31       002554
PL296                                     text26       002096
PL298                                     text31       002566
PL30                                      text0        0010F6
PL300                                     text42       0057AE
PL302                                     text0        001232
PL304                                     text31       002578
PL306                                     text31       00258A
PL308                                     text41       002AB0
PL310                                     text7        006BEE
PL312                                     text107      006E38
PL314                                     text31       00259C
PL316                                     text41       002AC2
PL318                                     text98       004828
PL32                                      text103      0044B8
PL320                                     text108      00758E
PL322                                     text32       002FEE
PL324                                     text29       0052EE
PL326                                     text0        001244
PL328                                     text98       00483A
PL330                                     text34       004DCE
PL332                                     text41       002AD4
PL334                                     text42       0057C0
PL336                                     text95       00556E
PL338                                     text26       0020A8
PL34                                      text74       00418E
PL340                                     text0        001256
PL342                                     text31       0025AE
PL344                                     text42       0057D2
PL346                                     text0        001262
PL348                                     text46       0037FE
PL350                                     text113      0084E4
PL352                                     text88       001B38
PL354                                     text45       006216
PL356                                     text0        00126E
PL358                                     text46       00380A
PL36                                      text103      0044C0
PL360                                     text13       008B3E
PL362                                     text99       007084
PL364                                     text90       0073B0
PL366                                     text107      006E40
PL368                                     text99       007094
PL370                                     text0        00127A
PL372                                     text0        00128A
PL374                                     text31       0025BA
PL376                                     text28       005B9E
PL378                                     text0        001296
PL38                                      text103      0044CA
PL380                                     text65       0078F6
PL382                                     text84       00694E
PL384                                     text106      007E82
PL386                                     text86       0059E0
PL388                                     text31       0025C2
PL390                                     text83       007492
PL392                                     text36       004B12
PL394                                     text36       004B22
PL396                                     text88       001B44
PL398                                     text45       006222
PL4                                       text88       001AA6
PL40                                      text114      004FE6
PL400                                     text0        0012A6
PL402                                     text41       002AE6
PL404                                     text103      004558
PL406                                     text28       005BA6
PL408                                     text75       0033DA
PL410                                     text116      006F7A
PL412                                     text42       0057DE
PL414                                     text26       0020BA
PL416                                     text0        0012B6
PL418                                     text18       008796
PL42                                      text113      0084C2
PL420                                     text104      008CA0
PL422                                     text71       0064FC
PL424                                     text46       003814
PL426                                     text75       0033EA
PL428                                     text46       003822
PL430                                     text107      006E48
PL432                                     text41       002AF0
PL434                                     text46       003830
PL436                                     text14       008922
PL438                                     text1        007B32
PL44                                      text74       0041A8
PL440                                     text75       0033F8
PL442                                     text71       00650A
PL444                                     text88       001B4C
PL446                                     text98       00484C
PL448                                     text34       004DE0
PL450                                     text9        003F1C
PL452                                     text74       00423A
PL454                                     text68       008412
PL456                                     text37       007750
PL458                                     text0        0012C4
PL46                                      text98       004812
PL460                                     text0        0012CE
PL462                                     text88       001B56
PL464                                     text38       005EF2
PL466                                     text100      007CA0
PL468                                     text41       002AFC
PL470                                     text26       0020C6
PL472                                     text31       0025CA
PL474                                     text74       004244
PL476                                     text0        0012D8
PL478                                     text0        0012E0
PL48                                      text105      008A00
PL480                                     text76       00782C
PL482                                     text98       004856
PL484                                     text85       008336
PL486                                     text37       00775A
PL488                                     text0        0012EC
PL490                                     text115      007A6C
PL492                                     text75       003406
PL494                                     text0        0012F8
PL496                                     text81       006390
PL498                                     text47       00899E
PL50                                      text114      005024
PL500                                     text0        001304
PL502                                     text0        001310
PL504                                     text36       004B2A
PL506                                     text83       00749C
PL508                                     text72       007672
PL510                                     text74       00424E
PL512                                     text0        00131C
PL514                                     text102      003B98
PL516                                     text46       00383E
PL518                                     text115      007A78
PL52                                      text86       0059B2
PL520                                     text0        001328
PL522                                     text114      005074
PL524                                     text70       006A9A
PL526                                     text75       003412
PL528                                     text88       001B60
PL530                                     text0        001334
PL532                                     text28       005BB0
PL534                                     text102      003BA4
PL536                                     text31       0025D2
PL538                                     text38       005EFC
PL54                                      text9        003EE2
PL540                                     text103      004562
PL542                                     text31       0025DC
PL544                                     text0        00133E
PL546                                     text88       001B68
PL548                                     text9        003F26
PL550                                     text81       00639A
PL552                                     text28       005BBA
PL554                                     text6        0086B2
PL556                                     text26       0020D0
PL558                                     text28       005BC2
PL56                                      text103      004508
PL560                                     text0        001348
PL562                                     text102      003BAE
PL564                                     text72       00767E
PL566                                     text83       0074A8
PL568                                     text96       005D60
PL570                                     text70       006AA6
PL572                                     text123      008D22
PL574                                     text31       0025E6
PL576                                     text31       0025F0
PL578                                     text32       003000
PL58                                      text9        003EF8
PL580                                     text26       0020DA
PL582                                     text0        001352
PL584                                     text35       006680
PL586                                     text88       001B72
PL588                                     text95       005580
PL590                                     text26       0020E4
PL592                                     text44       006092
PL594                                     text3        0067E6
PL596                                     text4        008B18
PL598                                     text42       0057E8
PL6                                       text103      004474
PL60                                      text74       0041C0
PL600                                     text102      003BB8
PL602                                     text102      003BC2
PL604                                     text107      006E56
PL606                                     text88       001B7C
PL608                                     text102      003BCC
PL610                                     text75       00341C
PL612                                     text41       002B06
PL614                                     text46       00384A
PL616                                     text81       0063A2
PL618                                     text75       003426
PL62                                      text88       001AB0
PL620                                     text102      003BD6
PL622                                     text71       006518
PL624                                     text102      003BE0
PL626                                     text0        00135C
PL628                                     text75       003430
PL630                                     text31       0025FA
PL632                                     text29       005300
PL634                                     text31       002600
PL636                                     text0        001366
PL638                                     text0        00136E
PL64                                      text0        001106
PL640                                     text44       00609C
PL642                                     text0        001376
PL644                                     text0        00137E
PL646                                     text34       004DEA
PL648                                     text93       008162
PL650                                     text26       0020EE
PL66                                      text74       0041D4
PL68                                      text0        001114
PL70                                      text28       005B7E
PL72                                      text26       00205A
PL74                                      text86       0059C2
PL76                                      text32       002FC8
PL78                                      text75       00336C
PL8                                       text26       002050
PL80                                      text102      003B54
PL82                                      text74       0041E2
PL84                                      text0        001128
PL86                                      text96       005D3C
PL88                                      text103      004518
PL90                                      text96       005D4A
PL92                                      text74       0041EC
PL94                                      text102      003B64
PL96                                      text103      004520
PL98                                      text46       0037E4
SPI1_Exchange8bit@data                    cstackCOMRAM 000021
TMR1_SetInterruptHandler@InterruptHandler cstackCOMRAM 00000E
TMR1_WriteTimer@timerVal                  cstackCOMRAM 000001
_ANSELA                                   (abs)        000F38
_ANSELB                                   (abs)        000F39
_ANSELC                                   (abs)        000F3A
_ANSELD                                   (abs)        000F3B
_ANSELE                                   (abs)        000F3C
_AccDirs                                  bssBANK2     0002F1
_AccFiles                                 bssBANK2     0002F3
_AccSize                                  bssBANK2     0002EB
_BAUDCON1                                 (abs)        000FB8
_Buff                                     bssBIGRAM    000A71
_CardType                                 bssCOMRAM    00004C
_EUSART1_Initialize                       text56       008D56
_EUSART1_Read                             text2        008D6A
_EUSART1_Write                            text78       008DA2
_ExCvt                                    mediumconst  00F73B
_FatFs                                    bssBIGRAM    000840
_File                                     bssBIGRAM    0003FC
_Finfo                                    bssBIGRAM    000D87
_Fsid                                     bssBANK1     0001EF
_INTCON2bits                              (abs)        000FF1
_INTCONbits                               (abs)        000FF2
_INTERRUPT_Initialize                     text55       008E10
_INTERRUPT_InterruptManager               intcode      000008
_LATA                                     (abs)        000F89
_LATB                                     (abs)        000F8A
_LATC                                     (abs)        000F8B
_LATCbits                                 (abs)        000F8B
_LATD                                     (abs)        000F8C
_LATDbits                                 (abs)        000F8C
_LATE                                     (abs)        000F8D
_LfnBuf                                   bssBANK3     000300
_LfnOfs                                   mediumconst  00F7BB
_Line                                     bssBANK3     0003CA
_OSCCON                                   (abs)        000FD3
_OSCCON2                                  (abs)        000FD2
_OSCILLATOR_Initialize                    text54       008D8A
_OSCTUNE                                  (abs)        000F9B
_PIE1bits                                 (abs)        000F9D
_PIN_MANAGER_Initialize                   text53       008A58
_PIR1bits                                 (abs)        000F9E
_PORTDbits                                (abs)        000F83
_RCONbits                                 (abs)        000FD0
_RCREG1                                   (abs)        000FAE
_RCSTA1                                   (abs)        000FAB
_RCSTA1bits                               (abs)        000FAB
_SPBRG1                                   (abs)        000FAF
_SPBRGH1                                  (abs)        000FB0
_SPI1_Exchange8bit                        text91       008D7A
_SPI1_Initialize                          text82       008DAE
_SSP1ADD                                  (abs)        000FC8
_SSP1BUF                                  (abs)        000FC9
_SSP1CON1                                 (abs)        000FC6
_SSP1CON1bits                             (abs)        000FC6
_SSP1STAT                                 (abs)        000FC7
_SSP1STATbits                             (abs)        000FC7
_SYSTEM_Initialize                        text50       008CE4
_Stat                                     dataCOMRAM   000052
_T1CON                                    (abs)        000FCD
_T1CONbits                                (abs)        000FCD
_T1GCON                                   (abs)        000FCC
_TMR1                                     (abs)        000FCE
_TMR1H                                    (abs)        000FCF
_TMR1L                                    (abs)        000FCE
_TMR1_DefaultInterruptHandler             text121      008E14
_TMR1_ISR                                 text120      008BA2
_TMR1_Initialize                          text51       008BCC
_TMR1_InterruptHandler                    nvBANK1      0001F3
_TMR1_SetInterruptHandler                 text52       008DCE
_TMR1_WriteTimer                          text123      008D14
_TRISA                                    (abs)        000F92
_TRISB                                    (abs)        000F93
_TRISC                                    (abs)        000F94
_TRISD                                    (abs)        000F95
_TRISDbits                                (abs)        000F95
_TRISE                                    (abs)        000F96
_TXREG1                                   (abs)        000FAD
_TXSTA1                                   (abs)        000FAC
_Timer                                    bssBANK2     0002EF
_WPUB                                     (abs)        000F61
__CFG_BOREN$SBORDIS                       (abs)        000000
__CFG_BORV$190                            (abs)        000000
__CFG_CCP2MX$PORTC1                       (abs)        000000
__CFG_CCP3MX$PORTB5                       (abs)        000000
__CFG_CP0$OFF                             (abs)        000000
__CFG_CP1$OFF                             (abs)        000000
__CFG_CP2$OFF                             (abs)        000000
__CFG_CP3$OFF                             (abs)        000000
__CFG_CPB$OFF                             (abs)        000000
__CFG_CPD$OFF                             (abs)        000000
__CFG_DEBUG$OFF                           (abs)        000000
__CFG_EBTR0$OFF                           (abs)        000000
__CFG_EBTR1$OFF                           (abs)        000000
__CFG_EBTR2$OFF                           (abs)        000000
__CFG_EBTR3$OFF                           (abs)        000000
__CFG_EBTRB$OFF                           (abs)        000000
__CFG_FCMEN$OFF                           (abs)        000000
__CFG_FOSC$HSMP                           (abs)        000000
__CFG_HFOFST$ON                           (abs)        000000
__CFG_IESO$OFF                            (abs)        000000
__CFG_LVP$ON                              (abs)        000000
__CFG_MCLRE$EXTMCLR                       (abs)        000000
__CFG_P2BMX$PORTD2                        (abs)        000000
__CFG_PBADEN$ON                           (abs)        000000
__CFG_PLLCFG$OFF                          (abs)        000000
__CFG_PRICLKEN$ON                         (abs)        000000
__CFG_PWRTEN$OFF                          (abs)        000000
__CFG_STVREN$ON                           (abs)        000000
__CFG_T3CMX$PORTC0                        (abs)        000000
__CFG_WDTEN$OFF                           (abs)        000000
__CFG_WDTPS$32768                         (abs)        000000
__CFG_WRT0$OFF                            (abs)        000000
__CFG_WRT1$OFF                            (abs)        000000
__CFG_WRT2$OFF                            (abs)        000000
__CFG_WRT3$OFF                            (abs)        000000
__CFG_WRTB$OFF                            (abs)        000000
__CFG_WRTC$OFF                            (abs)        000000
__CFG_WRTD$OFF                            (abs)        000000
__CFG_XINST$OFF                           (abs)        000000
__HRAM                                    (abs)        000000
__Habs1                                   abs1         000000
__Hbank0                                  bank0        000000
__Hbank1                                  bank1        000000
__Hbank10                                 bank10       000000
__Hbank11                                 bank11       000000
__Hbank12                                 bank12       000000
__Hbank13                                 bank13       000000
__Hbank14                                 bank14       000000
__Hbank15                                 bank15       000000
__Hbank2                                  bank2        000000
__Hbank3                                  bank3        000000
__Hbank4                                  bank4        000000
__Hbank5                                  bank5        000000
__Hbank6                                  bank6        000000
__Hbank7                                  bank7        000000
__Hbank8                                  bank8        000000
__Hbank9                                  bank9        000000
__Hbigbss                                 bigbss       000000
__Hbigdata                                bigdata      000000
__Hbigram                                 bigram       000000
__Hbss                                    bss          000000
__HbssBANK1                               bssBANK1     000000
__HbssBANK2                               bssBANK2     000000
__HbssBANK3                               bssBANK3     000000
__HbssBIGRAM                              bssBIGRAM    000000
__HbssCOMRAM                              bssCOMRAM    000000
__Hcinit                                  cinit        000000
__Hclrtext                                clrtext      000000
__Hcomram                                 comram       000000
__Hconfig                                 config       30000E
__Hconst                                  const        000000
__HcstackBANK0                            cstackBANK0  000000
__HcstackBANK1                            cstackBANK1  000000
__HcstackBANK2                            cstackBANK2  000000
__HcstackCOMRAM                           cstackCOMRAM 000000
__Hdata                                   data         000000
__HdataCOMRAM                             dataCOMRAM   000000
__Heeprom_data                            eeprom_data  000000
__Hfarbss                                 farbss       000000
__Hfardata                                fardata      000000
__Hibigdata                               ibigdata     000000
__Hidata                                  idata        000000
__HidataCOMRAM                            idataCOMRAM  000000
__Hidloc                                  idloc        200008
__Hifardata                               ifardata     000000
__Hinit                                   init         000062
__Hintcode                                intcode      00005A
__Hintcode_body                           intcode_body 000000
__Hintcodelo                              intcodelo    00005A
__Hintentry                               intentry     000000
__Hintret                                 intret       000000
__Hintsave_regs                           intsave_regs 000000
__Hirdata                                 irdata       000000
__Hmediumconst                            mediumconst  010000
__HnvBANK1                                nvBANK1      000000
__HnvFARRAM                               nvFARRAM     000000
__Hnvbit                                  nvbit        000000
__Hnvrram                                 nvrram       000000
__Hpa_nodes0                              pa_nodes0    000000
__Hparam                                  rparam       000000
__Hpowerup                                powerup      00005A
__Hram                                    ram          000000
__Hramtop                                 ramtop       001000
__Hrbit                                   rbit         000000
__Hrbss                                   rbss         000000
__Hrdata                                  rdata        000000
__Hreset_vec                              reset_vec    000004
__Hrparam                                 rparam       000000
__Hsfr                                    sfr          000000
__Hsmallconst                             smallconst   000000
__Hspace_0                                (abs)        30000E
__Hspace_1                                (abs)        000E9D
__Hspace_2                                (abs)        000F38
__Hstack                                  stack        000F38
__Hstruct                                 struct       000000
__Htemp                                   temp         000047
__Htext                                   text         000000
__Htext0                                  text0        000000
__Htext1                                  text1        000000
__Htext10                                 text10       000000
__Htext100                                text100      000000
__Htext101                                text101      000000
__Htext102                                text102      000000
__Htext103                                text103      000000
__Htext104                                text104      000000
__Htext105                                text105      000000
__Htext106                                text106      000000
__Htext107                                text107      000000
__Htext108                                text108      000000
__Htext109                                text109      000000
__Htext11                                 text11       000000
__Htext110                                text110      000000
__Htext111                                text111      000000
__Htext112                                text112      000000
__Htext113                                text113      000000
__Htext114                                text114      000000
__Htext115                                text115      000000
__Htext116                                text116      000000
__Htext117                                text117      000000
__Htext118                                text118      000000
__Htext12                                 text12       000000
__Htext120                                text120      000000
__Htext121                                text121      000000
__Htext122                                text122      000000
__Htext123                                text123      000000
__Htext124                                text124      000000
__Htext13                                 text13       000000
__Htext14                                 text14       000000
__Htext15                                 text15       000000
__Htext16                                 text16       000000
__Htext17                                 text17       000000
__Htext18                                 text18       000000
__Htext19                                 text19       000000
__Htext2                                  text2        000000
__Htext20                                 text20       000000
__Htext21                                 text21       000000
__Htext22                                 text22       000000
__Htext23                                 text23       000000
__Htext24                                 text24       000000
__Htext25                                 text25       000000
__Htext26                                 text26       000000
__Htext27                                 text27       000000
__Htext28                                 text28       000000
__Htext29                                 text29       000000
__Htext3                                  text3        000000
__Htext30                                 text30       000000
__Htext31                                 text31       000000
__Htext32                                 text32       000000
__Htext33                                 text33       000000
__Htext34                                 text34       000000
__Htext35                                 text35       000000
__Htext36                                 text36       000000
__Htext37                                 text37       000000
__Htext38                                 text38       000000
__Htext39                                 text39       000000
__Htext4                                  text4        000000
__Htext40                                 text40       000000
__Htext41                                 text41       000000
__Htext42                                 text42       000000
__Htext43                                 text43       000000
__Htext44                                 text44       000000
__Htext45                                 text45       000000
__Htext46                                 text46       000000
__Htext47                                 text47       000000
__Htext48                                 text48       000000
__Htext49                                 text49       000000
__Htext5                                  text5        000000
__Htext50                                 text50       000000
__Htext51                                 text51       000000
__Htext52                                 text52       000000
__Htext53                                 text53       000000
__Htext54                                 text54       000000
__Htext55                                 text55       000000
__Htext56                                 text56       000000
__Htext57                                 text57       000000
__Htext58                                 text58       000000
__Htext59                                 text59       000000
__Htext6                                  text6        000000
__Htext60                                 text60       000000
__Htext61                                 text61       000000
__Htext62                                 text62       000000
__Htext63                                 text63       000000
__Htext64                                 text64       000000
__Htext65                                 text65       000000
__Htext66                                 text66       000000
__Htext67                                 text67       000000
__Htext68                                 text68       000000
__Htext69                                 text69       000000
__Htext7                                  text7        000000
__Htext70                                 text70       000000
__Htext71                                 text71       000000
__Htext72                                 text72       000000
__Htext73                                 text73       000000
__Htext74                                 text74       000000
__Htext75                                 text75       000000
__Htext76                                 text76       000000
__Htext77                                 text77       000000
__Htext78                                 text78       000000
__Htext79                                 text79       000000
__Htext8                                  text8        000000
__Htext80                                 text80       000000
__Htext81                                 text81       000000
__Htext82                                 text82       000000
__Htext83                                 text83       000000
__Htext84                                 text84       000000
__Htext85                                 text85       000000
__Htext86                                 text86       000000
__Htext87                                 text87       000000
__Htext88                                 text88       000000
__Htext89                                 text89       000000
__Htext9                                  text9        000000
__Htext90                                 text90       000000
__Htext91                                 text91       000000
__Htext92                                 text92       000000
__Htext93                                 text93       000000
__Htext94                                 text94       000000
__Htext95                                 text95       000000
__Htext96                                 text96       000000
__Htext97                                 text97       000000
__Htext98                                 text98       000000
__Htext99                                 text99       000000
__LRAM                                    (abs)        000001
__Labs1                                   abs1         000000
__Lbank0                                  bank0        000000
__Lbank1                                  bank1        000000
__Lbank10                                 bank10       000000
__Lbank11                                 bank11       000000
__Lbank12                                 bank12       000000
__Lbank13                                 bank13       000000
__Lbank14                                 bank14       000000
__Lbank15                                 bank15       000000
__Lbank2                                  bank2        000000
__Lbank3                                  bank3        000000
__Lbank4                                  bank4        000000
__Lbank5                                  bank5        000000
__Lbank6                                  bank6        000000
__Lbank7                                  bank7        000000
__Lbank8                                  bank8        000000
__Lbank9                                  bank9        000000
__Lbigbss                                 bigbss       000000
__Lbigdata                                bigdata      000000
__Lbigram                                 bigram       000000
__Lbss                                    bss          000000
__LbssBANK1                               bssBANK1     000000
__LbssBANK2                               bssBANK2     000000
__LbssBANK3                               bssBANK3     000000
__LbssBIGRAM                              bssBIGRAM    000000
__LbssCOMRAM                              bssCOMRAM    000000
__Lcinit                                  cinit        000000
__Lclrtext                                clrtext      000000
__Lcomram                                 comram       000000
__Lconfig                                 config       300000
__Lconst                                  const        000000
__LcstackBANK0                            cstackBANK0  000000
__LcstackBANK1                            cstackBANK1  000000
__LcstackBANK2                            cstackBANK2  000000
__LcstackCOMRAM                           cstackCOMRAM 000000
__Ldata                                   data         000000
__LdataCOMRAM                             dataCOMRAM   000000
__Leeprom_data                            eeprom_data  000000
__Lfarbss                                 farbss       000000
__Lfardata                                fardata      000000
__Libigdata                               ibigdata     000000
__Lidata                                  idata        000000
__LidataCOMRAM                            idataCOMRAM  000000
__Lidloc                                  idloc        200000
__Lifardata                               ifardata     000000
__Linit                                   init         00005A
__Lintcode                                intcode      000008
__Lintcode_body                           intcode_body 000000
__Lintcodelo                              intcodelo    00005A
__Lintentry                               intentry     000000
__Lintret                                 intret       000000
__Lintsave_regs                           intsave_regs 000000
__Lirdata                                 irdata       000000
__Lmediumconst                            mediumconst  00F73A
__LnvBANK1                                nvBANK1      000000
__LnvFARRAM                               nvFARRAM     000000
__Lnvbit                                  nvbit        000000
__Lnvrram                                 nvrram       000000
__Lpa_nodes0                              pa_nodes0    000000
__Lparam                                  rparam       000000
__Lpowerup                                powerup      00005A
__Lram                                    ram          000000
__Lramtop                                 ramtop       001000
__Lrbit                                   rbit         000000
__Lrbss                                   rbss         000000
__Lrdata                                  rdata        000000
__Lreset_vec                              reset_vec    000000
__Lrparam                                 rparam       000000
__Lsfr                                    sfr          000000
__Lsmallconst                             smallconst   000000
__Lspace_0                                (abs)        000000
__Lspace_1                                (abs)        000000
__Lspace_2                                (abs)        000000
__Lstack                                  stack        000E9D
__Lstruct                                 struct       000000
__Ltemp                                   temp         00003B
__Ltext                                   text         000000
__Ltext0                                  text0        000000
__Ltext1                                  text1        000000
__Ltext10                                 text10       000000
__Ltext100                                text100      000000
__Ltext101                                text101      000000
__Ltext102                                text102      000000
__Ltext103                                text103      000000
__Ltext104                                text104      000000
__Ltext105                                text105      000000
__Ltext106                                text106      000000
__Ltext107                                text107      000000
__Ltext108                                text108      000000
__Ltext109                                text109      000000
__Ltext11                                 text11       000000
__Ltext110                                text110      000000
__Ltext111                                text111      000000
__Ltext112                                text112      000000
__Ltext113                                text113      000000
__Ltext114                                text114      000000
__Ltext115                                text115      000000
__Ltext116                                text116      000000
__Ltext117                                text117      000000
__Ltext118                                text118      000000
__Ltext12                                 text12       000000
__Ltext120                                text120      000000
__Ltext121                                text121      000000
__Ltext122                                text122      000000
__Ltext123                                text123      000000
__Ltext124                                text124      000000
__Ltext13                                 text13       000000
__Ltext14                                 text14       000000
__Ltext15                                 text15       000000
__Ltext16                                 text16       000000
__Ltext17                                 text17       000000
__Ltext18                                 text18       000000
__Ltext19                                 text19       000000
__Ltext2                                  text2        000000
__Ltext20                                 text20       000000
__Ltext21                                 text21       000000
__Ltext22                                 text22       000000
__Ltext23                                 text23       000000
__Ltext24                                 text24       000000
__Ltext25                                 text25       000000
__Ltext26                                 text26       000000
__Ltext27                                 text27       000000
__Ltext28                                 text28       000000
__Ltext29                                 text29       000000
__Ltext3                                  text3        000000
__Ltext30                                 text30       000000
__Ltext31                                 text31       000000
__Ltext32                                 text32       000000
__Ltext33                                 text33       000000
__Ltext34                                 text34       000000
__Ltext35                                 text35       000000
__Ltext36                                 text36       000000
__Ltext37                                 text37       000000
__Ltext38                                 text38       000000
__Ltext39                                 text39       000000
__Ltext4                                  text4        000000
__Ltext40                                 text40       000000
__Ltext41                                 text41       000000
__Ltext42                                 text42       000000
__Ltext43                                 text43       000000
__Ltext44                                 text44       000000
__Ltext45                                 text45       000000
__Ltext46                                 text46       000000
__Ltext47                                 text47       000000
__Ltext48                                 text48       000000
__Ltext49                                 text49       000000
__Ltext5                                  text5        000000
__Ltext50                                 text50       000000
__Ltext51                                 text51       000000
__Ltext52                                 text52       000000
__Ltext53                                 text53       000000
__Ltext54                                 text54       000000
__Ltext55                                 text55       000000
__Ltext56                                 text56       000000
__Ltext57                                 text57       000000
__Ltext58                                 text58       000000
__Ltext59                                 text59       000000
__Ltext6                                  text6        000000
__Ltext60                                 text60       000000
__Ltext61                                 text61       000000
__Ltext62                                 text62       000000
__Ltext63                                 text63       000000
__Ltext64                                 text64       000000
__Ltext65                                 text65       000000
__Ltext66                                 text66       000000
__Ltext67                                 text67       000000
__Ltext68                                 text68       000000
__Ltext69                                 text69       000000
__Ltext7                                  text7        000000
__Ltext70                                 text70       000000
__Ltext71                                 text71       000000
__Ltext72                                 text72       000000
__Ltext73                                 text73       000000
__Ltext74                                 text74       000000
__Ltext75                                 text75       000000
__Ltext76                                 text76       000000
__Ltext77                                 text77       000000
__Ltext78                                 text78       000000
__Ltext79                                 text79       000000
__Ltext8                                  text8        000000
__Ltext80                                 text80       000000
__Ltext81                                 text81       000000
__Ltext82                                 text82       000000
__Ltext83                                 text83       000000
__Ltext84                                 text84       000000
__Ltext85                                 text85       000000
__Ltext86                                 text86       000000
__Ltext87                                 text87       000000
__Ltext88                                 text88       000000
__Ltext89                                 text89       000000
__Ltext9                                  text9        000000
__Ltext90                                 text90       000000
__Ltext91                                 text91       000000
__Ltext92                                 text92       000000
__Ltext93                                 text93       000000
__Ltext94                                 text94       000000
__Ltext95                                 text95       000000
__Ltext96                                 text96       000000
__Ltext97                                 text97       000000
__Ltext98                                 text98       000000
__Ltext99                                 text99       000000
__S0                                      (abs)        30000E
__S1                                      (abs)        000E9D
__S2                                      (abs)        000F38
___aldiv                                  text49       007B40
___aldiv@counter                          cstackCOMRAM 000016
___aldiv@dividend                         cstackCOMRAM 00000E
___aldiv@divisor                          cstackCOMRAM 000012
___aldiv@quotient                         cstackCOMRAM 000018
___aldiv@sign                             cstackCOMRAM 000017
___inthi_sp                               stack        000ED2
___intlo_sp                               stack        000F05
___lldiv                                  text92       00825A
___lldiv@counter                          cstackCOMRAM 00001A
___lldiv@dividend                         cstackCOMRAM 00000E
___lldiv@divisor                          cstackCOMRAM 000012
___lldiv@quotient                         cstackCOMRAM 000016
___llmod                                  text11       008554
___llmod@counter                          cstackCOMRAM 000017
___llmod@dividend                         cstackCOMRAM 00000E
___llmod@divisor                          cstackCOMRAM 000012
___lmul                                   text101      00870E
___lmul@multiplicand                      cstackCOMRAM 000025
___lmul@multiplier                        cstackCOMRAM 000021
___lmul@product                           cstackCOMRAM 000029
___lwdiv                                  text117      0087A4
___lwdiv@counter                          cstackCOMRAM 000012
___lwdiv@dividend                         cstackCOMRAM 00000E
___lwdiv@divisor                          cstackCOMRAM 000010
___lwdiv@quotient                         cstackCOMRAM 000013
___lwmod                                  text80       008930
___lwmod@counter                          cstackCOMRAM 00001A
___lwmod@dividend                         cstackCOMRAM 000015
___lwmod@divisor                          cstackCOMRAM 000017
___param_bank                             (abs)        000000
___rparam_used                            (abs)        000001
___send_cmd                               text59       0081E4
___send_cmd@arg                           cstackCOMRAM 000026
___send_cmd@cmd                           cstackCOMRAM 00002F
___send_cmd@n                             cstackCOMRAM 00002E
___send_cmd@res                           cstackCOMRAM 00002D
___sp                                     stack        000E9D
___wmul                                   text73       008C1C
___wmul@multiplicand                      cstackCOMRAM 000010
___wmul@multiplier                        cstackCOMRAM 00000E
___wmul@product                           cstackCOMRAM 000012
__accesstop                               (abs)        000060
__activetblptr                            (abs)        000003
__end_ofPL10                              text114      004FC8
__end_ofPL100                             text0        001144
__end_ofPL102                             text114      00505C
__end_ofPL104                             text88       001AD4
__end_ofPL106                             text0        00116A
__end_ofPL108                             text36       004AEC
__end_ofPL110                             text103      004558
__end_ofPL112                             text26       002078
__end_ofPL114                             text36       004AF6
__end_ofPL116                             text88       001AE0
__end_ofPL118                             text98       004828
__end_ofPL12                              text103      0044B8
__end_ofPL120                             text31       00252A
__end_ofPL122                             text34       004D9C
__end_ofPL124                             text26       002084
__end_ofPL126                             text114      005064
__end_ofPL128                             text28       005B96
__end_ofPL130                             text0        001178
__end_ofPL132                             text75       0033AC
__end_ofPL134                             text75       0033C0
__end_ofPL136                             text45       0061FE
__end_ofPL138                             text102      003B82
__end_ofPL14                              text32       002FC8
__end_ofPL140                             text0        00118A
__end_ofPL142                             text84       006934
__end_ofPL144                             text0        00119E
__end_ofPL146                             text88       001B00
__end_ofPL148                             text74       00421C
__end_ofPL150                             text44       006082
__end_ofPL152                             text45       006208
__end_ofPL154                             text107      006E38
__end_ofPL156                             text40       0079BA
__end_ofPL158                             text34       004DBA
__end_ofPL16                              text3        0067E6
__end_ofPL160                             text0        0011BC
__end_ofPL162                             text9        003F1C
__end_ofPL164                             text0        0011CE
__end_ofPL166                             text31       00253C
__end_ofPL168                             text41       002A9C
__end_ofPL170                             text88       001B12
__end_ofPL172                             text29       0052EE
__end_ofPL174                             text95       00555A
__end_ofPL176                             text31       00254A
__end_ofPL178                             text74       004226
__end_ofPL18                              text90       0073A0
__end_ofPL180                             text7        006BEE
__end_ofPL182                             text40       0079C6
__end_ofPL184                             text70       006A8A
__end_ofPL186                             text88       001B2C
__end_ofPL188                             text86       0059D6
__end_ofPL190                             text75       0033DA
__end_ofPL192                             text0        0011D6
__end_ofPL194                             text28       005B9E
__end_ofPL196                             text32       002FDC
__end_ofPL198                             text44       00608A
__end_ofPL2                               text0        0010F6
__end_ofPL20                              text31       002514
__end_ofPL200                             text84       006944
__end_ofPL202                             text63       008BA2
__end_ofPL204                             text0        0011E6
__end_ofPL206                             text46       0037FE
__end_ofPL208                             text42       0057AE
__end_ofPL210                             text44       006092
__end_ofPL212                             text95       005564
__end_ofPL214                             text70       006A9A
__end_ofPL216                             text90       0073B0
__end_ofPL218                             text26       00208C
__end_ofPL22                              text36       004AD8
__end_ofPL220                             text32       002FE6
__end_ofPL222                             text0        0011FE
__end_ofPL224                             text116      006F62
__end_ofPL226                             text35       00666E
__end_ofPL228                             text116      006F7A
__end_ofPL230                             text35       006678
__end_ofPL232                             text84       00694E
__end_ofPL234                             text74       004230
__end_ofPL236                             text26       002096
__end_ofPL238                             text114      005074
__end_ofPL24                              text41       002A8A
__end_ofPL240                             text102      003B98
__end_ofPL242                             text30       0072BE
__end_ofPL244                             text74       00423A
__end_ofPL246                             text88       001B38
__end_ofPL248                             text0        00120A
__end_ofPL250                             text31       002554
__end_ofPL252                             text96       005D60
__end_ofPL254                             text76       007822
__end_ofPL256                             text115      007A6C
__end_ofPL258                             text36       004B04
__end_ofPL26                              text114      004FE6
__end_ofPL260                             text32       002FEE
__end_ofPL262                             text38       005EF2
__end_ofPL264                             text45       006216
__end_ofPL266                             text35       006680
__end_ofPL268                             text0        00121E
__end_ofPL270                             text108      00758E
__end_ofPL272                             text33       0080DC
__end_ofPL274                             text0        001232
__end_ofPL276                             text41       002AB0
__end_ofPL278                             text72       007672
__end_ofPL28                              text31       00251E
__end_ofPL280                             text34       004DCE
__end_ofPL282                             text37       007750
__end_ofPL284                             text86       0059E0
__end_ofPL286                             text94       007FBE
__end_ofPL288                             text76       00782C
__end_ofPL290                             text36       004B12
__end_ofPL292                             text95       00556E
__end_ofPL294                             text31       002566
__end_ofPL296                             text26       0020A8
__end_ofPL298                             text31       002578
__end_ofPL30                              text0        001106
__end_ofPL300                             text42       0057C0
__end_ofPL302                             text0        001244
__end_ofPL304                             text31       00258A
__end_ofPL306                             text31       00259C
__end_ofPL308                             text41       002AC2
__end_ofPL310                             text7        006C00
__end_ofPL312                             text107      006E40
__end_ofPL314                             text31       0025AE
__end_ofPL316                             text41       002AD4
__end_ofPL318                             text98       00483A
__end_ofPL32                              text103      0044C0
__end_ofPL320                             text108      0075A0
__end_ofPL322                             text32       003000
__end_ofPL324                             text29       005300
__end_ofPL326                             text0        001256
__end_ofPL328                             text98       00484C
__end_ofPL330                             text34       004DE0
__end_ofPL332                             text41       002AE6
__end_ofPL334                             text42       0057D2
__end_ofPL336                             text95       005580
__end_ofPL338                             text26       0020BA
__end_ofPL34                              text74       0041A8
__end_ofPL340                             text0        001262
__end_ofPL342                             text31       0025BA
__end_ofPL344                             text42       0057DE
__end_ofPL346                             text0        00126E
__end_ofPL348                             text46       00380A
__end_ofPL350                             text113      0084EE
__end_ofPL352                             text88       001B44
__end_ofPL354                             text45       006222
__end_ofPL356                             text0        00127A
__end_ofPL358                             text46       003814
__end_ofPL36                              text103      0044CA
__end_ofPL360                             text13       008B4E
__end_ofPL362                             text99       007094
__end_ofPL364                             text90       0073BA
__end_ofPL366                             text107      006E48
__end_ofPL368                             text99       00709E
__end_ofPL370                             text0        00128A
__end_ofPL372                             text0        001296
__end_ofPL374                             text31       0025C2
__end_ofPL376                             text28       005BA6
__end_ofPL378                             text0        0012A6
__end_ofPL38                              text103      004508
__end_ofPL380                             text65       007906
__end_ofPL382                             text84       006956
__end_ofPL384                             text106      007E92
__end_ofPL386                             text86       0059E8
__end_ofPL388                             text31       0025CA
__end_ofPL390                             text83       00749C
__end_ofPL392                             text36       004B22
__end_ofPL394                             text36       004B2A
__end_ofPL396                             text88       001B4C
__end_ofPL398                             text45       00622A
__end_ofPL4                               text88       001AB0
__end_ofPL40                              text114      005024
__end_ofPL400                             text0        0012B6
__end_ofPL402                             text41       002AF0
__end_ofPL404                             text103      004562
__end_ofPL406                             text28       005BB0
__end_ofPL408                             text75       0033EA
__end_ofPL410                             text116      006F8A
__end_ofPL412                             text42       0057E8
__end_ofPL414                             text26       0020C6
__end_ofPL416                             text0        0012C4
__end_ofPL418                             text18       0087A4
__end_ofPL42                              text113      0084E4
__end_ofPL420                             text104      008CAE
__end_ofPL422                             text71       00650A
__end_ofPL424                             text46       003822
__end_ofPL426                             text75       0033F8
__end_ofPL428                             text46       003830
__end_ofPL430                             text107      006E56
__end_ofPL432                             text41       002AFC
__end_ofPL434                             text46       00383E
__end_ofPL436                             text14       008930
__end_ofPL438                             text1        007B40
__end_ofPL44                              text74       0041C0
__end_ofPL440                             text75       003406
__end_ofPL442                             text71       006518
__end_ofPL444                             text88       001B56
__end_ofPL446                             text98       004856
__end_ofPL448                             text34       004DEA
__end_ofPL450                             text9        003F26
__end_ofPL452                             text74       004244
__end_ofPL454                             text68       00841C
__end_ofPL456                             text37       00775A
__end_ofPL458                             text0        0012CE
__end_ofPL46                              text98       00481E
__end_ofPL460                             text0        0012D8
__end_ofPL462                             text88       001B60
__end_ofPL464                             text38       005EFC
__end_ofPL466                             text100      007CAA
__end_ofPL468                             text41       002B06
__end_ofPL470                             text26       0020D0
__end_ofPL472                             text31       0025D2
__end_ofPL474                             text74       00424E
__end_ofPL476                             text0        0012E0
__end_ofPL478                             text0        0012EC
__end_ofPL48                              text105      008A20
__end_ofPL480                             text76       007838
__end_ofPL482                             text98       004862
__end_ofPL484                             text85       008342
__end_ofPL486                             text37       007766
__end_ofPL488                             text0        0012F8
__end_ofPL490                             text115      007A78
__end_ofPL492                             text75       003412
__end_ofPL494                             text0        001304
__end_ofPL496                             text81       00639A
__end_ofPL498                             text47       0089AA
__end_ofPL50                              text114      005034
__end_ofPL500                             text0        001310
__end_ofPL502                             text0        00131C
__end_ofPL504                             text36       004B36
__end_ofPL506                             text83       0074A8
__end_ofPL508                             text72       00767E
__end_ofPL510                             text74       00425A
__end_ofPL512                             text0        001328
__end_ofPL514                             text102      003BA4
__end_ofPL516                             text46       00384A
__end_ofPL518                             text115      007A84
__end_ofPL52                              text86       0059C2
__end_ofPL520                             text0        001334
__end_ofPL522                             text114      005080
__end_ofPL524                             text70       006AA6
__end_ofPL526                             text75       00341C
__end_ofPL528                             text88       001B68
__end_ofPL530                             text0        00133E
__end_ofPL532                             text28       005BBA
__end_ofPL534                             text102      003BAE
__end_ofPL536                             text31       0025DC
__end_ofPL538                             text38       005F06
__end_ofPL54                              text9        003EF8
__end_ofPL540                             text103      00456C
__end_ofPL542                             text31       0025E6
__end_ofPL544                             text0        001348
__end_ofPL546                             text88       001B72
__end_ofPL548                             text9        003F30
__end_ofPL550                             text81       0063A2
__end_ofPL552                             text28       005BC2
__end_ofPL554                             text6        0086BC
__end_ofPL556                             text26       0020DA
__end_ofPL558                             text28       005BCC
__end_ofPL56                              text103      004518
__end_ofPL560                             text0        001352
__end_ofPL562                             text102      003BB8
__end_ofPL564                             text72       007688
__end_ofPL566                             text83       0074B2
__end_ofPL568                             text96       005D6A
__end_ofPL570                             text70       006AB0
__end_ofPL572                             text123      008D2C
__end_ofPL574                             text31       0025F0
__end_ofPL576                             text31       0025FA
__end_ofPL578                             text32       00300A
__end_ofPL58                              text9        003F0A
__end_ofPL580                             text26       0020E4
__end_ofPL582                             text0        00135C
__end_ofPL584                             text35       00668A
__end_ofPL586                             text88       001B7C
__end_ofPL588                             text95       00558A
__end_ofPL590                             text26       0020EE
__end_ofPL592                             text44       00609C
__end_ofPL594                             text3        0067F0
__end_ofPL596                             text4        008B22
__end_ofPL598                             text42       0057F2
__end_ofPL6                               text103      00449A
__end_ofPL60                              text74       0041D4
__end_ofPL600                             text102      003BC2
__end_ofPL602                             text102      003BCC
__end_ofPL604                             text107      006E60
__end_ofPL606                             text88       001B86
__end_ofPL608                             text102      003BD6
__end_ofPL610                             text75       003426
__end_ofPL612                             text41       002B10
__end_ofPL614                             text46       003854
__end_ofPL616                             text81       0063AC
__end_ofPL618                             text75       003430
__end_ofPL62                              text88       001AC2
__end_ofPL620                             text102      003BE0
__end_ofPL622                             text71       006522
__end_ofPL624                             text102      003BEA
__end_ofPL626                             text0        001366
__end_ofPL628                             text75       00343A
__end_ofPL630                             text31       002600
__end_ofPL632                             text29       005308
__end_ofPL634                             text31       002606
__end_ofPL636                             text0        00136E
__end_ofPL638                             text0        001376
__end_ofPL64                              text0        001114
__end_ofPL640                             text44       0060A2
__end_ofPL642                             text0        00137E
__end_ofPL644                             text0        001386
__end_ofPL646                             text34       004DF2
__end_ofPL648                             text93       00816A
__end_ofPL650                             text26       0020F6
__end_ofPL66                              text74       0041E2
__end_ofPL68                              text0        001128
__end_ofPL70                              text28       005B88
__end_ofPL72                              text26       00206E
__end_ofPL74                              text86       0059CC
__end_ofPL76                              text32       002FD2
__end_ofPL78                              text75       003398
__end_ofPL8                               text26       00205A
__end_ofPL80                              text102      003B64
__end_ofPL82                              text74       0041EC
__end_ofPL84                              text0        001132
__end_ofPL86                              text96       005D4A
__end_ofPL88                              text103      004520
__end_ofPL90                              text96       005D54
__end_ofPL92                              text74       004214
__end_ofPL94                              text102      003B6E
__end_ofPL96                              text103      004548
__end_ofPL98                              text46       0037EE
__end_of_EUSART1_Initialize               text56       008D6A
__end_of_EUSART1_Read                     text2        008D7A
__end_of_EUSART1_Write                    text78       008DAE
__end_of_ExCvt                            mediumconst  00F7BB
__end_of_INTERRUPT_Initialize             text55       008E14
__end_of_INTERRUPT_InterruptManager       intcode      00005A
__end_of_LfnOfs                           mediumconst  00F7C8
__end_of_OSCILLATOR_Initialize            text54       008D96
__end_of_PIN_MANAGER_Initialize           text53       008A8E
__end_of_SPI1_Exchange8bit                text91       008D8A
__end_of_SPI1_Initialize                  text82       008DBA
__end_of_SYSTEM_Initialize                text50       008CFC
__end_of_TMR1_DefaultInterruptHandler     text121      008E16
__end_of_TMR1_ISR                         text120      008BCC
__end_of_TMR1_Initialize                  text51       008BF4
__end_of_TMR1_SetInterruptHandler         text52       008DD8
__end_of_TMR1_WriteTimer                  text123      008D22
__end_of___aldiv                          text49       007BFC
__end_of___lldiv                          text92       0082D0
__end_of___llmod                          text11       0085B6
__end_of___lmul                           text101      00875A
__end_of___lwdiv                          text117      0087EE
__end_of___lwmod                          text80       00896E
__end_of___send_cmd                       text59       00825A
__end_of___wmul                           text73       008C42
__end_of__initialization                  cinit        008480
__end_of_check_fs                         text76       007814
__end_of_chk_chr                          text63       008B92
__end_of_clst2sect                        text100      007CA0
__end_of_cmp_lfn                          text70       006A7E
__end_of_create_chain                     text102      003B54
__end_of_create_name                      text75       00336C
__end_of_dbc_1st                          text67       008DEC
__end_of_dbc_2nd                          text64       008DE2
__end_of_deselect                         text110      008E04
__end_of_dir_alloc                        text40       00799C
__end_of_dir_clear                        text99       007084
__end_of_dir_find                         text86       0059B2
__end_of_dir_next                         text98       004812
__end_of_dir_read                         text96       005D3C
__end_of_dir_register                     text36       004AC4
__end_of_dir_remove                       text30       0072B4
__end_of_dir_sdi                          text95       00553E
__end_of_disk_initialize                  text81       006390
__end_of_disk_ioctl                       text46       0037E4
__end_of_disk_read                        text111      007DF6
__end_of_disk_status                      text61       008DA2
__end_of_disk_write                       text108      00757A
__end_of_dpowers                          mediumconst  00F7DE
__end_of_f_close                          text43       0088F2
__end_of_f_closedir                       text77       008C1C
__end_of_f_getfree                        text42       0057A4
__end_of_f_lseek                          text41       002A80
__end_of_f_mkdir                          text34       004D78
__end_of_f_mount                          text33       0080C8
__end_of_f_open                           text32       002FB4
__end_of_f_opendir                        text83       007492
__end_of_f_read                           text31       002500
__end_of_f_readdir                        text93       008162
__end_of_f_rename                         text29       0052E0
__end_of_f_sync                           text44       006078
__end_of_f_truncate                       text28       005B7E
__end_of_f_unlink                         text27       006D36
__end_of_f_write                          text26       002050
__end_of_ff_oem2uni                       text66       0081E4
__end_of_ff_uni2oem                       text69       007D50
__end_of_ff_wtoupper                      text71       0064FC
__end_of_find_volume                      text88       001AA6
__end_of_follow_path                      text84       006920
__end_of_gen_numname                      text38       005EE4
__end_of_get_fat                          text114      004FA2
__end_of_get_fattime                      text48       0071B0
__end_of_get_fileinfo                     text74       00418E
__end_of_get_ldnumber                     text90       007394
__end_of_lcd_aydinlatma_ac                text21       008DF4
__end_of_lcd_baslat                       text16       007F2C
__end_of_lcd_git                          text15       0088B2
__end_of_lcd_harfyaz                      text14       008922
__end_of_lcd_komut                        text18       008796
__end_of_lcd_mesajyaz                     text13       008B3E
__end_of_lcd_mesgulmu                     text20       008DCE
__end_of_lcd_sil                          text17       008E0A
__end_of_ld_clust                         text85       008336
__end_of_ld_dword                         text113      0084C2
__end_of_ld_word                          text89       008AC4
__end_of_main                             text0        0010E4
__end_of_mem_cmp                          text62       008554
__end_of_mem_cpy                          text39       008872
__end_of_mem_set                          text87       008C68
__end_of_memset                           text12       008B78
__end_of_move_window                      text106      007E82
__end_of_pcf8574_yaz                      text22       008D42
__end_of_pcf8574_yaz_wEnable              text19       008C8C
__end_of_pick_lfn                         text72       00765E
__end_of_printf                           text116      006F4A
__end_of_put_dump                         text7        006BE0
__end_of_put_fat                          text103      004474
__end_of_put_lfn                          text37       00773C
__end_of_put_rc                           text6        0086B2
__end_of_put_utf                          text68       008412
__end_of_putch                            text79       008DFC
__end_of_rcvr_datablock                   text112      008616
__end_of_remove_chain                     text35       006656
__end_of_scan_files                       text115      007A5E
__end_of_select                           text60       008D14
__end_of_send_cmd                         text109      008A58
__end_of_softRTC                          text122      00804E
__end_of_softi2c_baslat                   text25       008CCA
__end_of_softi2c_durdur                   text24       008CE4
__end_of_softi2c_kur                      text5        008DC4
__end_of_softi2c_yaz                      text23       008830
__end_of_st_clust                         text47       00899E
__end_of_st_dword                         text105      008A00
__end_of_st_word                          text104      008CA0
__end_of_strchr                           text4        008B18
__end_of_sum_sfn                          text97       0089E6
__end_of_sync_fs                          text45       0061EA
__end_of_sync_window                      text107      006E2E
__end_of_tchar2uni                        text65       0078F6
__end_of_uc857                            mediumconst  00FAD4
__end_of_validate                         text94       007FB4
__end_of_wait_ready                       text57       008AF6
__end_of_xatoi                            text3        0067C2
__end_of_xgets                            text1        007B32
__end_of_xmit_datablock                   text58       0083B0
__end_of_xprintf                          text8        008D56
__end_of_xputc                            text118      00866A
__end_of_xputs                            text10       00870E
__end_of_xvprintf                         text9        003EE2
__end_offf_wtoupper@cvt1                  mediumconst  00F9D4
__end_offf_wtoupper@cvt2                  mediumconst  00FB90
__end_ofmain@F7711                        mediumconst  00F7E2
__end_ofsoftRTC@samurai                   mediumconst  00F7D4
__initialization                          cinit        00841C
__mediumconst                             mediumconst  00F73A
__pbssBANK1                               bssBANK1     0001EB
__pbssBANK2                               bssBANK2     0002EB
__pbssBANK3                               bssBANK3     000300
__pbssBIGRAM                              bssBIGRAM    0003FC
__pbssCOMRAM                              bssCOMRAM    000047
__pcinit                                  cinit        00841C
__pcstackBANK0                            cstackBANK0  000060
__pcstackBANK1                            cstackBANK1  000100
__pcstackBANK2                            cstackBANK2  000200
__pcstackCOMRAM                           cstackCOMRAM 000001
__pdataCOMRAM                             dataCOMRAM   00004E
__pidataCOMRAM                            idataCOMRAM  008E0A
__pintcode                                intcode      000008
__pmediumconst                            mediumconst  00F73A
__pnvBANK1                                nvBANK1      0001F3
__ptext0                                  text0        000062
__ptext1                                  text1        007A84
__ptext10                                 text10       0086BC
__ptext100                                text100      007BFC
__ptext101                                text101      00870E
__ptext102                                text102      003854
__ptext103                                text103      00425A
__ptext104                                text104      008C8C
__ptext105                                text105      0089E6
__ptext106                                text106      007DF6
__ptext107                                text107      006D36
__ptext108                                text108      0074B2
__ptext109                                text109      008A20
__ptext11                                 text11       008554
__ptext110                                text110      008DFC
__ptext111                                text111      007D50
__ptext112                                text112      0085B6
__ptext113                                text113      008486
__ptext114                                text114      004DF2
__ptext115                                text115      0079C6
__ptext116                                text116      006E60
__ptext117                                text117      0087A4
__ptext118                                text118      008616
__ptext12                                 text12       008B4E
__ptext120                                text120      008BA2
__ptext121                                text121      008E14
__ptext122                                text122      007FBE
__ptext123                                text123      008D14
__ptext124                                text124      000000
__ptext13                                 text13       008B22
__ptext14                                 text14       0088F2
__ptext15                                 text15       008872
__ptext16                                 text16       007E92
__ptext17                                 text17       008E04
__ptext18                                 text18       00875A
__ptext19                                 text19       008C68
__ptext2                                  text2        008D6A
__ptext20                                 text20       008DC4
__ptext21                                 text21       008DEC
__ptext22                                 text22       008D2C
__ptext23                                 text23       0087EE
__ptext24                                 text24       008CCA
__ptext25                                 text25       008CAE
__ptext26                                 text26       001B86
__ptext27                                 text27       006C00
__ptext28                                 text28       0059E8
__ptext29                                 text29       005080
__ptext3                                  text3        00668A
__ptext30                                 text30       0071B0
__ptext31                                 text31       0020F6
__ptext32                                 text32       002B10
__ptext33                                 text33       00804E
__ptext34                                 text34       004B36
__ptext35                                 text35       006522
__ptext36                                 text36       004862
__ptext37                                 text37       007688
__ptext38                                 text38       005D6A
__ptext39                                 text39       008830
__ptext4                                  text4        008AF6
__ptext40                                 text40       007906
__ptext41                                 text41       002606
__ptext42                                 text42       00558A
__ptext43                                 text43       0088B2
__ptext44                                 text44       005F06
__ptext45                                 text45       0060A2
__ptext46                                 text46       00343A
__ptext47                                 text47       00896E
__ptext48                                 text48       00709E
__ptext49                                 text49       007B40
__ptext5                                  text5        008DBA
__ptext50                                 text50       008CE4
__ptext51                                 text51       008BCC
__ptext52                                 text52       008DCE
__ptext53                                 text53       008A58
__ptext54                                 text54       008D8A
__ptext55                                 text55       008E10
__ptext56                                 text56       008D56
__ptext57                                 text57       008AC4
__ptext58                                 text58       008342
__ptext59                                 text59       0081E4
__ptext6                                  text6        00866A
__ptext60                                 text60       008CFC
__ptext61                                 text61       008D96
__ptext62                                 text62       0084EE
__ptext63                                 text63       008B78
__ptext64                                 text64       008DD8
__ptext65                                 text65       007838
__ptext66                                 text66       00816A
__ptext67                                 text67       008DE2
__ptext68                                 text68       0083B0
__ptext69                                 text69       007CAA
__ptext7                                  text7        006AB0
__ptext70                                 text70       006956
__ptext71                                 text71       0063AC
__ptext72                                 text72       0075A0
__ptext73                                 text73       008C1C
__ptext74                                 text74       003F30
__ptext75                                 text75       00300A
__ptext76                                 text76       007766
__ptext77                                 text77       008BF4
__ptext78                                 text78       008DA2
__ptext79                                 text79       008DF4
__ptext8                                  text8        008D42
__ptext80                                 text80       008930
__ptext81                                 text81       00622A
__ptext82                                 text82       008DAE
__ptext83                                 text83       0073BA
__ptext84                                 text84       0067F0
__ptext85                                 text85       0082D0
__ptext86                                 text86       0057F2
__ptext87                                 text87       008C42
__ptext88                                 text88       001386
__ptext89                                 text89       008A8E
__ptext9                                  text9        003BEA
__ptext90                                 text90       0072BE
__ptext91                                 text91       008D7A
__ptext92                                 text92       00825A
__ptext93                                 text93       0080DC
__ptext94                                 text94       007F2C
__ptext95                                 text95       005308
__ptext96                                 text96       005BCC
__ptext97                                 text97       0089AA
__ptext98                                 text98       00456C
__ptext99                                 text99       006F8A
__ramtop                                  ramtop       001000
__size_of_EUSART1_Initialize              (abs)        000000
__size_of_EUSART1_Read                    (abs)        000000
__size_of_EUSART1_Write                   (abs)        000000
__size_of_INTERRUPT_Initialize            (abs)        000000
__size_of_INTERRUPT_InterruptManager      (abs)        000000
__size_of_OSCILLATOR_Initialize           (abs)        000000
__size_of_PIN_MANAGER_Initialize          (abs)        000000
__size_of_SPI1_Exchange8bit               (abs)        000000
__size_of_SPI1_Initialize                 (abs)        000000
__size_of_SYSTEM_Initialize               (abs)        000000
__size_of_TMR1_DefaultInterruptHandler    (abs)        000000
__size_of_TMR1_ISR                        (abs)        000000
__size_of_TMR1_Initialize                 (abs)        000000
__size_of_TMR1_SetInterruptHandler        (abs)        000000
__size_of_TMR1_WriteTimer                 (abs)        000000
__size_of___aldiv                         (abs)        000000
__size_of___lldiv                         (abs)        000000
__size_of___llmod                         (abs)        000000
__size_of___lmul                          (abs)        000000
__size_of___lwdiv                         (abs)        000000
__size_of___lwmod                         (abs)        000000
__size_of___send_cmd                      (abs)        000000
__size_of___wmul                          (abs)        000000
__size_of_check_fs                        (abs)        000000
__size_of_chk_chr                         (abs)        000000
__size_of_clst2sect                       (abs)        000000
__size_of_cmp_lfn                         (abs)        000000
__size_of_create_chain                    (abs)        000000
__size_of_create_name                     (abs)        000000
__size_of_dbc_1st                         (abs)        000000
__size_of_dbc_2nd                         (abs)        000000
__size_of_deselect                        (abs)        000000
__size_of_dir_alloc                       (abs)        000000
__size_of_dir_clear                       (abs)        000000
__size_of_dir_find                        (abs)        000000
__size_of_dir_next                        (abs)        000000
__size_of_dir_read                        (abs)        000000
__size_of_dir_register                    (abs)        000000
__size_of_dir_remove                      (abs)        000000
__size_of_dir_sdi                         (abs)        000000
__size_of_disk_initialize                 (abs)        000000
__size_of_disk_ioctl                      (abs)        000000
__size_of_disk_read                       (abs)        000000
__size_of_disk_status                     (abs)        000000
__size_of_disk_write                      (abs)        000000
__size_of_f_close                         (abs)        000000
__size_of_f_closedir                      (abs)        000000
__size_of_f_getfree                       (abs)        000000
__size_of_f_lseek                         (abs)        000000
__size_of_f_mkdir                         (abs)        000000
__size_of_f_mount                         (abs)        000000
__size_of_f_open                          (abs)        000000
__size_of_f_opendir                       (abs)        000000
__size_of_f_read                          (abs)        000000
__size_of_f_readdir                       (abs)        000000
__size_of_f_rename                        (abs)        000000
__size_of_f_sync                          (abs)        000000
__size_of_f_truncate                      (abs)        000000
__size_of_f_unlink                        (abs)        000000
__size_of_f_write                         (abs)        000000
__size_of_ff_oem2uni                      (abs)        000000
__size_of_ff_uni2oem                      (abs)        000000
__size_of_ff_wtoupper                     (abs)        000000
__size_of_find_volume                     (abs)        000000
__size_of_follow_path                     (abs)        000000
__size_of_gen_numname                     (abs)        000000
__size_of_get_fat                         (abs)        000000
__size_of_get_fattime                     (abs)        000000
__size_of_get_fileinfo                    (abs)        000000
__size_of_get_ldnumber                    (abs)        000000
__size_of_lcd_aydinlatma_ac               (abs)        000000
__size_of_lcd_baslat                      (abs)        000000
__size_of_lcd_git                         (abs)        000000
__size_of_lcd_harfyaz                     (abs)        000000
__size_of_lcd_komut                       (abs)        000000
__size_of_lcd_mesajyaz                    (abs)        000000
__size_of_lcd_mesgulmu                    (abs)        000000
__size_of_lcd_sil                         (abs)        000000
__size_of_ld_clust                        (abs)        000000
__size_of_ld_dword                        (abs)        000000
__size_of_ld_word                         (abs)        000000
__size_of_main                            (abs)        000000
__size_of_mem_cmp                         (abs)        000000
__size_of_mem_cpy                         (abs)        000000
__size_of_mem_set                         (abs)        000000
__size_of_memset                          (abs)        000000
__size_of_move_window                     (abs)        000000
__size_of_pcf8574_yaz                     (abs)        000000
__size_of_pcf8574_yaz_wEnable             (abs)        000000
__size_of_pick_lfn                        (abs)        000000
__size_of_printf                          (abs)        000000
__size_of_put_dump                        (abs)        000000
__size_of_put_fat                         (abs)        000000
__size_of_put_lfn                         (abs)        000000
__size_of_put_rc                          (abs)        000000
__size_of_put_utf                         (abs)        000000
__size_of_putch                           (abs)        000000
__size_of_rcvr_datablock                  (abs)        000000
__size_of_remove_chain                    (abs)        000000
__size_of_scan_files                      (abs)        000000
__size_of_select                          (abs)        000000
__size_of_send_cmd                        (abs)        000000
__size_of_softRTC                         (abs)        000000
__size_of_softi2c_baslat                  (abs)        000000
__size_of_softi2c_durdur                  (abs)        000000
__size_of_softi2c_kur                     (abs)        000000
__size_of_softi2c_yaz                     (abs)        000000
__size_of_st_clust                        (abs)        000000
__size_of_st_dword                        (abs)        000000
__size_of_st_word                         (abs)        000000
__size_of_strchr                          (abs)        000000
__size_of_sum_sfn                         (abs)        000000
__size_of_sync_fs                         (abs)        000000
__size_of_sync_window                     (abs)        000000
__size_of_tchar2uni                       (abs)        000000
__size_of_validate                        (abs)        000000
__size_of_wait_ready                      (abs)        000000
__size_of_xatoi                           (abs)        000000
__size_of_xgets                           (abs)        000000
__size_of_xmit_datablock                  (abs)        000000
__size_of_xprintf                         (abs)        000000
__size_of_xputc                           (abs)        000000
__size_of_xputs                           (abs)        000000
__size_of_xvprintf                        (abs)        000000
__smallconst                              smallconst   000000
_check_fs                                 text76       007766
_chk_chr                                  text63       008B78
_clst2sect                                text100      007BFC
_cmp_lfn                                  text70       006956
_create_chain                             text102      003854
_create_name                              text75       00300A
_create_name$1040                         cstackBANK0  000080
_dbc_1st                                  text67       008DE2
_dbc_2nd                                  text64       008DD8
_deselect                                 text110      008DFC
_dir_alloc                                text40       007906
_dir_clear                                text99       006F8A
_dir_find                                 text86       0057F2
_dir_find$859                             cstackBANK1  00015C
_dir_next                                 text98       00456C
_dir_read                                 text96       005BCC
_dir_read$816                             cstackBANK1  000160
_dir_register                             text36       004862
_dir_remove                               text30       0071B0
_dir_remove$943                           cstackBANK1  000164
_dir_sdi                                  text95       005308
_disk_initialize                          text81       00622A
_disk_initialize$127                      cstackBANK0  0000E9
_disk_ioctl                               text46       00343A
_disk_read                                text111      007D50
_disk_read$136                            cstackCOMRAM 000037
_disk_status                              text61       008D96
_disk_write                               text108      0074B2
_dpowers                                  mediumconst  00F7D4
_f_close                                  text43       0088B2
_f_closedir                               text77       008BF4
_f_getfree                                text42       00558A
_f_lseek                                  text41       002606
_f_mkdir                                  text34       004B36
_f_mount                                  text33       00804E
_f_open                                   text32       002B10
_f_opendir                                text83       0073BA
_f_read                                   text31       0020F6
_f_readdir                                text93       0080DC
_f_rename                                 text29       005080
_f_rename$2007                            cstackBANK2  000220
_f_sync                                   text44       005F06
_f_truncate                               text28       0059E8
_f_unlink                                 text27       006C00
_f_write                                  text26       001B86
_f_write$1490                             cstackBANK1  000152
_ff_oem2uni                               text66       00816A
_ff_uni2oem                               text69       007CAA
_ff_wtoupper                              text71       0063AC
_find_volume                              text88       001386
_find_volume$1173                         cstackBANK1  000123
_find_volume$1174                         cstackBANK1  000127
_follow_path                              text84       0067F0
_gen_numname                              text38       005D6A
_gen_numname$769                          cstackCOMRAM 000030
_get_fat                                  text114      004DF2
_get_fat$444                              cstackBANK1  00010E
_get_fattime                              text48       00709E
_get_fileinfo                             text74       003F30
_get_fileinfo$991                         cstackBANK0  0000F3
_get_ldnumber                             text90       0072BE
_lcd_aydinlatma_ac                        text21       008DEC
_lcd_baslat                               text16       007E92
_lcd_git                                  text15       008872
_lcd_harfyaz                              text14       0088F2
_lcd_komut                                text18       00875A
_lcd_mesajyaz                             text13       008B22
_lcd_mesgulmu                             text20       008DC4
_lcd_sil                                  text17       008E04
_ld_clust                                 text85       0082D0
_ld_dword                                 text113      008486
_ld_word                                  text89       008A8E
_main                                     text0        000062
_main$3286                                cstackBANK2  000293
_main$3327                                cstackBANK2  000295
_main$3328                                cstackBANK2  000297
_main$3329                                cstackBANK2  000299
_main$3330                                cstackBANK2  00029B
_main$3331                                cstackBANK2  00029D
_main$3355                                cstackBANK2  00028B
_main$3358                                cstackBANK2  00028F
_mem_cmp                                  text62       0084EE
_mem_cpy                                  text39       008830
_mem_set                                  text87       008C42
_memset                                   text12       008B4E
_move_window                              text106      007DF6
_outptr                                   bssBANK1     0001EB
_pcf8574_yaz                              text22       008D2C
_pcf8574_yaz_wEnable                      text19       008C68
_pcf_port                                 bssCOMRAM    00004D
_pick_lfn                                 text72       0075A0
_printf                                   text116      006E60
_put_dump                                 text7        006AB0
_put_dump$3807                            cstackCOMRAM 000031
_put_fat                                  text103      00425A
_put_fat$473                              cstackBANK1  000118
_put_fat$474                              cstackBANK1  00011A
_put_lfn                                  text37       007688
_put_rc                                   text6        00866A
_put_utf                                  text68       0083B0
_putch                                    text79       008DF4
_rcvr_datablock                           text112      0085B6
_remove_chain                             text35       006522
_rtcHour                                  bssCOMRAM    00004B
_rtcMday                                  dataCOMRAM   000050
_rtcMin                                   bssCOMRAM    00004A
_rtcMon                                   dataCOMRAM   000051
_rtcSec                                   bssCOMRAM    000049
_rtcYear                                  dataCOMRAM   00004E
_scan_files                               text115      0079C6
_select                                   text60       008CFC
_send_cmd                                 text109      008A20
_softRTC                                  text122      007FBE
_softi2c_baslat                           text25       008CAE
_softi2c_durdur                           text24       008CCA
_softi2c_kur                              text5        008DBA
_softi2c_yaz                              text23       0087EE
_st_clust                                 text47       00896E
_st_dword                                 text105      0089E6
_st_word                                  text104      008C8C
_strchr                                   text4        008AF6
_sum_sfn                                  text97       0089AA
_sync_fs                                  text45       0060A2
_sync_window                              text107      006D36
_tchar2uni                                text65       007838
_timer1ReloadVal                          nvBANK1      0001F5
_uc857                                    mediumconst  00F9D4
_validate                                 text94       007F2C
_validate$1205                            cstackCOMRAM 000018
_wait_ready                               text57       008AC4
_xatoi                                    text3        00668A
_xfunc_in                                 bssCOMRAM    000047
_xfunc_out                                bssBANK2     0002F5
_xgets                                    text1        007A84
_xmit_datablock                           text58       008342
_xprintf                                  text8        008D42
_xputc                                    text118      008616
_xputs                                    text10       0086BC
_xvprintf                                 text9        003BEA
_xvprintf$3764                            cstackBANK0  00009A
_xvprintf$3765                            cstackBANK0  00009E
_xvprintf$3766                            cstackBANK0  0000A0
btemp                                     temp         00003B
check_fs@fs                               cstackBANK1  000100
check_fs@sect                             cstackBANK1  000102
chk_chr@chr                               cstackCOMRAM 000010
chk_chr@str                               cstackCOMRAM 00000E
clst2sect@clst                            cstackCOMRAM 00002F
clst2sect@fs                              cstackCOMRAM 00002D
cmp_lfn@dir                               cstackBANK0  0000DF
cmp_lfn@i                                 cstackBANK0  0000F3
cmp_lfn@lfnbuf                            cstackBANK0  0000DD
cmp_lfn@s                                 cstackBANK0  0000F7
cmp_lfn@uc                                cstackBANK0  0000F5
cmp_lfn@wc                                cstackBANK0  0000F1
create_chain@clst                         cstackBANK1  000123
create_chain@cs                           cstackBANK1  00013A
create_chain@fs                           cstackBANK1  000138
create_chain@ncl                          cstackBANK1  000134
create_chain@obj                          cstackBANK1  000121
create_chain@res                          cstackBANK1  00012F
create_chain@scl                          cstackBANK1  000130
create_name@b                             cstackBANK0  00008D
create_name@cf                            cstackBANK0  00008A
create_name@di                            cstackBANK0  000092
create_name@dp                            cstackBANK0  000060
create_name@i                             cstackBANK0  000088
create_name@lfn                           cstackBANK0  00008E
create_name@ni                            cstackBANK0  00008B
create_name@p                             cstackBANK0  000086
create_name@path                          cstackBANK0  000062
create_name@si                            cstackBANK0  000090
create_name@uc                            cstackBANK0  000082
create_name@wc                            cstackBANK0  000094
dbc_1st@c                                 cstackCOMRAM 000010
dbc_2nd@c                                 cstackCOMRAM 000011
dir_alloc@dp                              cstackBANK1  00015C
dir_alloc@fs                              cstackBANK1  000160
dir_alloc@n                               cstackBANK1  000162
dir_alloc@nent                            cstackBANK1  00015E
dir_alloc@res                             cstackBANK1  000164
dir_clear@clst                            cstackBANK0  0000F4
dir_clear@fs                              cstackBANK0  0000F2
dir_clear@ibuf                            cstackBANK1  000100
dir_clear@n                               cstackBANK1  000108
dir_clear@sect                            cstackBANK1  000102
dir_clear@szb                             cstackBANK1  000106
dir_find@a                                cstackBANK1  000161
dir_find@c                                cstackBANK1  000163
dir_find@dp                               cstackBANK0  0000FC
dir_find@fs                               cstackBANK1  00015E
dir_find@ord                              cstackBANK1  000162
dir_find@res                              cstackBANK1  000164
dir_find@sum                              cstackBANK1  000160
dir_next@clst                             cstackBANK1  000158
dir_next@dp                               cstackBANK1  00013E
dir_next@fs                               cstackBANK1  000156
dir_next@ofs                              cstackBANK1  000152
dir_next@stretch                          cstackBANK1  000140
dir_read@a                                cstackBANK1  000164
dir_read@c                                cstackBANK1  000168
dir_read@dp                               cstackBANK1  00015C
dir_read@fs                               cstackBANK1  000162
dir_read@ord                              cstackBANK1  000166
dir_read@res                              cstackBANK1  000167
dir_read@sum                              cstackBANK1  000165
dir_read@vol                              cstackBANK1  00015E
dir_register@dp                           cstackBANK1  000165
dir_register@fs                           cstackBANK1  000184
dir_register@n                            cstackBANK1  000180
dir_register@nent                         cstackBANK1  000182
dir_register@nlen                         cstackBANK1  00017E
dir_register@res                          cstackBANK1  000186
dir_register@sn                           cstackBANK1  000171
dir_register@sum                          cstackBANK1  00017D
dir_remove@dp                             cstackBANK0  0000FC
dir_remove@fs                             cstackBANK1  000166
dir_remove@last                           cstackBANK1  000160
dir_remove@res                            cstackBANK1  000168
dir_sdi@clst                              cstackBANK1  000132
dir_sdi@csz                               cstackBANK1  00012E
dir_sdi@dp                                cstackBANK1  00011A
dir_sdi@fs                                cstackBANK1  000136
dir_sdi@ofs                               cstackBANK1  00011C
disk_initialize@cmd                       cstackBANK0  0000EB
disk_initialize@n                         cstackBANK0  0000EF
disk_initialize@ocr                       cstackBANK0  0000E5
disk_initialize@pdrv                      cstackBANK0  0000E4
disk_initialize@tmr                       cstackBANK0  0000ED
disk_initialize@ty                        cstackBANK0  0000EC
disk_ioctl@buff                           cstackBANK0  0000D9
disk_ioctl@cmd                            cstackBANK0  0000D8
disk_ioctl@csd                            cstackBANK1  000101
disk_ioctl@csize                          cstackBANK1  000111
disk_ioctl@n                              cstackBANK1  000116
disk_ioctl@pdrv                           cstackBANK1  000100
disk_ioctl@ptr                            cstackBANK1  000117
disk_ioctl@res                            cstackBANK1  000115
disk_read@buff                            cstackBANK0  0000D8
disk_read@cmd                             cstackCOMRAM 000039
disk_read@count                           cstackBANK0  0000DE
disk_read@pdrv                            cstackCOMRAM 000036
disk_read@sector                          cstackBANK0  0000DA
disk_status@pdrv                          cstackCOMRAM 00000F
disk_write@buff                           cstackBANK0  0000D8
disk_write@count                          cstackBANK0  0000DE
disk_write@pdrv                           cstackCOMRAM 000037
disk_write@sector                         cstackBANK0  0000DA
end_of_initialization                     cinit        008480
f_close@fp                                cstackBANK1  000122
f_close@fs                                cstackBANK1  000124
f_close@res                               cstackBANK1  000126
f_closedir@dp                             cstackCOMRAM 00001B
f_closedir@fs                             cstackCOMRAM 000020
f_closedir@res                            cstackCOMRAM 000022
f_getfree@clst                            cstackBANK1  000175
f_getfree@fatfs                           cstackBANK1  000151
f_getfree@fs                              cstackBANK1  00017C
f_getfree@i                               cstackBANK1  000179
f_getfree@nclst                           cstackBANK1  00014F
f_getfree@nfree                           cstackBANK1  00016D
f_getfree@obj                             cstackBANK1  00015B
f_getfree@path                            cstackBANK1  00014D
f_getfree@res                             cstackBANK1  00017B
f_getfree@sect                            cstackBANK1  000169
f_getfree@stat                            cstackBANK1  000171
f_lseek@bcs                               cstackBANK1  000159
f_lseek@clst                              cstackBANK1  00015F
f_lseek@fp                                cstackBANK1  00013E
f_lseek@fs                                cstackBANK1  00015D
f_lseek@ifptr                             cstackBANK1  000150
f_lseek@nsect                             cstackBANK1  000154
f_lseek@ofs                               cstackBANK1  000140
f_lseek@res                               cstackBANK1  000158
f_mkdir@dcl                               cstackBANK1  000197
f_mkdir@dir                               cstackBANK1  00019B
f_mkdir@dj                                cstackBANK1  0001A0
f_mkdir@fs                                cstackBANK1  00019D
f_mkdir@path                              cstackBANK1  000187
f_mkdir@pcl                               cstackBANK1  00018F
f_mkdir@res                               cstackBANK1  00019F
f_mkdir@tm                                cstackBANK1  000193
f_mount@cfs                               cstackBANK1  000153
f_mount@fs                                cstackBANK1  00014D
f_mount@opt                               cstackBANK1  000151
f_mount@path                              cstackBANK1  00014F
f_mount@res                               cstackBANK1  000152
f_mount@rp                                cstackBANK1  000155
f_mount@vol                               cstackBANK1  000157
f_open@bcs                                cstackBANK1  00019E
f_open@cl                                 cstackBANK1  0001A2
f_open@clst                               cstackBANK1  0001AA
f_open@dj                                 cstackBANK1  0001B1
f_open@dw                                 cstackBANK1  000194
f_open@fp                                 cstackBANK1  000187
f_open@fs                                 cstackBANK1  0001AE
f_open@mode                               cstackBANK1  00018B
f_open@ofs                                cstackBANK1  0001A6
f_open@path                               cstackBANK1  000189
f_open@res                                cstackBANK1  0001B0
f_open@sc                                 cstackBANK1  000198
f_opendir@dp                              cstackBANK1  000173
f_opendir@fs                              cstackBANK1  00017A
f_opendir@path                            cstackBANK1  000175
f_opendir@res                             cstackBANK1  00017C
f_read@br                                 cstackBANK1  000120
f_read@btr                                cstackBANK1  00011E
f_read@buff                               cstackBANK1  00011C
f_read@cc                                 cstackBANK1  00013B
f_read@clst                               cstackBANK1  000133
f_read@csect                              cstackBANK1  000139
f_read@fp                                 cstackBANK1  00011A
f_read@fs                                 cstackBANK1  000143
f_read@rbuff                              cstackBANK1  000137
f_read@rcnt                               cstackBANK1  00013D
f_read@remain                             cstackBANK1  00012E
f_read@res                                cstackBANK1  000132
f_read@sect                               cstackBANK1  00013F
f_readdir@dp                              cstackBANK1  000169
f_readdir@fno                             cstackBANK1  00016B
f_readdir@fs                              cstackBANK1  000170
f_readdir@res                             cstackBANK1  000172
f_rename@buf                              cstackBANK2  000200
f_rename@dir                              cstackBANK2  000226
f_rename@djn                              cstackBANK2  000257
f_rename@djo                              cstackBANK2  00022B
f_rename@dw                               cstackBANK2  000222
f_rename@fs                               cstackBANK2  000228
f_rename@path_new                         cstackBANK1  000189
f_rename@path_old                         cstackBANK1  000187
f_rename@res                              cstackBANK2  00022A
f_sync@dir                                cstackBANK1  00011E
f_sync@fp                                 cstackBANK0  0000FC
f_sync@fs                                 cstackBANK1  000120
f_sync@res                                cstackBANK1  00011D
f_sync@tm                                 cstackBANK1  000119
f_truncate@fp                             cstackBANK0  0000FC
f_truncate@fs                             cstackBANK1  000142
f_truncate@ncl                            cstackBANK1  000144
f_truncate@res                            cstackBANK1  000148
f_unlink@dclst                            cstackBANK1  000175
f_unlink@dj                               cstackBANK1  0001A8
f_unlink@fs                               cstackBANK1  000179
f_unlink@path                             cstackBANK1  000173
f_unlink@res                              cstackBANK1  00017B
f_unlink@sdj                              cstackBANK1  00017C
f_write@btw                               cstackBANK1  000142
f_write@buff                              cstackBANK1  000140
f_write@bw                                cstackBANK1  000144
f_write@cc                                cstackBANK1  00015B
f_write@clst                              cstackBANK1  00015D
f_write@csect                             cstackBANK1  000159
f_write@fp                                cstackBANK1  00013E
f_write@fs                                cstackBANK1  000167
f_write@res                               cstackBANK1  000156
f_write@sect                              cstackBANK1  000163
f_write@wbuff                             cstackBANK1  000157
f_write@wcnt                              cstackBANK1  000161
ff@FatFs                                  bssBANK1     0001F1
ff_oem2uni@c                              cstackCOMRAM 00001E
ff_oem2uni@cp                             cstackCOMRAM 000010
ff_oem2uni@oem                            cstackCOMRAM 00000E
ff_oem2uni@p                              cstackCOMRAM 00001C
ff_uni2oem@c                              cstackCOMRAM 00001E
ff_uni2oem@cp                             cstackCOMRAM 000012
ff_uni2oem@p                              cstackCOMRAM 00001C
ff_uni2oem@uni                            cstackCOMRAM 00000E
ff_wtoupper@bc                            cstackCOMRAM 000026
ff_wtoupper@cmd                           cstackCOMRAM 000020
ff_wtoupper@cvt1                          mediumconst  00F7E2
ff_wtoupper@cvt2                          mediumconst  00FAD4
ff_wtoupper@nc                            cstackCOMRAM 000022
ff_wtoupper@p                             cstackCOMRAM 000024
ff_wtoupper@uc                            cstackCOMRAM 000028
ff_wtoupper@uni                           cstackCOMRAM 00000E
find_volume@br                            cstackBANK1  000113
find_volume@bsect                         cstackBANK1  000144
find_volume@fasize                        cstackBANK1  000140
find_volume@fmt                           cstackBANK1  00014A
find_volume@fs                            cstackBANK1  00014B
find_volume@i                             cstackBANK1  000148
find_volume@mode                          cstackBANK1  00010A
find_volume@nclst                         cstackBANK1  00013C
find_volume@nrsv                          cstackBANK1  000135
find_volume@path                          cstackBANK1  000106
find_volume@pt                            cstackBANK1  00012D
find_volume@rfs                           cstackBANK1  000108
find_volume@stat                          cstackBANK1  00013B
find_volume@sysect                        cstackBANK1  00012F
find_volume@szbfat                        cstackBANK1  000129
find_volume@tsect                         cstackBANK1  000137
find_volume@vol                           cstackBANK1  000133
follow_path@dp                            cstackBANK1  000165
follow_path@fs                            cstackBANK1  00016F
follow_path@ns                            cstackBANK1  000171
follow_path@path                          cstackBANK1  000167
follow_path@res                           cstackBANK1  000172
gen_numname@c                             cstackCOMRAM 000032
gen_numname@dst                           cstackCOMRAM 000018
gen_numname@i                             cstackCOMRAM 000039
gen_numname@j                             cstackCOMRAM 000037
gen_numname@lfn                           cstackCOMRAM 00001C
gen_numname@ns                            cstackCOMRAM 000026
gen_numname@seq                           cstackCOMRAM 00001E
gen_numname@sr                            cstackCOMRAM 000033
gen_numname@src                           cstackCOMRAM 00001A
gen_numname@wc                            cstackCOMRAM 00002E
get_fat@bc                                cstackBANK1  000116
get_fat@clst                              cstackBANK1  000102
get_fat@fs                                cstackBANK1  000118
get_fat@obj                               cstackBANK1  000100
get_fat@val                               cstackBANK1  000112
get_fat@wc                                cstackBANK1  000110
get_fattime@tmr                           cstackCOMRAM 000036
get_fileinfo@di                           cstackBANK0  0000FD
get_fileinfo@dp                           cstackBANK0  0000DD
get_fileinfo@fno                          cstackBANK0  0000DF
get_fileinfo@fs                           cstackBANK0  0000F5
get_fileinfo@hs                           cstackBANK0  0000F7
get_fileinfo@si                           cstackBANK0  0000F9
get_fileinfo@wc                           cstackBANK0  0000FB
get_ldnumber@i                            cstackCOMRAM 000018
get_ldnumber@path                         cstackCOMRAM 00000E
get_ldnumber@tp                           cstackCOMRAM 000016
get_ldnumber@tt                           cstackCOMRAM 00001A
get_ldnumber@vol                          cstackCOMRAM 000014
intlevel0                                 text         000000
intlevel1                                 text         000000
intlevel2                                 text         000000
intlevel3                                 text         000000
lcd_baslat@i                              cstackCOMRAM 000014
lcd_git@satir                             cstackCOMRAM 000014
lcd_git@sutun                             cstackCOMRAM 000013
lcd_git@temp                              cstackCOMRAM 000015
lcd_harfyaz@harf                          cstackCOMRAM 000012
lcd_komut@komut                           cstackCOMRAM 000012
lcd_mesajyaz@mesaj                        cstackCOMRAM 000017
lcd_mesajyaz@satir                        cstackCOMRAM 000019
lcd_mesajyaz@sutun                        cstackCOMRAM 000016
ld_clust@cl                               cstackBANK0  0000E5
ld_clust@dir                              cstackBANK0  0000DF
ld_clust@fs                               cstackBANK0  0000DD
ld_dword@ptr                              cstackCOMRAM 00000E
ld_dword@rv                               cstackCOMRAM 000016
ld_word@ptr                               cstackCOMRAM 000039
ld_word@rv                                cstackBANK0  0000DB
ltemp0                                    temp         00003B
ltemp1                                    temp         00003F
ltemp2                                    temp         000043
main@F7711                                mediumconst  00F7DE
main@b                                    cstackBANK2  0002A9
main@cnt                                  cstackBANK2  0002AE
main@dir                                  cstackBANK2  0002B9
main@drv                                  cstackBANK2  00029F
main@fs                                   cstackBANK2  0002B2
main@ft                                   cstackBANK2  000283
main@i                                    cstackBANK2  0002A0
main@ofs                                  cstackBANK2  0002A5
main@p1                                   cstackBANK2  0002E7
main@p2                                   cstackBANK2  0002B5
main@p3                                   cstackBANK2  0002A1
main@ptr                                  cstackBANK2  0002E5
main@ptr2                                 cstackBANK2  0002AA
main@res                                  cstackBANK2  0002B4
main@s1                                   cstackBANK2  0002AC
main@s2                                   cstackBANK2  0002B0
main@sect                                 cstackBANK2  000287
mem_cmp@cnt                               cstackCOMRAM 000012
mem_cmp@d                                 cstackCOMRAM 00001B
mem_cmp@dst                               cstackCOMRAM 00000E
mem_cmp@r                                 cstackCOMRAM 00001F
mem_cmp@s                                 cstackCOMRAM 00001D
mem_cmp@src                               cstackCOMRAM 000010
mem_cpy@cnt                               cstackCOMRAM 000012
mem_cpy@d                                 cstackCOMRAM 000014
mem_cpy@dst                               cstackCOMRAM 00000E
mem_cpy@s                                 cstackCOMRAM 000016
mem_cpy@src                               cstackCOMRAM 000010
mem_set@cnt                               cstackCOMRAM 000012
mem_set@d                                 cstackCOMRAM 000014
mem_set@dst                               cstackCOMRAM 00000E
mem_set@val                               cstackCOMRAM 000010
memset@c                                  cstackCOMRAM 000010
memset@n                                  cstackCOMRAM 000012
memset@p                                  cstackCOMRAM 000014
memset@p1                                 cstackCOMRAM 00000E
move_window@fs                            cstackBANK0  0000F2
move_window@res                           cstackCOMRAM 00003A
move_window@sector                        cstackBANK0  0000F4
pcf8574_yaz@veri                          cstackCOMRAM 000011
pick_lfn@dir                              cstackBANK0  0000DF
pick_lfn@i                                cstackBANK0  0000F0
pick_lfn@lfnbuf                           cstackBANK0  0000DD
pick_lfn@s                                cstackBANK0  0000EE
pick_lfn@uc                               cstackBANK0  0000EC
pick_lfn@wc                               cstackBANK0  0000EA
printf@ap                                 cstackCOMRAM 000024
printf@c                                  cstackCOMRAM 000027
printf@cp                                 cstackCOMRAM 000025
printf@f                                  cstackCOMRAM 00001B
printf@prec                               cstackCOMRAM 000023
printf@val                                cstackCOMRAM 000021
put_dump@addr                             cstackCOMRAM 000023
put_dump@bp                               cstackCOMRAM 000033
put_dump@buff                             cstackCOMRAM 000021
put_dump@i                                cstackCOMRAM 000035
put_dump@len                              cstackCOMRAM 000027
put_dump@lp                               cstackCOMRAM 00002F
put_dump@sp                               cstackCOMRAM 00002D
put_dump@width                            cstackCOMRAM 000029
put_fat@bc                                cstackBANK1  00011E
put_fat@clst                              cstackBANK1  000102
put_fat@fs                                cstackBANK1  000100
put_fat@p                                 cstackBANK1  00011C
put_fat@res                               cstackBANK1  000120
put_fat@val                               cstackBANK1  000106
put_lfn@dir                               cstackCOMRAM 000016
put_lfn@i                                 cstackCOMRAM 00001E
put_lfn@lfn                               cstackCOMRAM 000014
put_lfn@ord                               cstackCOMRAM 000018
put_lfn@s                                 cstackCOMRAM 00001C
put_lfn@sum                               cstackCOMRAM 000019
put_lfn@wc                                cstackCOMRAM 000020
put_rc@i                                  cstackCOMRAM 000028
put_rc@rc                                 cstackCOMRAM 000029
put_rc@str                                cstackCOMRAM 00002A
put_utf@buf                               cstackCOMRAM 000024
put_utf@chr                               cstackCOMRAM 000020
put_utf@szb                               cstackCOMRAM 000026
put_utf@wc                                cstackCOMRAM 00002A
putch@temp                                cstackCOMRAM 000011
rcvr_datablock@btr                        cstackCOMRAM 000024
rcvr_datablock@buff                       cstackCOMRAM 000022
rcvr_datablock@tmr                        cstackCOMRAM 000026
rcvr_datablock@token                      cstackCOMRAM 000028
remove_chain@clst                         cstackBANK1  000123
remove_chain@fs                           cstackBANK1  000138
remove_chain@nxt                          cstackBANK1  000133
remove_chain@obj                          cstackBANK1  000121
remove_chain@pclst                        cstackBANK1  000127
remove_chain@res                          cstackBANK1  000137
scan_files@fno                            bssBIGRAM    000C71
send_cmd@arg                              cstackCOMRAM 000030
send_cmd@cmd                              cstackCOMRAM 000034
send_cmd@res                              cstackCOMRAM 000035
softRTC@div1k                             bssBANK1     0001ED
softRTC@n                                 cstackCOMRAM 000005
softRTC@samurai                           mediumconst  00F7C8
softi2c_yaz@i                             cstackCOMRAM 000010
softi2c_yaz@veri                          cstackCOMRAM 00000F
st_clust@cl                               cstackCOMRAM 000016
st_clust@dir                              cstackCOMRAM 000014
st_clust@fs                               cstackCOMRAM 000012
st_dword@ptr                              cstackBANK0  000060
st_dword@val                              cstackBANK0  000062
st_word@ptr                               cstackCOMRAM 00000E
st_word@val                               cstackCOMRAM 000010
stackhi                                   (abs)        000F37
stacklo                                   (abs)        000E9D
start                                     init         00005A
start_initialization                      cinit        00841C
strchr@chr                                cstackCOMRAM 000010
strchr@ptr                                cstackCOMRAM 00000E
sum_sfn@dir                               cstackCOMRAM 00000E
sum_sfn@n                                 cstackCOMRAM 000012
sum_sfn@sum                               cstackCOMRAM 000014
sync_fs@fs                                cstackBANK0  0000F2
sync_fs@res                               cstackCOMRAM 00003A
sync_window@fs                            cstackBANK0  0000E0
sync_window@res                           cstackCOMRAM 000038
tchar2uni@b                               cstackCOMRAM 000033
tchar2uni@p                               cstackCOMRAM 000034
tchar2uni@str                             cstackCOMRAM 000020
tchar2uni@uc                              cstackCOMRAM 00002F
tchar2uni@wc                              cstackCOMRAM 000036
ttemp0                                    temp         00003B
ttemp1                                    temp         00003E
ttemp2                                    temp         000041
ttemp3                                    temp         000044
validate@obj                              cstackCOMRAM 000010
validate@res                              cstackCOMRAM 00001A
validate@rfs                              cstackCOMRAM 000012
wait_ready@tmr                            cstackCOMRAM 000024
wtemp0                                    temp         00003B
wtemp1                                    temp         00003D
wtemp2                                    temp         00003F
wtemp3                                    temp         000041
wtemp4                                    temp         000043
wtemp5                                    temp         000045
wtemp6                                    temp         00003C
xatoi@c                                   cstackCOMRAM 000039
xatoi@r                                   cstackCOMRAM 000034
xatoi@res                                 cstackCOMRAM 00002F
xatoi@s                                   cstackCOMRAM 000033
xatoi@str                                 cstackCOMRAM 00002D
xatoi@val                                 cstackCOMRAM 000035
xgets@buff                                cstackCOMRAM 000010
xgets@c                                   cstackCOMRAM 00001B
xgets@i                                   cstackCOMRAM 000019
xgets@len                                 cstackCOMRAM 000012
xmit_datablock@buff                       cstackCOMRAM 000026
xmit_datablock@i                          cstackCOMRAM 00002D
xmit_datablock@resp                       cstackCOMRAM 00002F
xmit_datablock@token                      cstackCOMRAM 000029
xprintf@arp                               cstackCOMRAM 000020
xprintf@fmt                               cstackBANK0  0000B4
xputs@str                                 cstackCOMRAM 000010
xvprintf@arp                              cstackCOMRAM 00001D
xvprintf@c                                cstackBANK0  0000B3
xvprintf@d                                cstackBANK0  0000B2
xvprintf@f                                cstackBANK0  0000AE
xvprintf@fmt                              cstackCOMRAM 00001B
xvprintf@i                                cstackBANK0  0000B0
xvprintf@j                                cstackBANK0  0000A8
xvprintf@p                                cstackBANK0  0000A2
xvprintf@r                                cstackBANK0  0000A4
xvprintf@s                                cstackBANK0  00008A
xvprintf@v                                cstackBANK0  0000AA
xvprintf@w                                cstackBANK0  0000A6


FUNCTION INFORMATION:

 *************** function _main *****************
 Defined at:
		line 214 in file "main.c"
 Parameters:    Size  Location     Type
		None
 Auto vars:     Size  Location     Type
  i               1  160[BANK2 ] unsigned char 
  buff          256    0        unsigned char [256]
  dir            44  185[BANK2 ] struct .
  p1              4  231[BANK2 ] long 
  p2              4  181[BANK2 ] long 
  ofs             4  165[BANK2 ] unsigned long 
  p3              4  161[BANK2 ] long 
  sect            4  135[BANK2 ] unsigned long 
  ft              4  131[BANK2 ] const unsigned char [4]
  ptr             2  229[BANK2 ] PTR unsigned char 
		 -> Buff(512), Line(50), 
  fs              2  178[BANK2 ] PTR struct .
		 -> FatFs(561), NULL(0), 
  s2              2  176[BANK2 ] unsigned int 
  cnt             2  174[BANK2 ] unsigned int 
  s1              2  172[BANK2 ] unsigned int 
  ptr2            2  170[BANK2 ] PTR unsigned char 
		 -> Buff(512), Line(50), NULL(0), 
  bw              2    0        unsigned int 
  res             1  180[BANK2 ] enum E7469
  b               1  169[BANK2 ] unsigned char 
  drv             1  159[BANK2 ] unsigned char 
 Return value:  Size  Location     Type
                  1    wreg      void 
 Registers used:
		wreg, fsr0l, fsr0h, fsr1l, fsr1h, fsr2l, fsr2h, status,2, status,0, pclath, btemp, btemp+1, btemp+2, btemp+11, tosl, tblptrl, tblptrh, tblptru, prodl, prodh, cstack
 Tracked objects:
		On entry : 
		On exit  : 
		Unchanged: 
 Data sizes:     COMRAM   BANK0   BANK1   BANK2   BANK3   BANK4   BANK5   BANK6   BANK7   BANK8   BANK9  BANK10  BANK11  BANK12  BANK13  BANK14  BANK15
      Params:         0       0       0       0       0       0       0       0       0       0       0       0       0       0       0       0       0
      Locals:         0       0       0     104       0       0       0       0       0       0       0       0       0       0       0       0       0
      Temps:          0       0      14       0       0       0       0       0       0       0       0       0       0       0       0       0       0
      Totals:         0       0      14     104       0       0       0       0       0       0       0       0       0       0       0       0       0
Total ram usage:      118 bytes
 Hardware stack levels required when called:   18
 This function calls:
		_SYSTEM_Initialize
		_TMR1_SetInterruptHandler
		___aldiv
		___lmul
		_disk_initialize
		_disk_ioctl
		_disk_read
		_disk_write
		_f_close
		_f_getfree
		_f_lseek
		_f_mkdir
		_f_mount
		_f_open
		_f_opendir
		_f_read
		_f_readdir
		_f_rename
		_f_truncate
		_f_unlink
		_f_write
		_lcd_baslat
		_lcd_mesajyaz
		_memset
		_printf
		_put_dump
		_put_rc
		_scan_files
		_softi2c_kur
		_strchr
		_xatoi
		_xgets
		_xprintf
		_xputc
		_xputs
 This function is called by:
		Startup code after reset
 This function uses a non-reentrant model


 *************** function _xgets *****************
 Defined at:
		line 280 in file "xprintf.c"
 Parameters:    Size  Location     Type
  buff            2   15[COMRAM] PTR unsigned char 
		 -> Line(50), 
  len             2   17[COMRAM] int 
 Auto vars:     Size  Location     Type
  c               2   26[COMRAM] int 
  i               2   24[COMRAM] int 
 Return value:  Size  Location     Type
                  2   15[COMRAM] int 
 Registers used:
		wreg, fsr1l, fsr1h, fsr2l, fsr2h, status,2, status,0, pclath, btemp, tosl, cstack
 Tracked objects:
		On entry : 
		On exit  : 
		Unchanged: 
 Data sizes:     COMRAM   BANK0   BANK1   BANK2   BANK3   BANK4   BANK5   BANK6   BANK7   BANK8   BANK9  BANK10  BANK11  BANK12  BANK13  BANK14  BANK15
      Params:         4       0       0       0       0       0       0       0       0       0       0       0       0       0       0       0       0
      Locals:         4       0       0       0       0       0       0       0       0       0       0       0       0       0       0       0       0
      Temps:          5       0       0       0       0       0       0       0       0       0       0       0       0       0       0       0       0
      Totals:        13       0       0       0       0       0       0       0       0       0       0       0       0       0       0       0       0
Total ram usage:       13 bytes
 Hardware stack levels used:    1
 Hardware stack levels required when called:    5
 This function calls:
		Absolute function
		_EUSART1_Read
		_xputc
 This function is called by:
		_main
 This function uses a non-reentrant model


 *************** function _EUSART1_Read *****************
 Defined at:
		line 75 in file "mcc_generated_files/eusart1.c"
 Parameters:    Size  Location     Type
		None
 Auto vars:     Size  Location     Type
		None
 Return value:  Size  Location     Type
                  1    wreg      unsigned char 
 Registers used:
		wreg, status,2
 Tracked objects:
		On entry : 
		On exit  : 
		Unchanged: 
 Data sizes:     COMRAM   BANK0   BANK1   BANK2   BANK3   BANK4   BANK5   BANK6   BANK7   BANK8   BANK9  BANK10  BANK11  BANK12  BANK13  BANK14  BANK15
      Params:         0       0       0       0       0       0       0       0       0       0       0       0       0       0       0       0       0
      Locals:         0       0       0       0       0       0       0       0       0       0       0       0       0       0       0       0       0
      Temps:          0       0       0       0       0       0       0       0       0       0       0       0       0       0       0       0       0
      Totals:         0       0       0       0       0       0       0       0       0       0       0       0       0       0       0       0       0
Total ram usage:        0 bytes
 Hardware stack levels used:    1
 Hardware stack levels required when called:    3
 This function calls:
		Nothing
 This function is called by:
		_main
		_xgets
 This function uses a non-reentrant model


 *************** function _xatoi *****************
 Defined at:
		line 351 in file "xprintf.c"
 Parameters:    Size  Location     Type
  str             2   44[COMRAM] PTR PTR unsigned char 
		 -> main@ptr(2), 
  res             2   46[COMRAM] PTR long 
		 -> main@p3(4), main@p2(4), main@p1(4), 
 Auto vars:     Size  Location     Type
  val             4   52[COMRAM] unsigned long 
  c               1   56[COMRAM] unsigned char 
  r               1   51[COMRAM] unsigned char 
  s               1   50[COMRAM] unsigned char 
 Return value:  Size  Location     Type
                  2   44[COMRAM] int 
 Registers used:
		wreg, fsr2l, fsr2h, status,2, status,0, cstack
 Tracked objects:
		On entry : 
		On exit  : 
		Unchanged: 
 Data sizes:     COMRAM   BANK0   BANK1   BANK2   BANK3   BANK4   BANK5   BANK6   BANK7   BANK8   BANK9  BANK10  BANK11  BANK12  BANK13  BANK14  BANK15
      Params:         4       0       0       0       0       0       0       0       0       0       0       0       0       0       0       0       0
      Locals:         7       0       0       0       0       0       0       0       0       0       0       0       0       0       0       0       0
      Temps:          2       0       0       0       0       0       0       0       0       0       0       0       0       0       0       0       0
      Totals:        13       0       0       0       0       0       0       0       0       0       0       0       0       0       0       0       0
Total ram usage:       13 bytes
 Hardware stack levels used:    1
 Hardware stack levels required when called:    4
 This function calls:
		___lmul
 This function is called by:
		_main
 This function uses a non-reentrant model


 *************** function _strchr *****************
 Defined at:
		line 4 in file "C:\Program Files (x86)\Microchip\xc8\v1.45\sources\common\strchr.c"
 Parameters:    Size  Location     Type
  ptr             2   13[COMRAM] PTR const unsigned char 
		 -> Buff(512), Line(50), 
  chr             2   15[COMRAM] int 
 Auto vars:     Size  Location     Type
		None
 Return value:  Size  Location     Type
                  2   13[COMRAM] PTR unsigned char 
 Registers used:
		wreg, fsr2l, fsr2h, status,2, status,0
 Tracked objects:
		On entry : 
		On exit  : 
		Unchanged: 
 Data sizes:     COMRAM   BANK0   BANK1   BANK2   BANK3   BANK4   BANK5   BANK6   BANK7   BANK8   BANK9  BANK10  BANK11  BANK12  BANK13  BANK14  BANK15
      Params:         4       0       0       0       0       0       0       0       0       0       0       0       0       0       0       0       0
      Locals:         0       0       0       0       0       0       0       0       0       0       0       0       0       0       0       0       0
      Temps:          1       0       0       0       0       0       0       0       0       0       0       0       0       0       0       0       0
      Totals:         5       0       0       0       0       0       0       0       0       0       0       0       0       0       0       0       0
Total ram usage:        5 bytes
 Hardware stack levels used:    1
 Hardware stack levels required when called:    3
 This function calls:
		Nothing
 This function is called by:
		_main
 This function uses a non-reentrant model


 *************** function _softi2c_kur *****************
 Defined at:
		line 16 in file "softi2c.c"
 Parameters:    Size  Location     Type
		None
 Auto vars:     Size  Location     Type
		None
 Return value:  Size  Location     Type
                  1    wreg      void 
 Registers used:
		None
 Tracked objects:
		On entry : 
		On exit  : 
		Unchanged: 
 Data sizes:     COMRAM   BANK0   BANK1   BANK2   BANK3   BANK4   BANK5   BANK6   BANK7   BANK8   BANK9  BANK10  BANK11  BANK12  BANK13  BANK14  BANK15
      Params:         0       0       0       0       0       0       0       0       0       0       0       0       0       0       0       0       0
      Locals:         0       0       0       0       0       0       0       0       0       0       0       0       0       0       0       0       0
      Temps:          0       0       0       0       0       0       0       0       0       0       0       0       0       0       0       0       0
      Totals:         0       0       0       0       0       0       0       0       0       0       0       0       0       0       0       0       0
Total ram usage:        0 bytes
 Hardware stack levels used:    1
 Hardware stack levels required when called:    3
 This function calls:
		Nothing
 This function is called by:
		_main
 This function uses a non-reentrant model


 *************** function _put_rc *****************
 Defined at:
		line 142 in file "main.c"
 Parameters:    Size  Location     Type
  rc              1    wreg     enum E7469
 Auto vars:     Size  Location     Type
  rc              1   40[COMRAM] enum E7469
  str             2   41[COMRAM] PTR const unsigned char 
		 -> STR_5(209), 
  i               1   39[COMRAM] enum E7469
 Return value:  Size  Location     Type
                  1    wreg      void 
 Registers used:
		wreg, fsr0l, fsr0h, fsr2l, fsr2h, status,2, status,0, tblptrl, tblptrh, tblptru, prodl, prodh, cstack
 Tracked objects:
		On entry : 
		On exit  : 
		Unchanged: 
 Data sizes:     COMRAM   BANK0   BANK1   BANK2   BANK3   BANK4   BANK5   BANK6   BANK7   BANK8   BANK9  BANK10  BANK11  BANK12  BANK13  BANK14  BANK15
      Params:         0       0       0       0       0       0       0       0       0       0       0       0       0       0       0       0       0
      Locals:         4       0       0       0       0       0       0       0       0       0       0       0       0       0       0       0       0
      Temps:          0       0       0       0       0       0       0       0       0       0       0       0       0       0       0       0       0
      Totals:         4       0       0       0       0       0       0       0       0       0       0       0       0       0       0       0       0
Total ram usage:        4 bytes
 Hardware stack levels used:    1
 Hardware stack levels required when called:    6
 This function calls:
		_printf
 This function is called by:
		_main
 This function uses a non-reentrant model


 *************** function _put_dump *****************
 Defined at:
		line 225 in file "xprintf.c"
 Parameters:    Size  Location     Type
  buff            2   32[COMRAM] PTR const void 
		 -> Buff(512), Line(50), 
  addr            4   34[COMRAM] unsigned long 
  len             2   38[COMRAM] int 
  width           2   40[COMRAM] int 
 Auto vars:     Size  Location     Type
  i               2   52[COMRAM] int 
  bp              2   50[COMRAM] PTR const unsigned char 
		 -> Buff(512), Line(50), 
  lp              2   46[COMRAM] PTR const unsigned long 
		 -> Buff(512), Line(50), 
  sp              2   44[COMRAM] PTR const unsigned short
		 -> Buff(512), Line(50), 
 Return value:  Size  Location     Type
                  1    wreg      void 
 Registers used:
		wreg, fsr0l, fsr0h, fsr1l, fsr1h, fsr2l, fsr2h, status,2, status,0, pclath, btemp, tosl, tblptrl, tblptrh, tblptru, prodl, prodh, cstack
 Tracked objects:
		On entry : 
		On exit  : 
		Unchanged: 
 Data sizes:     COMRAM   BANK0   BANK1   BANK2   BANK3   BANK4   BANK5   BANK6   BANK7   BANK8   BANK9  BANK10  BANK11  BANK12  BANK13  BANK14  BANK15
      Params:        10       0       0       0       0       0       0       0       0       0       0       0       0       0       0       0       0
      Locals:        10       0       0       0       0       0       0       0       0       0       0       0       0       0       0       0       0
      Temps:          2       0       0       0       0       0       0       0       0       0       0       0       0       0       0       0       0
      Totals:        22       0       0       0       0       0       0       0       0       0       0       0       0       0       0       0       0
Total ram usage:       22 bytes
 Hardware stack levels used:    1
 Hardware stack levels required when called:    8
 This function calls:
		_xprintf
		_xputc
 This function is called by:
		_main
 This function uses a non-reentrant model


 *************** function _xprintf *****************
 Defined at:
		line 165 in file "xprintf.c"
 Parameters:    Size  Location     Type
  fmt             2   84[BANK0 ] PTR const unsigned char 
		 -> STR_46(7), STR_45(6), STR_44(6), STR_43(7), 
		 -> STR_42(25), STR_41(20), STR_40(11), STR_39(14), 
		 -> STR_38(13), STR_37(36), STR_36(33), STR_35(19), 
		 -> STR_34(20), STR_33(41), STR_32(44), STR_31(80), 
		 -> STR_30(227), STR_28(7), STR_27(7), STR_25(11), 
		 -> STR_20(18), STR_19(26), STR_18(25), STR_17(7), 
		 -> STR_16(20), STR_15(7), STR_12(16), 
 Auto vars:     Size  Location     Type
  arp             1   31[COMRAM] PTR void [1]
		 -> ?_xfprintf(1), ?_xsprintf(1), ?_xprintf(1), 
 Return value:  Size  Location     Type
                  1    wreg      void 
 Registers used:
		wreg, fsr0l, fsr0h, fsr1l, fsr1h, fsr2l, fsr2h, status,2, status,0, pclath, btemp, tosl, tblptrl, tblptrh, tblptru, prodl, prodh, cstack
 Tracked objects:
		On entry : 
		On exit  : 
		Unchanged: 
 Data sizes:     COMRAM   BANK0   BANK1   BANK2   BANK3   BANK4   BANK5   BANK6   BANK7   BANK8   BANK9  BANK10  BANK11  BANK12  BANK13  BANK14  BANK15
      Params:         0      36       0       0       0       0       0       0       0       0       0       0       0       0       0       0       0
      Locals:         1       0       0       0       0       0       0       0       0       0       0       0       0       0       0       0       0
      Temps:          0       0       0       0       0       0       0       0       0       0       0       0       0       0       0       0       0
      Totals:         1      36       0       0       0       0       0       0       0       0       0       0       0       0       0       0       0
Total ram usage:       37 bytes
 Hardware stack levels used:    1
 Hardware stack levels required when called:    7
 This function calls:
		_xvprintf
 This function is called by:
		_main
		_put_dump
 This function uses a non-reentrant model


 *************** function _xvprintf *****************
 Defined at:
		line 88 in file "xprintf.c"
 Parameters:    Size  Location     Type
  fmt             2   26[COMRAM] PTR const unsigned char 
		 -> STR_46(7), STR_45(6), STR_44(6), STR_43(7), 
		 -> STR_42(25), STR_41(20), STR_40(11), STR_39(14), 
		 -> STR_38(13), STR_37(36), STR_36(33), STR_35(19), 
		 -> STR_34(20), STR_33(41), STR_32(44), STR_31(80), 
		 -> STR_30(227), STR_28(7), STR_27(7), STR_25(11), 
		 -> STR_20(18), STR_19(26), STR_18(25), STR_17(7), 
		 -> STR_16(20), STR_15(7), STR_12(16), 
  arp             1   28[COMRAM] PTR PTR void 
		 -> xfprintf@arp(1), xsprintf@arp(1), xprintf@arp(1), 
 Auto vars:     Size  Location     Type
  s              16   42[BANK0 ] unsigned char [16]
  v               4   74[BANK0 ] unsigned long 
  i               2   80[BANK0 ] unsigned int 
  f               2   78[BANK0 ] unsigned int 
  j               2   72[BANK0 ] unsigned int 
  w               2   70[BANK0 ] unsigned int 
  r               2   68[BANK0 ] unsigned int 
  p               2   66[BANK0 ] PTR unsigned char 
		 -> ?_xfprintf(1), ?_xsprintf(1), ?_xprintf(1), Finfo(278), 
		 -> Buff(512), Line(50), STR_14(9), STR_13(8), 
		 -> scan_files@fno(278), STR_5(209), NULL(0), disk_ioctl@csd(16), 
  c               1   83[BANK0 ] unsigned char 
  d               1   82[BANK0 ] unsigned char 
 Return value:  Size  Location     Type
                  1    wreg      void 
 Registers used:
		wreg, fsr0l, fsr0h, fsr1l, fsr1h, fsr2l, fsr2h, status,2, status,0, pclath, btemp, tosl, tblptrl, tblptrh, tblptru, prodl, prodh, cstack
 Tracked objects:
		On entry : 
		On exit  : 
		Unchanged: 
 Data sizes:     COMRAM   BANK0   BANK1   BANK2   BANK3   BANK4   BANK5   BANK6   BANK7   BANK8   BANK9  BANK10  BANK11  BANK12  BANK13  BANK14  BANK15
      Params:         3       0       0       0       0       0       0       0       0       0       0       0       0       0       0       0       0
      Locals:         0      84       0       0       0       0       0       0       0       0       0       0       0       0       0       0       0
      Temps:          2       0       0       0       0       0       0       0       0       0       0       0       0       0       0       0       0
      Totals:         5      84       0       0       0       0       0       0       0       0       0       0       0       0       0       0       0
Total ram usage:       89 bytes
 Hardware stack levels used:    1
 Hardware stack levels required when called:    6
 This function calls:
		___lldiv
		___llmod
		___wmul
		_xputc
		_xputs
 This function is called by:
		_xprintf
 This function uses a non-reentrant model


 *************** function _xputs *****************
 Defined at:
		line 44 in file "xprintf.c"
 Parameters:    Size  Location     Type
  str             2   15[COMRAM] PTR const unsigned char 
		 -> ?_xfprintf(1), ?_xsprintf(1), ?_xprintf(1), Finfo(278), 
		 -> STR_26(5), STR_24(12), STR_23(6), STR_22(6), 
		 -> STR_21(6), Buff(512), Line(50), STR_14(9), 
		 -> STR_13(8), STR_11(44), scan_files@fno(278), STR_5(209), 
		 -> NULL(0), disk_ioctl@csd(16), 
 Auto vars:     Size  Location     Type
		None
 Return value:  Size  Location     Type
                  1    wreg      void 
 Registers used:
		wreg, fsr0l, fsr0h, fsr1l, fsr1h, fsr2l, fsr2h, status,2, status,0, pclath, btemp, tosl, tblptrl, tblptrh, tblptru, cstack
 Tracked objects:
		On entry : 
		On exit  : 
		Unchanged: 
 Data sizes:     COMRAM   BANK0   BANK1   BANK2   BANK3   BANK4   BANK5   BANK6   BANK7   BANK8   BANK9  BANK10  BANK11  BANK12  BANK13  BANK14  BANK15
      Params:         2       0       0       0       0       0       0       0       0       0       0       0       0       0       0       0       0
      Locals:         0       0       0       0       0       0       0       0       0       0       0       0       0       0       0       0       0
      Temps:          2       0       0       0       0       0       0       0       0       0       0       0       0       0       0       0       0
      Totals:         4       0       0       0       0       0       0       0       0       0       0       0       0       0       0       0       0
Total ram usage:        4 bytes
 Hardware stack levels used:    1
 Hardware stack levels required when called:    5
 This function calls:
		_xputc
 This function is called by:
		_main
		_xvprintf
 This function uses a non-reentrant model


 *************** function ___llmod *****************
 Defined at:
		line 8 in file "C:\Program Files (x86)\Microchip\xc8\v1.45\sources\common\llmod.c"
 Parameters:    Size  Location     Type
  dividend        4   13[COMRAM] unsigned long 
  divisor         4   17[COMRAM] unsigned long 
 Auto vars:     Size  Location     Type
  counter         1   22[COMRAM] unsigned char 
 Return value:  Size  Location     Type
                  4   13[COMRAM] unsigned long 
 Registers used:
		wreg, status,2, status,0
 Tracked objects:
		On entry : 
		On exit  : 
		Unchanged: 
 Data sizes:     COMRAM   BANK0   BANK1   BANK2   BANK3   BANK4   BANK5   BANK6   BANK7   BANK8   BANK9  BANK10  BANK11  BANK12  BANK13  BANK14  BANK15
      Params:         8       0       0       0       0       0       0       0       0       0       0       0       0       0       0       0       0
      Locals:         2       0       0       0       0       0       0       0       0       0       0       0       0       0       0       0       0
      Temps:          0       0       0       0       0       0       0       0       0       0       0       0       0       0       0       0       0
      Totals:        10       0       0       0       0       0       0       0       0       0       0       0       0       0       0       0       0
Total ram usage:       10 bytes
 Hardware stack levels used:    1
 Hardware stack levels required when called:    3
 This function calls:
		Nothing
 This function is called by:
		_xvprintf
 This function uses a non-reentrant model


 *************** function _memset *****************
 Defined at:
		line 8 in file "C:\Program Files (x86)\Microchip\xc8\v1.45\sources\common\memset.c"
 Parameters:    Size  Location     Type
  p1              2   13[COMRAM] PTR void 
		 -> Buff(512), 
  c               2   15[COMRAM] int 
  n               2   17[COMRAM] unsigned int 
 Auto vars:     Size  Location     Type
  p               2   19[COMRAM] PTR unsigned char 
		 -> Buff(512), 
 Return value:  Size  Location     Type
                  2   13[COMRAM] PTR void 
 Registers used:
		wreg, fsr2l, fsr2h, status,2, status,0
 Tracked objects:
		On entry : 
		On exit  : 
		Unchanged: 
 Data sizes:     COMRAM   BANK0   BANK1   BANK2   BANK3   BANK4   BANK5   BANK6   BANK7   BANK8   BANK9  BANK10  BANK11  BANK12  BANK13  BANK14  BANK15
      Params:         6       0       0       0       0       0       0       0       0       0       0       0       0       0       0       0       0
      Locals:         2       0       0       0       0       0       0       0       0       0       0       0       0       0       0       0       0
      Temps:          0       0       0       0       0       0       0       0       0       0       0       0       0       0       0       0       0
      Totals:         8       0       0       0       0       0       0       0       0       0       0       0       0       0       0       0       0
Total ram usage:        8 bytes
 Hardware stack levels used:    1
 Hardware stack levels required when called:    3
 This function calls:
		Nothing
 This function is called by:
		_main
 This function uses a non-reentrant model


 *************** function _lcd_mesajyaz *****************
 Defined at:
		line 179 in file "seri_lcd.c"
 Parameters:    Size  Location     Type
  satir           1    wreg     unsigned char 
  sutun           1   21[COMRAM] unsigned char 
  mesaj           2   22[COMRAM] PTR const unsigned char 
		 -> STR_9(17), 
 Auto vars:     Size  Location     Type
  satir           1   24[COMRAM] unsigned char 
 Return value:  Size  Location     Type
                  1    wreg      void 
 Registers used:
		wreg, status,2, status,0, tblptrl, tblptrh, tblptru, cstack
 Tracked objects:
		On entry : 
		On exit  : 
		Unchanged: 
 Data sizes:     COMRAM   BANK0   BANK1   BANK2   BANK3   BANK4   BANK5   BANK6   BANK7   BANK8   BANK9  BANK10  BANK11  BANK12  BANK13  BANK14  BANK15
      Params:         3       0       0       0       0       0       0       0       0       0       0       0       0       0       0       0       0
      Locals:         1       0       0       0       0       0       0       0       0       0       0       0       0       0       0       0       0
      Temps:          0       0       0       0       0       0       0       0       0       0       0       0       0       0       0       0       0
      Totals:         4       0       0       0       0       0       0       0       0       0       0       0       0       0       0       0       0
Total ram usage:        4 bytes
 Hardware stack levels used:    1
 Hardware stack levels required when called:    7
 This function calls:
		_lcd_git
		_lcd_harfyaz
 This function is called by:
		_main
 This function uses a non-reentrant model


 *************** function _lcd_harfyaz *****************
 Defined at:
		line 208 in file "seri_lcd.c"
 Parameters:    Size  Location     Type
  harf            1    wreg     unsigned char 
 Auto vars:     Size  Location     Type
  harf            1   17[COMRAM] unsigned char 
 Return value:  Size  Location     Type
                  1    wreg      void 
 Registers used:
		wreg, status,2, status,0, cstack
 Tracked objects:
		On entry : 
		On exit  : 
		Unchanged: 
 Data sizes:     COMRAM   BANK0   BANK1   BANK2   BANK3   BANK4   BANK5   BANK6   BANK7   BANK8   BANK9  BANK10  BANK11  BANK12  BANK13  BANK14  BANK15
      Params:         0       0       0       0       0       0       0       0       0       0       0       0       0       0       0       0       0
      Locals:         1       0       0       0       0       0       0       0       0       0       0       0       0       0       0       0       0
      Temps:          1       0       0       0       0       0       0       0       0       0       0       0       0       0       0       0       0
      Totals:         2       0       0       0       0       0       0       0       0       0       0       0       0       0       0       0       0
Total ram usage:        2 bytes
 Hardware stack levels used:    1
 Hardware stack levels required when called:    5
 This function calls:
		_lcd_mesgulmu
		_pcf8574_yaz_wEnable
 This function is called by:
		_lcd_mesajyaz
 This function uses a non-reentrant model


 *************** function _lcd_git *****************
 Defined at:
		line 155 in file "seri_lcd.c"
 Parameters:    Size  Location     Type
  satir           1    wreg     unsigned char 
  sutun           1   18[COMRAM] unsigned char 
 Auto vars:     Size  Location     Type
  satir           1   19[COMRAM] unsigned char 
  temp            1   20[COMRAM] unsigned char 
 Return value:  Size  Location     Type
                  1    wreg      void 
 Registers used:
		wreg, status,2, status,0, cstack
 Tracked objects:
		On entry : 
		On exit  : 
		Unchanged: 
 Data sizes:     COMRAM   BANK0   BANK1   BANK2   BANK3   BANK4   BANK5   BANK6   BANK7   BANK8   BANK9  BANK10  BANK11  BANK12  BANK13  BANK14  BANK15
      Params:         1       0       0       0       0       0       0       0       0       0       0       0       0       0       0       0       0
      Locals:         2       0       0       0       0       0       0       0       0       0       0       0       0       0       0       0       0
      Temps:          0       0       0       0       0       0       0       0       0       0       0       0       0       0       0       0       0
      Totals:         3       0       0       0       0       0       0       0       0       0       0       0       0       0       0       0       0
Total ram usage:        3 bytes
 Hardware stack levels used:    1
 Hardware stack levels required when called:    6
 This function calls:
		_lcd_komut
 This function is called by:
		_lcd_mesajyaz
 This function uses a non-reentrant model


 *************** function _lcd_baslat *****************
 Defined at:
		line 116 in file "seri_lcd.c"
 Parameters:    Size  Location     Type
		None
 Auto vars:     Size  Location     Type
  i               1   19[COMRAM] unsigned char 
 Return value:  Size  Location     Type
                  1    wreg      void 
 Registers used:
		wreg, status,2, status,0, cstack
 Tracked objects:
		On entry : 
		On exit  : 
		Unchanged: 
 Data sizes:     COMRAM   BANK0   BANK1   BANK2   BANK3   BANK4   BANK5   BANK6   BANK7   BANK8   BANK9  BANK10  BANK11  BANK12  BANK13  BANK14  BANK15
      Params:         0       0       0       0       0       0       0       0       0       0       0       0       0       0       0       0       0
      Locals:         1       0       0       0       0       0       0       0       0       0       0       0       0       0       0       0       0
      Temps:          1       0       0       0       0       0       0       0       0       0       0       0       0       0       0       0       0
      Totals:         2       0       0       0       0       0       0       0       0       0       0       0       0       0       0       0       0
Total ram usage:        2 bytes
 Hardware stack levels used:    1
 Hardware stack levels required when called:    7
 This function calls:
		_lcd_aydinlatma_ac
		_lcd_komut
		_lcd_sil
		_pcf8574_yaz
		_pcf8574_yaz_wEnable
 This function is called by:
		_main
 This function uses a non-reentrant model


 *************** function _lcd_sil *****************
 Defined at:
		line 269 in file "seri_lcd.c"
 Parameters:    Size  Location     Type
		None
 Auto vars:     Size  Location     Type
		None
 Return value:  Size  Location     Type
                  1    wreg      void 
 Registers used:
		wreg, status,2, status,0, cstack
 Tracked objects:
		On entry : 
		On exit  : 
		Unchanged: 
 Data sizes:     COMRAM   BANK0   BANK1   BANK2   BANK3   BANK4   BANK5   BANK6   BANK7   BANK8   BANK9  BANK10  BANK11  BANK12  BANK13  BANK14  BANK15
      Params:         0       0       0       0       0       0       0       0       0       0       0       0       0       0       0       0       0
      Locals:         0       0       0       0       0       0       0       0       0       0       0       0       0       0       0       0       0
      Temps:          0       0       0       0       0       0       0       0       0       0       0       0       0       0       0       0       0
      Totals:         0       0       0       0       0       0       0       0       0       0       0       0       0       0       0       0       0
Total ram usage:        0 bytes
 Hardware stack levels used:    1
 Hardware stack levels required when called:    6
 This function calls:
		_lcd_komut
 This function is called by:
		_lcd_baslat
 This function uses a non-reentrant model


 *************** function _lcd_komut *****************
 Defined at:
		line 225 in file "seri_lcd.c"
 Parameters:    Size  Location     Type
  komut           1    wreg     unsigned char 
 Auto vars:     Size  Location     Type
  komut           1   17[COMRAM] unsigned char 
 Return value:  Size  Location     Type
                  1    wreg      void 
 Registers used:
		wreg, status,2, status,0, cstack
 Tracked objects:
		On entry : 
		On exit  : 
		Unchanged: 
 Data sizes:     COMRAM   BANK0   BANK1   BANK2   BANK3   BANK4   BANK5   BANK6   BANK7   BANK8   BANK9  BANK10  BANK11  BANK12  BANK13  BANK14  BANK15
      Params:         0       0       0       0       0       0       0       0       0       0       0       0       0       0       0       0       0
      Locals:         1       0       0       0       0       0       0       0       0       0       0       0       0       0       0       0       0
      Temps:          1       0       0       0       0       0       0       0       0       0       0       0       0       0       0       0       0
      Totals:         2       0       0       0       0       0       0       0       0       0       0       0       0       0       0       0       0
Total ram usage:        2 bytes
 Hardware stack levels used:    1
 Hardware stack levels required when called:    5
 This function calls:
		_lcd_mesgulmu
		_pcf8574_yaz_wEnable
 This function is called by:
		_lcd_baslat
		_lcd_git
		_lcd_sil
 This function uses a non-reentrant model


 *************** function _pcf8574_yaz_wEnable *****************
 Defined at:
		line 61 in file "seri_lcd.c"
 Parameters:    Size  Location     Type
		None
 Auto vars:     Size  Location     Type
		None
 Return value:  Size  Location     Type
                  1    wreg      void 
 Registers used:
		wreg, status,2, status,0, cstack
 Tracked objects:
		On entry : 
		On exit  : 
		Unchanged: 
 Data sizes:     COMRAM   BANK0   BANK1   BANK2   BANK3   BANK4   BANK5   BANK6   BANK7   BANK8   BANK9  BANK10  BANK11  BANK12  BANK13  BANK14  BANK15
      Params:         0       0       0       0       0       0       0       0       0       0       0       0       0       0       0       0       0
      Locals:         0       0       0       0       0       0       0       0       0       0       0       0       0       0       0       0       0
      Temps:          0       0       0       0       0       0       0       0       0       0       0       0       0       0       0       0       0
      Totals:         0       0       0       0       0       0       0       0       0       0       0       0       0       0       0       0       0
Total ram usage:        0 bytes
 Hardware stack levels used:    1
 Hardware stack levels required when called:    4
 This function calls:
		_softi2c_baslat
		_softi2c_durdur
		_softi2c_yaz
 This function is called by:
		_lcd_baslat
		_lcd_harfyaz
		_lcd_komut
 This function uses a non-reentrant model


 *************** function _lcd_mesgulmu *****************
 Defined at:
		line 200 in file "seri_lcd.c"
 Parameters:    Size  Location     Type
		None
 Auto vars:     Size  Location     Type
		None
 Return value:  Size  Location     Type
                  1    wreg      void 
 Registers used:
		wreg
 Tracked objects:
		On entry : 
		On exit  : 
		Unchanged: 
 Data sizes:     COMRAM   BANK0   BANK1   BANK2   BANK3   BANK4   BANK5   BANK6   BANK7   BANK8   BANK9  BANK10  BANK11  BANK12  BANK13  BANK14  BANK15
      Params:         0       0       0       0       0       0       0       0       0       0       0       0       0       0       0       0       0
      Locals:         0       0       0       0       0       0       0       0       0       0       0       0       0       0       0       0       0
      Temps:          0       0       0       0       0       0       0       0       0       0       0       0       0       0       0       0       0
      Totals:         0       0       0       0       0       0       0       0       0       0       0       0       0       0       0       0       0
Total ram usage:        0 bytes
 Hardware stack levels used:    1
 Hardware stack levels required when called:    3
 This function calls:
		Nothing
 This function is called by:
		_lcd_harfyaz
		_lcd_komut
 This function uses a non-reentrant model


 *************** function _lcd_aydinlatma_ac *****************
 Defined at:
		line 384 in file "seri_lcd.c"
 Parameters:    Size  Location     Type
		None
 Auto vars:     Size  Location     Type
		None
 Return value:  Size  Location     Type
                  1    wreg      void 
 Registers used:
		wreg, status,2, status,0, cstack
 Tracked objects:
		On entry : 
		On exit  : 
		Unchanged: 
 Data sizes:     COMRAM   BANK0   BANK1   BANK2   BANK3   BANK4   BANK5   BANK6   BANK7   BANK8   BANK9  BANK10  BANK11  BANK12  BANK13  BANK14  BANK15
      Params:         0       0       0       0       0       0       0       0       0       0       0       0       0       0       0       0       0
      Locals:         0       0       0       0       0       0       0       0       0       0       0       0       0       0       0       0       0
      Temps:          0       0       0       0       0       0       0       0       0       0       0       0       0       0       0       0       0
      Totals:         0       0       0       0       0       0       0       0       0       0       0       0       0       0       0       0       0
Total ram usage:        0 bytes
 Hardware stack levels used:    1
 Hardware stack levels required when called:    5
 This function calls:
		_pcf8574_yaz
 This function is called by:
		_lcd_baslat
 This function uses a non-reentrant model


 *************** function _pcf8574_yaz *****************
 Defined at:
		line 26 in file "pcf8574.c"
 Parameters:    Size  Location     Type
  veri            1    wreg     unsigned char 
 Auto vars:     Size  Location     Type
  veri            1   16[COMRAM] unsigned char 
 Return value:  Size  Location     Type
                  1    wreg      void 
 Registers used:
		wreg, status,2, status,0, cstack
 Tracked objects:
		On entry : 
		On exit  : 
		Unchanged: 
 Data sizes:     COMRAM   BANK0   BANK1   BANK2   BANK3   BANK4   BANK5   BANK6   BANK7   BANK8   BANK9  BANK10  BANK11  BANK12  BANK13  BANK14  BANK15
      Params:         0       0       0       0       0       0       0       0       0       0       0       0       0       0       0       0       0
      Locals:         1       0       0       0       0       0       0       0       0       0       0       0       0       0       0       0       0
      Temps:          0       0       0       0       0       0       0       0       0       0       0       0       0       0       0       0       0
      Totals:         1       0       0       0       0       0       0       0       0       0       0       0       0       0       0       0       0
Total ram usage:        1 bytes
 Hardware stack levels used:    1
 Hardware stack levels required when called:    4
 This function calls:
		_softi2c_baslat
		_softi2c_durdur
		_softi2c_yaz
 This function is called by:
		_lcd_baslat
		_lcd_aydinlatma_ac
 This function uses a non-reentrant model


 *************** function _softi2c_yaz *****************
 Defined at:
		line 60 in file "softi2c.c"
 Parameters:    Size  Location     Type
  veri            1    wreg     unsigned char 
 Auto vars:     Size  Location     Type
  veri            1   14[COMRAM] unsigned char 
  i               1   15[COMRAM] unsigned char 
  temp            1    0        unsigned char 
 Return value:  Size  Location     Type
                  1    wreg      unsigned char 
 Registers used:
		wreg, status,2, status,0
 Tracked objects:
		On entry : 
		On exit  : 
		Unchanged: 
 Data sizes:     COMRAM   BANK0   BANK1   BANK2   BANK3   BANK4   BANK5   BANK6   BANK7   BANK8   BANK9  BANK10  BANK11  BANK12  BANK13  BANK14  BANK15
      Params:         0       0       0       0       0       0       0       0       0       0       0       0       0       0       0       0       0
      Locals:         3       0       0       0       0       0       0       0       0       0       0       0       0       0       0       0       0
      Temps:          0       0       0       0       0       0       0       0       0       0       0       0       0       0       0       0       0
      Totals:         3       0       0       0       0       0       0       0       0       0       0       0       0       0       0       0       0
Total ram usage:        3 bytes
 Hardware stack levels used:    1
 Hardware stack levels required when called:    3
 This function calls:
		Nothing
 This function is called by:
		_pcf8574_yaz
		_pcf8574_yaz_wEnable
 This function uses a non-reentrant model


 *************** function _softi2c_durdur *****************
 Defined at:
		line 37 in file "softi2c.c"
 Parameters:    Size  Location     Type
		None
 Auto vars:     Size  Location     Type
		None
 Return value:  Size  Location     Type
                  1    wreg      void 
 Registers used:
		None
 Tracked objects:
		On entry : 
		On exit  : 
		Unchanged: 
 Data sizes:     COMRAM   BANK0   BANK1   BANK2   BANK3   BANK4   BANK5   BANK6   BANK7   BANK8   BANK9  BANK10  BANK11  BANK12  BANK13  BANK14  BANK15
      Params:         0       0       0       0       0       0       0       0       0       0       0       0       0       0       0       0       0
      Locals:         0       0       0       0       0       0       0       0       0       0       0       0       0       0       0       0       0
      Temps:          0       0       0       0       0       0       0       0       0       0       0       0       0       0       0       0       0
      Totals:         0       0       0       0       0       0       0       0       0       0       0       0       0       0       0       0       0
Total ram usage:        0 bytes
 Hardware stack levels used:    1
 Hardware stack levels required when called:    3
 This function calls:
		Nothing
 This function is called by:
		_pcf8574_yaz
		_pcf8574_yaz_wEnable
 This function uses a non-reentrant model


 *************** function _softi2c_baslat *****************
 Defined at:
		line 25 in file "softi2c.c"
 Parameters:    Size  Location     Type
		None
 Auto vars:     Size  Location     Type
		None
 Return value:  Size  Location     Type
                  1    wreg      void 
 Registers used:
		None
 Tracked objects:
		On entry : 
		On exit  : 
		Unchanged: 
 Data sizes:     COMRAM   BANK0   BANK1   BANK2   BANK3   BANK4   BANK5   BANK6   BANK7   BANK8   BANK9  BANK10  BANK11  BANK12  BANK13  BANK14  BANK15
      Params:         0       0       0       0       0       0       0       0       0       0       0       0       0       0       0       0       0
      Locals:         0       0       0       0       0       0       0       0       0       0       0       0       0       0       0       0       0
      Temps:          0       0       0       0       0       0       0       0       0       0       0       0       0       0       0       0       0
      Totals:         0       0       0       0       0       0       0       0       0       0       0       0       0       0       0       0       0
Total ram usage:        0 bytes
 Hardware stack levels used:    1
 Hardware stack levels required when called:    3
 This function calls:
		Nothing
 This function is called by:
		_pcf8574_yaz
		_pcf8574_yaz_wEnable
 This function uses a non-reentrant model


 *************** function _f_write *****************
 Defined at:
		line 3831 in file "ff.c"
 Parameters:    Size  Location     Type
  fp              2   62[BANK1 ] PTR struct .
		 -> File(1092), 
  buff            2   64[BANK1 ] PTR const void 
		 -> Buff(512), 
  btw             2   66[BANK1 ] unsigned int 
  bw              2   68[BANK1 ] PTR unsigned int 
		 -> main@s2(2), 
 Auto vars:     Size  Location     Type
  sect            4   99[BANK1 ] unsigned long 
  clst            4   93[BANK1 ] unsigned long 
  fs              2  103[BANK1 ] PTR struct .
		 -> FatFs(561), NULL(0), 
  wcnt            2   97[BANK1 ] unsigned int 
  cc              2   91[BANK1 ] unsigned int 
  csect           2   89[BANK1 ] unsigned int 
  wbuff           2   87[BANK1 ] PTR const unsigned char 
		 -> Buff(512), 
  res             1   86[BANK1 ] enum E69
 Return value:  Size  Location     Type
                  1    wreg      enum E69
 Registers used:
		wreg, fsr0l, fsr0h, fsr2l, fsr2h, status,2, status,0, tblptrl, tblptrh, tblptru, cstack
 Tracked objects:
		On entry : 
		On exit  : 
		Unchanged: 
 Data sizes:     COMRAM   BANK0   BANK1   BANK2   BANK3   BANK4   BANK5   BANK6   BANK7   BANK8   BANK9  BANK10  BANK11  BANK12  BANK13  BANK14  BANK15
      Params:         0       0       8       0       0       0       0       0       0       0       0       0       0       0       0       0       0
      Locals:         0       0      23       0       0       0       0       0       0       0       0       0       0       0       0       0       0
      Temps:          0       0      12       0       0       0       0       0       0       0       0       0       0       0       0       0       0
      Totals:         0       0      43       0       0       0       0       0       0       0       0       0       0       0       0       0       0
Total ram usage:       43 bytes
 Hardware stack levels used:    1
 Hardware stack levels required when called:   13
 This function calls:
		_clst2sect
		_create_chain
		_disk_read
		_disk_write
		_mem_cpy
		_validate
 This function is called by:
		_main
 This function uses a non-reentrant model


 *************** function _f_unlink *****************
 Defined at:
		line 4739 in file "ff.c"
 Parameters:    Size  Location     Type
  path            2  115[BANK1 ] PTR const unsigned char 
		 -> STR_29(1), Buff(512), Line(50), NULL(0), 
 Auto vars:     Size  Location     Type
  dj             44  168[BANK1 ] struct .
  sdj            44  124[BANK1 ] struct .
  dclst           4  117[BANK1 ] unsigned long 
  fs              2  121[BANK1 ] PTR struct .
		 -> FatFs(561), NULL(0), 
  res             1  123[BANK1 ] enum E69
 Return value:  Size  Location     Type
                  1    wreg      enum E69
 Registers used:
		wreg, fsr0l, fsr0h, fsr2l, fsr2h, status,2, status,0, tblptrl, tblptrh, tblptru, prodl, prodh, cstack
 Tracked objects:
		On entry : 
		On exit  : 
		Unchanged: 
 Data sizes:     COMRAM   BANK0   BANK1   BANK2   BANK3   BANK4   BANK5   BANK6   BANK7   BANK8   BANK9  BANK10  BANK11  BANK12  BANK13  BANK14  BANK15
      Params:         0       0       2       0       0       0       0       0       0       0       0       0       0       0       0       0       0
      Locals:         0       0      95       0       0       0       0       0       0       0       0       0       0       0       0       0       0
      Temps:          0       0       0       0       0       0       0       0       0       0       0       0       0       0       0       0       0
      Totals:         0       0      97       0       0       0       0       0       0       0       0       0       0       0       0       0       0
Total ram usage:       97 bytes
 Hardware stack levels used:    1
 Hardware stack levels required when called:   16
 This function calls:
		_dir_read
		_dir_remove
		_dir_sdi
		_find_volume
		_follow_path
		_ld_clust
		_remove_chain
		_sync_fs
 This function is called by:
		_main
 This function uses a non-reentrant model


 *************** function _f_truncate *****************
 Defined at:
		line 4689 in file "ff.c"
 Parameters:    Size  Location     Type
  fp              2  156[BANK0 ] PTR struct .
		 -> File(1092), 
 Auto vars:     Size  Location     Type
  ncl             4   68[BANK1 ] unsigned long 
  fs              2   66[BANK1 ] PTR struct .
		 -> FatFs(561), NULL(0), 
  res             1   72[BANK1 ] enum E69
 Return value:  Size  Location     Type
                  1    wreg      enum E69
 Registers used:
		wreg, fsr0l, fsr0h, fsr2l, fsr2h, status,2, status,0, tblptrl, tblptrh, tblptru, cstack
 Tracked objects:
		On entry : 
		On exit  : 
		Unchanged: 
 Data sizes:     COMRAM   BANK0   BANK1   BANK2   BANK3   BANK4   BANK5   BANK6   BANK7   BANK8   BANK9  BANK10  BANK11  BANK12  BANK13  BANK14  BANK15
      Params:         0       2       0       0       0       0       0       0       0       0       0       0       0       0       0       0       0
      Locals:         0       0       7       0       0       0       0       0       0       0       0       0       0       0       0       0       0
      Temps:          0       0       8       0       0       0       0       0       0       0       0       0       0       0       0       0       0
      Totals:         0       2      15       0       0       0       0       0       0       0       0       0       0       0       0       0       0
Total ram usage:       17 bytes
 Hardware stack levels used:    1
 Hardware stack levels required when called:   13
 This function calls:
		_disk_write
		_get_fat
		_remove_chain
		_validate
 This function is called by:
		_main
 This function uses a non-reentrant model


 *************** function _f_rename *****************
 Defined at:
		line 4921 in file "ff.c"
 Parameters:    Size  Location     Type
  path_old        2  135[BANK1 ] PTR const unsigned char 
		 -> STR_29(1), Buff(512), Line(50), NULL(0), 
  path_new        2  137[BANK1 ] PTR const unsigned char 
		 -> STR_29(1), Buff(512), Line(50), NULL(0), 
 Auto vars:     Size  Location     Type
  djn            44   87[BANK2 ] struct .
  djo            44   43[BANK2 ] struct .
  buf            32    0[BANK2 ] unsigned char [32]
  dw              4   34[BANK2 ] unsigned long 
  fs              2   40[BANK2 ] PTR struct .
		 -> FatFs(561), NULL(0), 
  dir             2   38[BANK2 ] PTR unsigned char 
		 -> FatFs.win(512), FatFs(561), NULL(0), 
  res             1   42[BANK2 ] enum E69
 Return value:  Size  Location     Type
                  1    wreg      enum E69
 Registers used:
		wreg, fsr0l, fsr0h, fsr2l, fsr2h, status,2, status,0, tblptrl, tblptrh, tblptru, prodl, prodh, cstack
 Tracked objects:
		On entry : 
		On exit  : 
		Unchanged: 
 Data sizes:     COMRAM   BANK0   BANK1   BANK2   BANK3   BANK4   BANK5   BANK6   BANK7   BANK8   BANK9  BANK10  BANK11  BANK12  BANK13  BANK14  BANK15
      Params:         0       0       4       0       0       0       0       0       0       0       0       0       0       0       0       0       0
      Locals:         0       0       0     131       0       0       0       0       0       0       0       0       0       0       0       0       0
      Temps:          0       0       1       0       0       0       0       0       0       0       0       0       0       0       0       0       0
      Totals:         0       0       5     131       0       0       0       0       0       0       0       0       0       0       0       0       0
Total ram usage:      136 bytes
 Hardware stack levels used:    1
 Hardware stack levels required when called:   16
 This function calls:
		_clst2sect
		_dir_register
		_dir_remove
		_find_volume
		_follow_path
		_get_ldnumber
		_ld_clust
		_mem_cpy
		_move_window
		_st_clust
		_sync_fs
 This function is called by:
		_main
 This function uses a non-reentrant model


 *************** function _dir_remove *****************
 Defined at:
		line 2616 in file "ff.c"
 Parameters:    Size  Location     Type
  dp              2  156[BANK0 ] PTR struct .
		 -> f_rename@djo(44), f_unlink@dj(44), 
 Auto vars:     Size  Location     Type
  last            4   96[BANK1 ] unsigned long 
  fs              2  102[BANK1 ] PTR struct .
		 -> FatFs(561), NULL(0), 
  res             1  104[BANK1 ] enum E69
 Return value:  Size  Location     Type
                  1    wreg      enum E69
 Registers used:
		wreg, fsr0l, fsr0h, fsr2l, fsr2h, status,2, status,0, tblptrl, tblptrh, tblptru, cstack
 Tracked objects:
		On entry : 
		On exit  : 
		Unchanged: 
 Data sizes:     COMRAM   BANK0   BANK1   BANK2   BANK3   BANK4   BANK5   BANK6   BANK7   BANK8   BANK9  BANK10  BANK11  BANK12  BANK13  BANK14  BANK15
      Params:         0       2       0       0       0       0       0       0       0       0       0       0       0       0       0       0       0
      Locals:         0       0       9       0       0       0       0       0       0       0       0       0       0       0       0       0       0
      Temps:          0       0       4       0       0       0       0       0       0       0       0       0       0       0       0       0       0
      Totals:         0       2      13       0       0       0       0       0       0       0       0       0       0       0       0       0       0
Total ram usage:       15 bytes
 Hardware stack levels used:    1
 Hardware stack levels required when called:   14
 This function calls:
		_dir_next
		_dir_sdi
		_move_window
 This function is called by:
		_f_unlink
		_f_rename
 This function uses a non-reentrant model


 *************** function _f_read *****************
 Defined at:
		line 3731 in file "ff.c"
 Parameters:    Size  Location     Type
  fp              2   26[BANK1 ] PTR struct .
		 -> File(1092), 
  buff            2   28[BANK1 ] PTR void 
		 -> Buff(512), 
  btr             2   30[BANK1 ] unsigned int 
  br              2   32[BANK1 ] PTR unsigned int 
		 -> main@s2(2), main@cnt(2), main@s1(2), 
 Auto vars:     Size  Location     Type
  sect            4   63[BANK1 ] unsigned long 
  clst            4   51[BANK1 ] unsigned long 
  remain          4   46[BANK1 ] unsigned long 
  fs              2   67[BANK1 ] PTR struct .
		 -> FatFs(561), NULL(0), 
  rcnt            2   61[BANK1 ] unsigned int 
  cc              2   59[BANK1 ] unsigned int 
  csect           2   57[BANK1 ] unsigned int 
  rbuff           2   55[BANK1 ] PTR unsigned char 
		 -> Buff(512), 
  res             1   50[BANK1 ] enum E69
 Return value:  Size  Location     Type
                  1    wreg      enum E69
 Registers used:
		wreg, fsr0l, fsr0h, fsr2l, fsr2h, status,2, status,0, tblptrl, tblptrh, tblptru, cstack
 Tracked objects:
		On entry : 
		On exit  : 
		Unchanged: 
 Data sizes:     COMRAM   BANK0   BANK1   BANK2   BANK3   BANK4   BANK5   BANK6   BANK7   BANK8   BANK9  BANK10  BANK11  BANK12  BANK13  BANK14  BANK15
      Params:         0       0       8       0       0       0       0       0       0       0       0       0       0       0       0       0       0
      Locals:         0       0      23       0       0       0       0       0       0       0       0       0       0       0       0       0       0
      Temps:          0       0      12       0       0       0       0       0       0       0       0       0       0       0       0       0       0
      Totals:         0       0      43       0       0       0       0       0       0       0       0       0       0       0       0       0       0
Total ram usage:       43 bytes
 Hardware stack levels used:    1
 Hardware stack levels required when called:   12
 This function calls:
		_clst2sect
		_disk_read
		_disk_write
		_get_fat
		_mem_cpy
		_validate
 This function is called by:
		_main
 This function uses a non-reentrant model


 *************** function _f_open *****************
 Defined at:
		line 3541 in file "ff.c"
 Parameters:    Size  Location     Type
  fp              2  135[BANK1 ] PTR struct .
		 -> File(1092), 
  path            2  137[BANK1 ] PTR const unsigned char 
		 -> STR_29(1), Buff(512), Line(50), NULL(0), 
  mode            1  139[BANK1 ] unsigned char 
 Auto vars:     Size  Location     Type
  dj             44  177[BANK1 ] struct .
  clst            4  170[BANK1 ] unsigned long 
  ofs             4  166[BANK1 ] unsigned long 
  cl              4  162[BANK1 ] unsigned long 
  bcs             4  158[BANK1 ] unsigned long 
  sc              4  152[BANK1 ] unsigned long 
  dw              4  148[BANK1 ] unsigned long 
  fs              2  174[BANK1 ] PTR struct .
		 -> FatFs(561), NULL(0), 
  res             1  176[BANK1 ] enum E69
 Return value:  Size  Location     Type
                  1    wreg      enum E69
 Registers used:
		wreg, fsr0l, fsr0h, fsr2l, fsr2h, status,2, status,0, tblptrl, tblptrh, tblptru, prodl, prodh, cstack
 Tracked objects:
		On entry : 
		On exit  : 
		Unchanged: 
 Data sizes:     COMRAM   BANK0   BANK1   BANK2   BANK3   BANK4   BANK5   BANK6   BANK7   BANK8   BANK9  BANK10  BANK11  BANK12  BANK13  BANK14  BANK15
      Params:         0       0       5       0       0       0       0       0       0       0       0       0       0       0       0       0       0
      Locals:         0       0      73       0       0       0       0       0       0       0       0       0       0       0       0       0       0
      Temps:          0       0       8       0       0       0       0       0       0       0       0       0       0       0       0       0       0
      Totals:         0       0      86       0       0       0       0       0       0       0       0       0       0       0       0       0       0
Total ram usage:       86 bytes
 Hardware stack levels used:    1
 Hardware stack levels required when called:   16
 This function calls:
		_clst2sect
		_dir_register
		_disk_read
		_find_volume
		_follow_path
		_get_fat
		_get_fattime
		_ld_clust
		_ld_dword
		_mem_set
		_move_window
		_remove_chain
		_st_clust
		_st_dword
 This function is called by:
		_main
 This function uses a non-reentrant model


 *************** function _f_mount *****************
 Defined at:
		line 3493 in file "ff.c"
 Parameters:    Size  Location     Type
  fs              2   77[BANK1 ] PTR struct .
		 -> FatFs(561), NULL(0), 
  path            2   79[BANK1 ] PTR const unsigned char 
		 -> STR_29(1), Buff(512), Line(50), NULL(0), 
  opt             1   81[BANK1 ] unsigned char 
 Auto vars:     Size  Location     Type
  vol             2   87[BANK1 ] int 
  rp              2   85[BANK1 ] PTR const unsigned char 
		 -> STR_29(1), Buff(512), Line(50), NULL(0), 
  cfs             2   83[BANK1 ] PTR struct .
		 -> FatFs(561), NULL(0), 
  res             1   82[BANK1 ] enum E69
 Return value:  Size  Location     Type
                  1    wreg      enum E69
 Registers used:
		wreg, fsr0l, fsr0h, fsr2l, fsr2h, status,2, status,0, tblptrl, tblptrh, tblptru, cstack
 Tracked objects:
		On entry : 
		On exit  : 
		Unchanged: 
 Data sizes:     COMRAM   BANK0   BANK1   BANK2   BANK3   BANK4   BANK5   BANK6   BANK7   BANK8   BANK9  BANK10  BANK11  BANK12  BANK13  BANK14  BANK15
      Params:         0       0       5       0       0       0       0       0       0       0       0       0       0       0       0       0       0
      Locals:         0       0       7       0       0       0       0       0       0       0       0       0       0       0       0       0       0
      Temps:          0       0       0       0       0       0       0       0       0       0       0       0       0       0       0       0       0
      Totals:         0       0      12       0       0       0       0       0       0       0       0       0       0       0       0       0       0
Total ram usage:       12 bytes
 Hardware stack levels used:    1
 Hardware stack levels required when called:   13
 This function calls:
		_find_volume
		_get_ldnumber
 This function is called by:
		_main
 This function uses a non-reentrant model


 *************** function _f_mkdir *****************
 Defined at:
		line 4833 in file "ff.c"
 Parameters:    Size  Location     Type
  path            2  135[BANK1 ] PTR const unsigned char 
		 -> STR_29(1), Buff(512), Line(50), NULL(0), 
 Auto vars:     Size  Location     Type
  dj             44  160[BANK1 ] struct .
  dcl             4  151[BANK1 ] unsigned long 
  tm              4  147[BANK1 ] unsigned long 
  pcl             4  143[BANK1 ] unsigned long 
  fs              2  157[BANK1 ] PTR struct .
		 -> FatFs(561), NULL(0), 
  dir             2  155[BANK1 ] PTR unsigned char 
		 -> FatFs.win(512), FatFs(561), NULL(0), 
  res             1  159[BANK1 ] enum E69
 Return value:  Size  Location     Type
                  1    wreg      enum E69
 Registers used:
		wreg, fsr0l, fsr0h, fsr2l, fsr2h, status,2, status,0, tblptrl, tblptrh, tblptru, prodl, prodh, cstack
 Tracked objects:
		On entry : 
		On exit  : 
		Unchanged: 
 Data sizes:     COMRAM   BANK0   BANK1   BANK2   BANK3   BANK4   BANK5   BANK6   BANK7   BANK8   BANK9  BANK10  BANK11  BANK12  BANK13  BANK14  BANK15
      Params:         0       0       2       0       0       0       0       0       0       0       0       0       0       0       0       0       0
      Locals:         0       0      61       0       0       0       0       0       0       0       0       0       0       0       0       0       0
      Temps:          0       0       6       0       0       0       0       0       0       0       0       0       0       0       0       0       0
      Totals:         0       0      69       0       0       0       0       0       0       0       0       0       0       0       0       0       0
Total ram usage:       69 bytes
 Hardware stack levels used:    1
 Hardware stack levels required when called:   16
 This function calls:
		_create_chain
		_dir_clear
		_dir_register
		_find_volume
		_follow_path
		_get_fattime
		_mem_cpy
		_mem_set
		_remove_chain
		_st_clust
		_st_dword
		_sync_fs
		_sync_window
 This function is called by:
		_main
 This function uses a non-reentrant model


 *************** function _remove_chain *****************
 Defined at:
		line 1414 in file "ff.c"
 Parameters:    Size  Location     Type
  obj             2   33[BANK1 ] PTR struct .
		 -> File(1092), f_mkdir@dj(44), f_unlink@dj(44), f_open@dj(44), 
  clst            4   35[BANK1 ] unsigned long 
  pclst           4   39[BANK1 ] unsigned long 
 Auto vars:     Size  Location     Type
  nxt             4   51[BANK1 ] unsigned long 
  fs              2   56[BANK1 ] PTR struct .
		 -> FatFs(561), NULL(0), 
  res             1   55[BANK1 ] enum E69
 Return value:  Size  Location     Type
                  1    wreg      enum E69
 Registers used:
		wreg, fsr0l, fsr0h, fsr2l, fsr2h, status,2, status,0, tblptrl, tblptrh, tblptru, cstack
 Tracked objects:
		On entry : 
		On exit  : 
		Unchanged: 
 Data sizes:     COMRAM   BANK0   BANK1   BANK2   BANK3   BANK4   BANK5   BANK6   BANK7   BANK8   BANK9  BANK10  BANK11  BANK12  BANK13  BANK14  BANK15
      Params:         0       0      10       0       0       0       0       0       0       0       0       0       0       0       0       0       0
      Locals:         0       0       7       0       0       0       0       0       0       0       0       0       0       0       0       0       0
      Temps:          0       0       8       0       0       0       0       0       0       0       0       0       0       0       0       0       0
      Totals:         0       0      25       0       0       0       0       0       0       0       0       0       0       0       0       0       0
Total ram usage:       25 bytes
 Hardware stack levels used:    1
 Hardware stack levels required when called:   12
 This function calls:
		_get_fat
		_put_fat
 This function is called by:
		_f_open
		_f_truncate
		_f_unlink
		_f_mkdir
 This function uses a non-reentrant model


 *************** function _dir_register *****************
 Defined at:
		line 2509 in file "ff.c"
 Parameters:    Size  Location     Type
  dp              2  101[BANK1 ] PTR struct .
		 -> f_rename@djn(44), f_mkdir@dj(44), f_open@dj(44), 
 Auto vars:     Size  Location     Type
  sn             12  113[BANK1 ] unsigned char [12]
  fs              2  132[BANK1 ] PTR struct .
		 -> FatFs(561), NULL(0), 
  nent            2  130[BANK1 ] unsigned int 
  n               2  128[BANK1 ] unsigned int 
  nlen            2  126[BANK1 ] unsigned int 
  res             1  134[BANK1 ] enum E69
  sum             1  125[BANK1 ] unsigned char 
 Return value:  Size  Location     Type
                  1    wreg      enum E69
 Registers used:
		wreg, fsr0l, fsr0h, fsr2l, fsr2h, status,2, status,0, tblptrl, tblptrh, tblptru, prodl, prodh, cstack
 Tracked objects:
		On entry : 
		On exit  : 
		Unchanged: 
 Data sizes:     COMRAM   BANK0   BANK1   BANK2   BANK3   BANK4   BANK5   BANK6   BANK7   BANK8   BANK9  BANK10  BANK11  BANK12  BANK13  BANK14  BANK15
      Params:         0       0       2       0       0       0       0       0       0       0       0       0       0       0       0       0       0
      Locals:         0       0      22       0       0       0       0       0       0       0       0       0       0       0       0       0       0
      Temps:          0       0      10       0       0       0       0       0       0       0       0       0       0       0       0       0       0
      Totals:         0       0      34       0       0       0       0       0       0       0       0       0       0       0       0       0       0
Total ram usage:       34 bytes
 Hardware stack levels used:    1
 Hardware stack levels required when called:   15
 This function calls:
		___lwdiv
		_dir_alloc
		_dir_find
		_dir_next
		_dir_sdi
		_gen_numname
		_mem_cpy
		_mem_set
		_move_window
		_put_lfn
		_sum_sfn
 This function is called by:
		_f_open
		_f_mkdir
		_f_rename
 This function uses a non-reentrant model


 *************** function _put_lfn *****************
 Defined at:
		line 1949 in file "ff.c"
 Parameters:    Size  Location     Type
  lfn             2   19[COMRAM] PTR const unsigned short
		 -> LfnBuf(202), 
  dir             2   21[COMRAM] PTR unsigned char 
		 -> FatFs(561), NULL(0), 
  ord             1   23[COMRAM] unsigned char 
  sum             1   24[COMRAM] unsigned char 
 Auto vars:     Size  Location     Type
  wc              2   31[COMRAM] unsigned short 
  i               2   29[COMRAM] unsigned int 
  s               2   27[COMRAM] unsigned int 
 Return value:  Size  Location     Type
                  1    wreg      void 
 Registers used:
		wreg, fsr2l, fsr2h, status,2, status,0, tblptrl, tblptrh, tblptru, prodl, prodh, cstack
 Tracked objects:
		On entry : 
		On exit  : 
		Unchanged: 
 Data sizes:     COMRAM   BANK0   BANK1   BANK2   BANK3   BANK4   BANK5   BANK6   BANK7   BANK8   BANK9  BANK10  BANK11  BANK12  BANK13  BANK14  BANK15
      Params:         6       0       0       0       0       0       0       0       0       0       0       0       0       0       0       0       0
      Locals:         6       0       0       0       0       0       0       0       0       0       0       0       0       0       0       0       0
      Temps:          2       0       0       0       0       0       0       0       0       0       0       0       0       0       0       0       0
      Totals:        14       0       0       0       0       0       0       0       0       0       0       0       0       0       0       0       0
Total ram usage:       14 bytes
 Hardware stack levels used:    1
 Hardware stack levels required when called:    4
 This function calls:
		___wmul
		_st_word
 This function is called by:
		_dir_register
 This function uses a non-reentrant model


 *************** function _gen_numname *****************
 Defined at:
		line 1987 in file "ff.c"
 Parameters:    Size  Location     Type
  dst             2   23[COMRAM] PTR unsigned char 
		 -> f_rename@djn(44), f_mkdir@dj(44), f_open@dj(44), 
  src             2   25[COMRAM] PTR const unsigned char 
		 -> dir_register@sn(12), 
  lfn             2   27[COMRAM] PTR const unsigned short
		 -> LfnBuf(202), 
  seq             2   29[COMRAM] unsigned int 
 Auto vars:     Size  Location     Type
  ns              8   37[COMRAM] unsigned char [8]
  sr              4   50[COMRAM] unsigned long 
  i               2   56[COMRAM] unsigned int 
  j               2   54[COMRAM] unsigned int 
  wc              2   45[COMRAM] unsigned short 
  c               1   49[COMRAM] unsigned char 
 Return value:  Size  Location     Type
                  1    wreg      void 
 Registers used:
		wreg, fsr0l, fsr0h, fsr2l, fsr2h, status,2, status,0, cstack
 Tracked objects:
		On entry : 
		On exit  : 
		Unchanged: 
 Data sizes:     COMRAM   BANK0   BANK1   BANK2   BANK3   BANK4   BANK5   BANK6   BANK7   BANK8   BANK9  BANK10  BANK11  BANK12  BANK13  BANK14  BANK15
      Params:         8       0       0       0       0       0       0       0       0       0       0       0       0       0       0       0       0
      Locals:        21       0       0       0       0       0       0       0       0       0       0       0       0       0       0       0       0
      Temps:          6       0       0       0       0       0       0       0       0       0       0       0       0       0       0       0       0
      Totals:        35       0       0       0       0       0       0       0       0       0       0       0       0       0       0       0       0
Total ram usage:       35 bytes
 Hardware stack levels used:    1
 Hardware stack levels required when called:    4
 This function calls:
		_dbc_1st
		_mem_cpy
 This function is called by:
		_dir_register
 This function uses a non-reentrant model


 *************** function _mem_cpy *****************
 Defined at:
		line 646 in file "ff.c"
 Parameters:    Size  Location     Type
  dst             2   13[COMRAM] PTR void 
		 -> FatFs.win(512), File.buf(512), File(1092), FatFs(561), 
		 -> Buff(512), f_rename@djn(44), f_rename@buf(32), f_mkdir@dj(44), 
		 -> f_open@dj(44), dir_register@sn(12), NULL(0), 
  src             2   15[COMRAM] PTR const void 
		 -> djn.fn(12), FatFs.win(512), File.buf(512), File(1092), 
		 -> FatFs(561), Buff(512), f_rename@djn(44), f_rename@buf(32), 
		 -> f_rename@djo(44), dj.fn(12), f_mkdir@dj(44), dj.fn(12), 
		 -> f_open@dj(44), dir_register@sn(12), NULL(0), 
  cnt             2   17[COMRAM] unsigned int 
 Auto vars:     Size  Location     Type
  s               2   21[COMRAM] PTR const unsigned char 
		 -> djn.fn(12), FatFs.win(512), File.buf(512), File(1092), 
		 -> FatFs(561), Buff(512), f_rename@djn(44), f_rename@buf(32), 
		 -> f_rename@djo(44), dj.fn(12), f_mkdir@dj(44), dj.fn(12), 
		 -> f_open@dj(44), dir_register@sn(12), NULL(0), 
  d               2   19[COMRAM] PTR unsigned char 
		 -> FatFs.win(512), File.buf(512), File(1092), FatFs(561), 
		 -> Buff(512), f_rename@djn(44), f_rename@buf(32), f_mkdir@dj(44), 
		 -> f_open@dj(44), dir_register@sn(12), NULL(0), 
 Return value:  Size  Location     Type
                  1    wreg      void 
 Registers used:
		wreg, fsr0l, fsr0h, fsr2l, fsr2h, status,2, status,0
 Tracked objects:
		On entry : 
		On exit  : 
		Unchanged: 
 Data sizes:     COMRAM   BANK0   BANK1   BANK2   BANK3   BANK4   BANK5   BANK6   BANK7   BANK8   BANK9  BANK10  BANK11  BANK12  BANK13  BANK14  BANK15
      Params:         6       0       0       0       0       0       0       0       0       0       0       0       0       0       0       0       0
      Locals:         4       0       0       0       0       0       0       0       0       0       0       0       0       0       0       0       0
      Temps:          0       0       0       0       0       0       0       0       0       0       0       0       0       0       0       0       0
      Totals:        10       0       0       0       0       0       0       0       0       0       0       0       0       0       0       0       0
Total ram usage:       10 bytes
 Hardware stack levels used:    1
 Hardware stack levels required when called:    3
 This function calls:
		Nothing
 This function is called by:
		_gen_numname
		_dir_register
		_f_read
		_f_write
		_f_mkdir
		_f_rename
 This function uses a non-reentrant model


 *************** function _dir_alloc *****************
 Defined at:
		line 1794 in file "ff.c"
 Parameters:    Size  Location     Type
  dp              2   92[BANK1 ] PTR struct .
		 -> f_rename@djn(44), f_mkdir@dj(44), f_open@dj(44), 
  nent            2   94[BANK1 ] unsigned int 
 Auto vars:     Size  Location     Type
  n               2   98[BANK1 ] unsigned int 
  fs              2   96[BANK1 ] PTR struct .
		 -> FatFs(561), NULL(0), 
  res             1  100[BANK1 ] enum E69
 Return value:  Size  Location     Type
                  1    wreg      enum E69
 Registers used:
		wreg, fsr0l, fsr0h, fsr2l, fsr2h, status,2, status,0, tblptrl, tblptrh, tblptru, cstack
 Tracked objects:
		On entry : 
		On exit  : 
		Unchanged: 
 Data sizes:     COMRAM   BANK0   BANK1   BANK2   BANK3   BANK4   BANK5   BANK6   BANK7   BANK8   BANK9  BANK10  BANK11  BANK12  BANK13  BANK14  BANK15
      Params:         0       0       4       0       0       0       0       0       0       0       0       0       0       0       0       0       0
      Locals:         0       0       5       0       0       0       0       0       0       0       0       0       0       0       0       0       0
      Temps:          0       3       0       0       0       0       0       0       0       0       0       0       0       0       0       0       0
      Totals:         0       3       9       0       0       0       0       0       0       0       0       0       0       0       0       0       0
Total ram usage:       12 bytes
 Hardware stack levels used:    1
 Hardware stack levels required when called:   14
 This function calls:
		_dir_next
		_dir_sdi
		_move_window
 This function is called by:
		_dir_register
 This function uses a non-reentrant model


 *************** function _f_lseek *****************
 Defined at:
		line 4220 in file "ff.c"
 Parameters:    Size  Location     Type
  fp              2   62[BANK1 ] PTR struct .
		 -> File(1092), 
  ofs             4   64[BANK1 ] unsigned long 
 Auto vars:     Size  Location     Type
  clst            4   95[BANK1 ] unsigned long 
  bcs             4   89[BANK1 ] unsigned long 
  nsect           4   84[BANK1 ] unsigned long 
  ifptr           4   80[BANK1 ] unsigned long 
  fs              2   93[BANK1 ] PTR struct .
		 -> FatFs(561), NULL(0), 
  res             1   88[BANK1 ] enum E69
 Return value:  Size  Location     Type
                  1    wreg      enum E69
 Registers used:
		wreg, fsr0l, fsr0h, fsr2l, fsr2h, status,2, status,0, tblptrl, tblptrh, tblptru, cstack
 Tracked objects:
		On entry : 
		On exit  : 
		Unchanged: 
 Data sizes:     COMRAM   BANK0   BANK1   BANK2   BANK3   BANK4   BANK5   BANK6   BANK7   BANK8   BANK9  BANK10  BANK11  BANK12  BANK13  BANK14  BANK15
      Params:         0       0       6       0       0       0       0       0       0       0       0       0       0       0       0       0       0
      Locals:         0       0      19       0       0       0       0       0       0       0       0       0       0       0       0       0       0
      Temps:          0       0      12       0       0       0       0       0       0       0       0       0       0       0       0       0       0
      Totals:         0       0      37       0       0       0       0       0       0       0       0       0       0       0       0       0       0
Total ram usage:       37 bytes
 Hardware stack levels used:    1
 Hardware stack levels required when called:   13
 This function calls:
		___lldiv
		_clst2sect
		_create_chain
		_disk_read
		_disk_write
		_get_fat
		_validate
 This function is called by:
		_main
 This function uses a non-reentrant model


 *************** function _f_getfree *****************
 Defined at:
		line 4600 in file "ff.c"
 Parameters:    Size  Location     Type
  path            2   77[BANK1 ] PTR const unsigned char 
		 -> STR_29(1), Buff(512), Line(50), NULL(0), 
  nclst           2   79[BANK1 ] PTR unsigned long 
		 -> main@p2(4), main@p1(4), 
  fatfs           2   81[BANK1 ] PTR PTR struct .
		 -> main@fs(2), 
 Auto vars:     Size  Location     Type
  obj            14   91[BANK1 ] struct .
  clst            4  117[BANK1 ] unsigned long 
  stat            4  113[BANK1 ] unsigned long 
  nfree           4  109[BANK1 ] unsigned long 
  sect            4  105[BANK1 ] unsigned long 
  fs              2  124[BANK1 ] PTR struct .
		 -> FatFs(561), NULL(0), 
  i               2  121[BANK1 ] unsigned int 
  res             1  123[BANK1 ] enum E69
 Return value:  Size  Location     Type
                  1    wreg      enum E69
 Registers used:
		wreg, fsr0l, fsr0h, fsr2l, fsr2h, status,2, status,0, tblptrl, tblptrh, tblptru, cstack
 Tracked objects:
		On entry : 
		On exit  : 
		Unchanged: 
 Data sizes:     COMRAM   BANK0   BANK1   BANK2   BANK3   BANK4   BANK5   BANK6   BANK7   BANK8   BANK9  BANK10  BANK11  BANK12  BANK13  BANK14  BANK15
      Params:         0       0       6       0       0       0       0       0       0       0       0       0       0       0       0       0       0
      Locals:         0       0      35       0       0       0       0       0       0       0       0       0       0       0       0       0       0
      Temps:          0       0       8       0       0       0       0       0       0       0       0       0       0       0       0       0       0
      Totals:         0       0      49       0       0       0       0       0       0       0       0       0       0       0       0       0       0
Total ram usage:       49 bytes
 Hardware stack levels used:    1
 Hardware stack levels required when called:   13
 This function calls:
		_find_volume
		_get_fat
		_ld_dword
		_ld_word
		_move_window
 This function is called by:
		_main
 This function uses a non-reentrant model


 *************** function _f_close *****************
 Defined at:
		line 4033 in file "ff.c"
 Parameters:    Size  Location     Type
  fp              2   34[BANK1 ] PTR struct .
		 -> File(1092), 
 Auto vars:     Size  Location     Type
  fs              2   36[BANK1 ] PTR struct .
		 -> FatFs(561), NULL(0), 
  res             1   38[BANK1 ] enum E69
 Return value:  Size  Location     Type
                  1    wreg      enum E69
 Registers used:
		wreg, fsr0l, fsr0h, fsr2l, fsr2h, status,2, status,0, tblptrl, tblptrh, tblptru, prodl, prodh, cstack
 Tracked objects:
		On entry : 
		On exit  : 
		Unchanged: 
 Data sizes:     COMRAM   BANK0   BANK1   BANK2   BANK3   BANK4   BANK5   BANK6   BANK7   BANK8   BANK9  BANK10  BANK11  BANK12  BANK13  BANK14  BANK15
      Params:         0       0       2       0       0       0       0       0       0       0       0       0       0       0       0       0       0
      Locals:         0       0       3       0       0       0       0       0       0       0       0       0       0       0       0       0       0
      Temps:          0       0       0       0       0       0       0       0       0       0       0       0       0       0       0       0       0
      Totals:         0       0       5       0       0       0       0       0       0       0       0       0       0       0       0       0       0
Total ram usage:        5 bytes
 Hardware stack levels used:    1
 Hardware stack levels required when called:   12
 This function calls:
		_f_sync
		_validate
 This function is called by:
		_main
 This function uses a non-reentrant model


 *************** function _f_sync *****************
 Defined at:
		line 3952 in file "ff.c"
 Parameters:    Size  Location     Type
  fp              2  156[BANK0 ] PTR struct .
		 -> File(1092), 
 Auto vars:     Size  Location     Type
  tm              4   25[BANK1 ] unsigned long 
  fs              2   32[BANK1 ] PTR struct .
		 -> FatFs(561), NULL(0), 
  dir             2   30[BANK1 ] PTR unsigned char 
		 -> FatFs(561), NULL(0), 
  res             1   29[BANK1 ] enum E69
 Return value:  Size  Location     Type
                  1    wreg      enum E69
 Registers used:
		wreg, fsr0l, fsr0h, fsr2l, fsr2h, status,2, status,0, tblptrl, tblptrh, tblptru, prodl, prodh, cstack
 Tracked objects:
		On entry : 
		On exit  : 
		Unchanged: 
 Data sizes:     COMRAM   BANK0   BANK1   BANK2   BANK3   BANK4   BANK5   BANK6   BANK7   BANK8   BANK9  BANK10  BANK11  BANK12  BANK13  BANK14  BANK15
      Params:         0       2       0       0       0       0       0       0       0       0       0       0       0       0       0       0       0
      Locals:         0       0       9       0       0       0       0       0       0       0       0       0       0       0       0       0       0
      Temps:          0       0       0       0       0       0       0       0       0       0       0       0       0       0       0       0       0
      Totals:         0       2       9       0       0       0       0       0       0       0       0       0       0       0       0       0       0
Total ram usage:       11 bytes
 Hardware stack levels used:    1
 Hardware stack levels required when called:   11
 This function calls:
		_disk_write
		_get_fattime
		_move_window
		_st_clust
		_st_dword
		_st_word
		_sync_fs
		_validate
 This function is called by:
		_f_close
 This function uses a non-reentrant model


 *************** function _sync_fs *****************
 Defined at:
		line 1086 in file "ff.c"
 Parameters:    Size  Location     Type
  fs              2  146[BANK0 ] PTR struct .
		 -> FatFs(561), NULL(0), 
 Auto vars:     Size  Location     Type
  res             1   57[COMRAM] enum E69
 Return value:  Size  Location     Type
                  1    wreg      enum E69
 Registers used:
		wreg, fsr0l, fsr0h, fsr2l, fsr2h, status,2, status,0, tblptrl, tblptrh, tblptru, prodl, prodh, cstack
 Tracked objects:
		On entry : 
		On exit  : 
		Unchanged: 
 Data sizes:     COMRAM   BANK0   BANK1   BANK2   BANK3   BANK4   BANK5   BANK6   BANK7   BANK8   BANK9  BANK10  BANK11  BANK12  BANK13  BANK14  BANK15
      Params:         0       2       0       0       0       0       0       0       0       0       0       0       0       0       0       0       0
      Locals:         1       0       0       0       0       0       0       0       0       0       0       0       0       0       0       0       0
      Temps:          0       8       0       0       0       0       0       0       0       0       0       0       0       0       0       0       0
      Totals:         1      10       0       0       0       0       0       0       0       0       0       0       0       0       0       0       0
Total ram usage:       11 bytes
 Hardware stack levels used:    1
 Hardware stack levels required when called:   10
 This function calls:
		_disk_ioctl
		_disk_write
		_mem_set
		_st_dword
		_st_word
		_sync_window
 This function is called by:
		_f_sync
		_f_unlink
		_f_mkdir
		_f_rename
 This function uses a non-reentrant model


 *************** function _disk_ioctl *****************
 Defined at:
		line 448 in file "diskio.c"
 Parameters:    Size  Location     Type
  pdrv            1    wreg     unsigned char 
  cmd             1  120[BANK0 ] unsigned char 
  buff            2  121[BANK0 ] PTR void 
		 -> Buff(512), main@b(1), main@p2(4), NULL(0), 
 Auto vars:     Size  Location     Type
  pdrv            1    0[BANK1 ] unsigned char 
  csd            16    1[BANK1 ] unsigned char [16]
  csize           4   17[BANK1 ] unsigned long 
  ptr             2   23[BANK1 ] PTR unsigned char 
		 -> Buff(512), main@b(1), main@p2(4), NULL(0), 
  n               1   22[BANK1 ] unsigned char 
  res             1   21[BANK1 ] enum E11
 Return value:  Size  Location     Type
                  1    wreg      enum E11
 Registers used:
		wreg, fsr2l, fsr2h, status,2, status,0, prodl, prodh, cstack
 Tracked objects:
		On entry : 
		On exit  : 
		Unchanged: 
 Data sizes:     COMRAM   BANK0   BANK1   BANK2   BANK3   BANK4   BANK5   BANK6   BANK7   BANK8   BANK9  BANK10  BANK11  BANK12  BANK13  BANK14  BANK15
      Params:         0       3       0       0       0       0       0       0       0       0       0       0       0       0       0       0       0
      Locals:         0       0      25       0       0       0       0       0       0       0       0       0       0       0       0       0       0
      Temps:          0      13       0       0       0       0       0       0       0       0       0       0       0       0       0       0       0
      Totals:         0      16      25       0       0       0       0       0       0       0       0       0       0       0       0       0       0
Total ram usage:       41 bytes
 Hardware stack levels used:    1
 Hardware stack levels required when called:    8
 This function calls:
		_SPI1_Exchange8bit
		___wmul
		_deselect
		_rcvr_datablock
		_select
		_send_cmd
 This function is called by:
		_sync_fs
		_main
 This function uses a non-reentrant model


 *************** function _st_clust *****************
 Defined at:
		line 1855 in file "ff.c"
 Parameters:    Size  Location     Type
  fs              2   17[COMRAM] PTR struct .
		 -> FatFs(561), NULL(0), 
  dir             2   19[COMRAM] PTR unsigned char 
		 -> FatFs.win(512), FatFs(561), NULL(0), 
  cl              4   21[COMRAM] unsigned long 
 Auto vars:     Size  Location     Type
		None
 Return value:  Size  Location     Type
                  1    wreg      void 
 Registers used:
		wreg, fsr2l, fsr2h, status,2, status,0, cstack
 Tracked objects:
		On entry : 
		On exit  : 
		Unchanged: 
 Data sizes:     COMRAM   BANK0   BANK1   BANK2   BANK3   BANK4   BANK5   BANK6   BANK7   BANK8   BANK9  BANK10  BANK11  BANK12  BANK13  BANK14  BANK15
      Params:         8       0       0       0       0       0       0       0       0       0       0       0       0       0       0       0       0
      Locals:         0       0       0       0       0       0       0       0       0       0       0       0       0       0       0       0       0
      Temps:          1       0       0       0       0       0       0       0       0       0       0       0       0       0       0       0       0
      Totals:         9       0       0       0       0       0       0       0       0       0       0       0       0       0       0       0       0
Total ram usage:        9 bytes
 Hardware stack levels used:    1
 Hardware stack levels required when called:    4
 This function calls:
		_st_word
 This function is called by:
		_f_open
		_f_sync
		_f_mkdir
		_f_rename
 This function uses a non-reentrant model


 *************** function _get_fattime *****************
 Defined at:
		line 116 in file "main.c"
 Parameters:    Size  Location     Type
		None
 Auto vars:     Size  Location     Type
  tmr             4   53[COMRAM] unsigned long 
 Return value:  Size  Location     Type
                  4   13[COMRAM] unsigned long 
 Registers used:
		wreg, status,2, status,0
 Tracked objects:
		On entry : 
		On exit  : 
		Unchanged: 
 Data sizes:     COMRAM   BANK0   BANK1   BANK2   BANK3   BANK4   BANK5   BANK6   BANK7   BANK8   BANK9  BANK10  BANK11  BANK12  BANK13  BANK14  BANK15
      Params:         4       0       0       0       0       0       0       0       0       0       0       0       0       0       0       0       0
      Locals:         4       0       0       0       0       0       0       0       0       0       0       0       0       0       0       0       0
      Temps:         36       0       0       0       0       0       0       0       0       0       0       0       0       0       0       0       0
      Totals:        44       0       0       0       0       0       0       0       0       0       0       0       0       0       0       0       0
Total ram usage:       44 bytes
 Hardware stack levels used:    1
 Hardware stack levels required when called:    3
 This function calls:
		Nothing
 This function is called by:
		_f_open
		_f_sync
		_f_mkdir
 This function uses a non-reentrant model


 *************** function ___aldiv *****************
 Defined at:
		line 8 in file "C:\Program Files (x86)\Microchip\xc8\v1.45\sources\common\aldiv.c"
 Parameters:    Size  Location     Type
  dividend        4   13[COMRAM] long 
  divisor         4   17[COMRAM] long 
 Auto vars:     Size  Location     Type
  quotient        4   23[COMRAM] long 
  sign            1   22[COMRAM] unsigned char 
  counter         1   21[COMRAM] unsigned char 
 Return value:  Size  Location     Type
                  4   13[COMRAM] long 
 Registers used:
		wreg, status,2, status,0
 Tracked objects:
		On entry : 
		On exit  : 
		Unchanged: 
 Data sizes:     COMRAM   BANK0   BANK1   BANK2   BANK3   BANK4   BANK5   BANK6   BANK7   BANK8   BANK9  BANK10  BANK11  BANK12  BANK13  BANK14  BANK15
      Params:         8       0       0       0       0       0       0       0       0       0       0       0       0       0       0       0       0
      Locals:         6       0       0       0       0       0       0       0       0       0       0       0       0       0       0       0       0
      Temps:          0       0       0       0       0       0       0       0       0       0       0       0       0       0       0       0       0
      Totals:        14       0       0       0       0       0       0       0       0       0       0       0       0       0       0       0       0
Total ram usage:       14 bytes
 Hardware stack levels used:    1
 Hardware stack levels required when called:    3
 This function calls:
		Nothing
 This function is called by:
		_main
 This function uses a non-reentrant model


 *************** function _SYSTEM_Initialize *****************
 Defined at:
		line 112 in file "mcc_generated_files/mcc.c"
 Parameters:    Size  Location     Type
		None
 Auto vars:     Size  Location     Type
		None
 Return value:  Size  Location     Type
                  1    wreg      void 
 Registers used:
		wreg, status,2, status,0, cstack
 Tracked objects:
		On entry : 
		On exit  : 
		Unchanged: 
 Data sizes:     COMRAM   BANK0   BANK1   BANK2   BANK3   BANK4   BANK5   BANK6   BANK7   BANK8   BANK9  BANK10  BANK11  BANK12  BANK13  BANK14  BANK15
      Params:         0       0       0       0       0       0       0       0       0       0       0       0       0       0       0       0       0
      Locals:         0       0       0       0       0       0       0       0       0       0       0       0       0       0       0       0       0
      Temps:          0       0       0       0       0       0       0       0       0       0       0       0       0       0       0       0       0
      Totals:         0       0       0       0       0       0       0       0       0       0       0       0       0       0       0       0       0
Total ram usage:        0 bytes
 Hardware stack levels used:    1
 Hardware stack levels required when called:    5
 This function calls:
		_EUSART1_Initialize
		_INTERRUPT_Initialize
		_OSCILLATOR_Initialize
		_PIN_MANAGER_Initialize
		_SPI1_Initialize
		_TMR1_Initialize
 This function is called by:
		_main
 This function uses a non-reentrant model


 *************** function _TMR1_Initialize *****************
 Defined at:
		line 63 in file "mcc_generated_files/tmr1.c"
 Parameters:    Size  Location     Type
		None
 Auto vars:     Size  Location     Type
		None
 Return value:  Size  Location     Type
                  1    wreg      void 
 Registers used:
		wreg, status,2, status,0, cstack
 Tracked objects:
		On entry : 
		On exit  : 
		Unchanged: 
 Data sizes:     COMRAM   BANK0   BANK1   BANK2   BANK3   BANK4   BANK5   BANK6   BANK7   BANK8   BANK9  BANK10  BANK11  BANK12  BANK13  BANK14  BANK15
      Params:         0       0       0       0       0       0       0       0       0       0       0       0       0       0       0       0       0
      Locals:         0       0       0       0       0       0       0       0       0       0       0       0       0       0       0       0       0
      Temps:          0       0       0       0       0       0       0       0       0       0       0       0       0       0       0       0       0
      Totals:         0       0       0       0       0       0       0       0       0       0       0       0       0       0       0       0       0
Total ram usage:        0 bytes
 Hardware stack levels used:    1
 Hardware stack levels required when called:    4
 This function calls:
		_TMR1_SetInterruptHandler
 This function is called by:
		_SYSTEM_Initialize
 This function uses a non-reentrant model


 *************** function _TMR1_SetInterruptHandler *****************
 Defined at:
		line 171 in file "mcc_generated_files/tmr1.c"
 Parameters:    Size  Location     Type
  InterruptHan    2   13[COMRAM] PTR FTN()void 
		 -> softRTC(1), TMR1_DefaultInterruptHandler(1), 
 Auto vars:     Size  Location     Type
		None
 Return value:  Size  Location     Type
                  1    wreg      void 
 Registers used:
		wreg, status,2, status,0
 Tracked objects:
		On entry : 
		On exit  : 
		Unchanged: 
 Data sizes:     COMRAM   BANK0   BANK1   BANK2   BANK3   BANK4   BANK5   BANK6   BANK7   BANK8   BANK9  BANK10  BANK11  BANK12  BANK13  BANK14  BANK15
      Params:         2       0       0       0       0       0       0       0       0       0       0       0       0       0       0       0       0
      Locals:         0       0       0       0       0       0       0       0       0       0       0       0       0       0       0       0       0
      Temps:          0       0       0       0       0       0       0       0       0       0       0       0       0       0       0       0       0
      Totals:         2       0       0       0       0       0       0       0       0       0       0       0       0       0       0       0       0
Total ram usage:        2 bytes
 Hardware stack levels used:    1
 Hardware stack levels required when called:    3
 This function calls:
		Nothing
 This function is called by:
		_TMR1_Initialize
		_main
 This function uses a non-reentrant model


 *************** function _PIN_MANAGER_Initialize *****************
 Defined at:
		line 52 in file "mcc_generated_files/pin_manager.c"
 Parameters:    Size  Location     Type
		None
 Auto vars:     Size  Location     Type
		None
 Return value:  Size  Location     Type
                  1    wreg      void 
 Registers used:
		wreg, status,2
 Tracked objects:
		On entry : 
		On exit  : 
		Unchanged: 
 Data sizes:     COMRAM   BANK0   BANK1   BANK2   BANK3   BANK4   BANK5   BANK6   BANK7   BANK8   BANK9  BANK10  BANK11  BANK12  BANK13  BANK14  BANK15
      Params:         0       0       0       0       0       0       0       0       0       0       0       0       0       0       0       0       0
      Locals:         0       0       0       0       0       0       0       0       0       0       0       0       0       0       0       0       0
      Temps:          0       0       0       0       0       0       0       0       0       0       0       0       0       0       0       0       0
      Totals:         0       0       0       0       0       0       0       0       0       0       0       0       0       0       0       0       0
Total ram usage:        0 bytes
 Hardware stack levels used:    1
 Hardware stack levels required when called:    3
 This function calls:
		Nothing
 This function is called by:
		_SYSTEM_Initialize
 This function uses a non-reentrant model


 *************** function _OSCILLATOR_Initialize *****************
 Defined at:
		line 122 in file "mcc_generated_files/mcc.c"
 Parameters:    Size  Location     Type
		None
 Auto vars:     Size  Location     Type
		None
 Return value:  Size  Location     Type
                  1    wreg      void 
 Registers used:
		wreg, status,2
 Tracked objects:
		On entry : 
		On exit  : 
		Unchanged: 
 Data sizes:     COMRAM   BANK0   BANK1   BANK2   BANK3   BANK4   BANK5   BANK6   BANK7   BANK8   BANK9  BANK10  BANK11  BANK12  BANK13  BANK14  BANK15
      Params:         0       0       0       0       0       0       0       0       0       0       0       0       0       0       0       0       0
      Locals:         0       0       0       0       0       0       0       0       0       0       0       0       0       0       0       0       0
      Temps:          0       0       0       0       0       0       0       0       0       0       0       0       0       0       0       0       0
      Totals:         0       0       0       0       0       0       0       0       0       0       0       0       0       0       0       0       0
Total ram usage:        0 bytes
 Hardware stack levels used:    1
 Hardware stack levels required when called:    3
 This function calls:
		Nothing
 This function is called by:
		_SYSTEM_Initialize
 This function uses a non-reentrant model


 *************** function _INTERRUPT_Initialize *****************
 Defined at:
		line 51 in file "mcc_generated_files/interrupt_manager.c"
 Parameters:    Size  Location     Type
		None
 Auto vars:     Size  Location     Type
		None
 Return value:  Size  Location     Type
                  1    wreg      void 
 Registers used:
		None
 Tracked objects:
		On entry : 
		On exit  : 
		Unchanged: 
 Data sizes:     COMRAM   BANK0   BANK1   BANK2   BANK3   BANK4   BANK5   BANK6   BANK7   BANK8   BANK9  BANK10  BANK11  BANK12  BANK13  BANK14  BANK15
      Params:         0       0       0       0       0       0       0       0       0       0       0       0       0       0       0       0       0
      Locals:         0       0       0       0       0       0       0       0       0       0       0       0       0       0       0       0       0
      Temps:          0       0       0       0       0       0       0       0       0       0       0       0       0       0       0       0       0
      Totals:         0       0       0       0       0       0       0       0       0       0       0       0       0       0       0       0       0
Total ram usage:        0 bytes
 Hardware stack levels used:    1
 Hardware stack levels required when called:    3
 This function calls:
		Nothing
 This function is called by:
		_SYSTEM_Initialize
 This function uses a non-reentrant model


 *************** function _EUSART1_Initialize *****************
 Defined at:
		line 53 in file "mcc_generated_files/eusart1.c"
 Parameters:    Size  Location     Type
		None
 Auto vars:     Size  Location     Type
		None
 Return value:  Size  Location     Type
                  1    wreg      void 
 Registers used:
		wreg, status,2
 Tracked objects:
		On entry : 
		On exit  : 
		Unchanged: 
 Data sizes:     COMRAM   BANK0   BANK1   BANK2   BANK3   BANK4   BANK5   BANK6   BANK7   BANK8   BANK9  BANK10  BANK11  BANK12  BANK13  BANK14  BANK15
      Params:         0       0       0       0       0       0       0       0       0       0       0       0       0       0       0       0       0
      Locals:         0       0       0       0       0       0       0       0       0       0       0       0       0       0       0       0       0
      Temps:          0       0       0       0       0       0       0       0       0       0       0       0       0       0       0       0       0
      Totals:         0       0       0       0       0       0       0       0       0       0       0       0       0       0       0       0       0
Total ram usage:        0 bytes
 Hardware stack levels used:    1
 Hardware stack levels required when called:    3
 This function calls:
		Nothing
 This function is called by:
		_SYSTEM_Initialize
 This function uses a non-reentrant model


 *************** function _wait_ready *****************
 Defined at:
		line 74 in file "diskio.c"
 Parameters:    Size  Location     Type
		None
 Auto vars:     Size  Location     Type
  tmr             2   35[COMRAM] unsigned int 
 Return value:  Size  Location     Type
                  1    wreg      unsigned char 
 Registers used:
		wreg, status,2, status,0, cstack
 Tracked objects:
		On entry : 
		On exit  : 
		Unchanged: 
 Data sizes:     COMRAM   BANK0   BANK1   BANK2   BANK3   BANK4   BANK5   BANK6   BANK7   BANK8   BANK9  BANK10  BANK11  BANK12  BANK13  BANK14  BANK15
      Params:         0       0       0       0       0       0       0       0       0       0       0       0       0       0       0       0       0
      Locals:         4       0       0       0       0       0       0       0       0       0       0       0       0       0       0       0       0
      Temps:          0       0       0       0       0       0       0       0       0       0       0       0       0       0       0       0       0
      Totals:         4       0       0       0       0       0       0       0       0       0       0       0       0       0       0       0       0
Total ram usage:        4 bytes
 Hardware stack levels used:    1
 Hardware stack levels required when called:    4
 This function calls:
		_SPI1_Exchange8bit
 This function is called by:
		_select
		_xmit_datablock
 This function uses a non-reentrant model


 *************** function _xmit_datablock *****************
 Defined at:
		line 157 in file "diskio.c"
 Parameters:    Size  Location     Type
  buff            3   37[COMRAM] PTR const unsigned char 
		 -> FatFs.win(512), File.buf(512), File(1092), FatFs(561), 
		 -> Buff(512), NULL(0), ROM(65535), 
  token           1   40[COMRAM] unsigned char 
 Auto vars:     Size  Location     Type
  i               2   44[COMRAM] unsigned short 
  resp            1   46[COMRAM] unsigned char 
 Return value:  Size  Location     Type
                  1    wreg      unsigned char 
 Registers used:
		wreg, fsr0l, fsr0h, status,2, status,0, tblptrl, tblptrh, tblptru, cstack
 Tracked objects:
		On entry : 
		On exit  : 
		Unchanged: 
 Data sizes:     COMRAM   BANK0   BANK1   BANK2   BANK3   BANK4   BANK5   BANK6   BANK7   BANK8   BANK9  BANK10  BANK11  BANK12  BANK13  BANK14  BANK15
      Params:         4       0       0       0       0       0       0       0       0       0       0       0       0       0       0       0       0
      Locals:         6       0       0       0       0       0       0       0       0       0       0       0       0       0       0       0       0
      Temps:          0       0       0       0       0       0       0       0       0       0       0       0       0       0       0       0       0
      Totals:        10       0       0       0       0       0       0       0       0       0       0       0       0       0       0       0       0
Total ram usage:       10 bytes
 Hardware stack levels used:    1
 Hardware stack levels required when called:    5
 This function calls:
		_SPI1_Exchange8bit
		_wait_ready
 This function is called by:
		_disk_write
 This function uses a non-reentrant model


 *************** function ___send_cmd *****************
 Defined at:
		line 196 in file "diskio.c"
 Parameters:    Size  Location     Type
  cmd             1    wreg     unsigned char 
  arg             4   37[COMRAM] unsigned long 
 Auto vars:     Size  Location     Type
  cmd             1   46[COMRAM] unsigned char 
  n               1   45[COMRAM] unsigned char 
  res             1   44[COMRAM] unsigned char 
 Return value:  Size  Location     Type
                  1    wreg      unsigned char 
 Registers used:
		wreg, status,2, status,0, cstack
 Tracked objects:
		On entry : 
		On exit  : 
		Unchanged: 
 Data sizes:     COMRAM   BANK0   BANK1   BANK2   BANK3   BANK4   BANK5   BANK6   BANK7   BANK8   BANK9  BANK10  BANK11  BANK12  BANK13  BANK14  BANK15
      Params:         4       0       0       0       0       0       0       0       0       0       0       0       0       0       0       0       0
      Locals:         6       0       0       0       0       0       0       0       0       0       0       0       0       0       0       0       0
      Temps:          0       0       0       0       0       0       0       0       0       0       0       0       0       0       0       0       0
      Totals:        10       0       0       0       0       0       0       0       0       0       0       0       0       0       0       0       0
Total ram usage:       10 bytes
 Hardware stack levels used:    1
 Hardware stack levels required when called:    6
 This function calls:
		_SPI1_Exchange8bit
		_deselect
		_select
 This function is called by:
		_send_cmd
 This function uses a non-reentrant model


 *************** function _select *****************
 Defined at:
		line 107 in file "diskio.c"
 Parameters:    Size  Location     Type
		None
 Auto vars:     Size  Location     Type
		None
 Return value:  Size  Location     Type
                  1    wreg      unsigned char 
 Registers used:
		wreg, status,2, status,0, cstack
 Tracked objects:
		On entry : 
		On exit  : 
		Unchanged: 
 Data sizes:     COMRAM   BANK0   BANK1   BANK2   BANK3   BANK4   BANK5   BANK6   BANK7   BANK8   BANK9  BANK10  BANK11  BANK12  BANK13  BANK14  BANK15
      Params:         0       0       0       0       0       0       0       0       0       0       0       0       0       0       0       0       0
      Locals:         0       0       0       0       0       0       0       0       0       0       0       0       0       0       0       0       0
      Temps:          0       0       0       0       0       0       0       0       0       0       0       0       0       0       0       0       0
      Totals:         0       0       0       0       0       0       0       0       0       0       0       0       0       0       0       0       0
Total ram usage:        0 bytes
 Hardware stack levels used:    1
 Hardware stack levels required when called:    5
 This function calls:
		_SPI1_Exchange8bit
		_deselect
		_wait_ready
 This function is called by:
		___send_cmd
		_disk_ioctl
 This function uses a non-reentrant model


 *************** function _disk_status *****************
 Defined at:
		line 358 in file "diskio.c"
 Parameters:    Size  Location     Type
  pdrv            1    wreg     unsigned char 
 Auto vars:     Size  Location     Type
  pdrv            1   14[COMRAM] unsigned char 
 Return value:  Size  Location     Type
                  1    wreg      unsigned char 
 Registers used:
		wreg, status,2
 Tracked objects:
		On entry : 
		On exit  : 
		Unchanged: 
 Data sizes:     COMRAM   BANK0   BANK1   BANK2   BANK3   BANK4   BANK5   BANK6   BANK7   BANK8   BANK9  BANK10  BANK11  BANK12  BANK13  BANK14  BANK15
      Params:         0       0       0       0       0       0       0       0       0       0       0       0       0       0       0       0       0
      Locals:         2       0       0       0       0       0       0       0       0       0       0       0       0       0       0       0       0
      Temps:          0       0       0       0       0       0       0       0       0       0       0       0       0       0       0       0       0
      Totals:         2       0       0       0       0       0       0       0       0       0       0       0       0       0       0       0       0
Total ram usage:        2 bytes
 Hardware stack levels used:    1
 Hardware stack levels required when called:    3
 This function calls:
		Nothing
 This function is called by:
		_find_volume
		_validate
 This function uses a non-reentrant model


 *************** function _mem_cmp *****************
 Defined at:
		line 673 in file "ff.c"
 Parameters:    Size  Location     Type
  dst             2   13[COMRAM] PTR const void 
		 -> FatFs.win(512), FatFs(561), NULL(0), 
  src             2   15[COMRAM] PTR const void 
		 -> djn.fn(12), dir.fn(12), dir.fn(12), main@dir(44), 
		 -> dir(44), f_rename@djn(44), djo.fn(12), f_rename@djo(44), 
		 -> dj.fn(12), f_mkdir@dj(44), dj.fn(12), f_unlink@dj(44), 
		 -> dj.fn(12), f_stat@dj(44), dj.fn(12), f_open@dj(44), 
		 -> STR_4(6), STR_3(4), 
  cnt             2   17[COMRAM] unsigned int 
 Auto vars:     Size  Location     Type
  r               2   30[COMRAM] int 
  s               2   28[COMRAM] PTR const unsigned char 
		 -> djn.fn(12), dir.fn(12), dir.fn(12), main@dir(44), 
		 -> dir(44), f_rename@djn(44), djo.fn(12), f_rename@djo(44), 
		 -> dj.fn(12), f_mkdir@dj(44), dj.fn(12), f_unlink@dj(44), 
		 -> dj.fn(12), f_stat@dj(44), dj.fn(12), f_open@dj(44), 
		 -> STR_4(6), STR_3(4), 
  d               2   26[COMRAM] PTR const unsigned char 
		 -> FatFs.win(512), FatFs(561), NULL(0), 
 Return value:  Size  Location     Type
                  2   13[COMRAM] int 
 Registers used:
		wreg, fsr0l, fsr0h, fsr2l, fsr2h, status,2, status,0, tblptrl, tblptrh, tblptru
 Tracked objects:
		On entry : 
		On exit  : 
		Unchanged: 
 Data sizes:     COMRAM   BANK0   BANK1   BANK2   BANK3   BANK4   BANK5   BANK6   BANK7   BANK8   BANK9  BANK10  BANK11  BANK12  BANK13  BANK14  BANK15
      Params:         6       0       0       0       0       0       0       0       0       0       0       0       0       0       0       0       0
      Locals:        12       0       0       0       0       0       0       0       0       0       0       0       0       0       0       0       0
      Temps:          1       0       0       0       0       0       0       0       0       0       0       0       0       0       0       0       0
      Totals:        19       0       0       0       0       0       0       0       0       0       0       0       0       0       0       0       0
Total ram usage:       19 bytes
 Hardware stack levels used:    1
 Hardware stack levels required when called:    3
 This function calls:
		Nothing
 This function is called by:
		_dir_find
		_check_fs
 This function uses a non-reentrant model


 *************** function _chk_chr *****************
 Defined at:
		line 688 in file "ff.c"
 Parameters:    Size  Location     Type
  str             2   13[COMRAM] PTR const unsigned char 
		 -> STR_2(7), STR_1(9), 
  chr             2   15[COMRAM] int 
 Auto vars:     Size  Location     Type
		None
 Return value:  Size  Location     Type
                  2   13[COMRAM] int 
 Registers used:
		wreg, status,2, status,0, tblptrl, tblptrh, tblptru
 Tracked objects:
		On entry : 
		On exit  : 
		Unchanged: 
 Data sizes:     COMRAM   BANK0   BANK1   BANK2   BANK3   BANK4   BANK5   BANK6   BANK7   BANK8   BANK9  BANK10  BANK11  BANK12  BANK13  BANK14  BANK15
      Params:         4       0       0       0       0       0       0       0       0       0       0       0       0       0       0       0       0
      Locals:         0       0       0       0       0       0       0       0       0       0       0       0       0       0       0       0       0
      Temps:          0       0       0       0       0       0       0       0       0       0       0       0       0       0       0       0       0
      Totals:         4       0       0       0       0       0       0       0       0       0       0       0       0       0       0       0       0
Total ram usage:        4 bytes
 Hardware stack levels used:    1
 Hardware stack levels required when called:    3
 This function calls:
		Nothing
 This function is called by:
		_create_name
 This function uses a non-reentrant model


 *************** function _dbc_2nd *****************
 Defined at:
		line 718 in file "ff.c"
 Parameters:    Size  Location     Type
  c               1    wreg     unsigned char 
 Auto vars:     Size  Location     Type
  c               1   16[COMRAM] unsigned char 
 Return value:  Size  Location     Type
                  2   13[COMRAM] int 
 Registers used:
		wreg, status,2
 Tracked objects:
		On entry : 
		On exit  : 
		Unchanged: 
 Data sizes:     COMRAM   BANK0   BANK1   BANK2   BANK3   BANK4   BANK5   BANK6   BANK7   BANK8   BANK9  BANK10  BANK11  BANK12  BANK13  BANK14  BANK15
      Params:         2       0       0       0       0       0       0       0       0       0       0       0       0       0       0       0       0
      Locals:         2       0       0       0       0       0       0       0       0       0       0       0       0       0       0       0       0
      Temps:          0       0       0       0       0       0       0       0       0       0       0       0       0       0       0       0       0
      Totals:         4       0       0       0       0       0       0       0       0       0       0       0       0       0       0       0       0
Total ram usage:        4 bytes
 Hardware stack levels used:    1
 Hardware stack levels required when called:    3
 This function calls:
		Nothing
 This function is called by:
		_tchar2uni
 This function uses a non-reentrant model


 *************** function _tchar2uni *****************
 Defined at:
		line 743 in file "ff.c"
 Parameters:    Size  Location     Type
  str             1   31[COMRAM] PTR PTR const unsigned c
		 -> create_name@p(2), 
 Auto vars:     Size  Location     Type
  uc              4   46[COMRAM] unsigned long 
  wc              2   53[COMRAM] unsigned short 
  p               2   51[COMRAM] PTR const unsigned char 
		 -> STR_29(1), Buff(512), Line(50), NULL(0), 
  b               1   50[COMRAM] unsigned char 
 Return value:  Size  Location     Type
                  4   31[COMRAM] unsigned long 
 Registers used:
		wreg, fsr0l, fsr0h, fsr2l, fsr2h, status,2, status,0, tblptrl, tblptrh, tblptru, cstack
 Tracked objects:
		On entry : 
		On exit  : 
		Unchanged: 
 Data sizes:     COMRAM   BANK0   BANK1   BANK2   BANK3   BANK4   BANK5   BANK6   BANK7   BANK8   BANK9  BANK10  BANK11  BANK12  BANK13  BANK14  BANK15
      Params:         4       0       0       0       0       0       0       0       0       0       0       0       0       0       0       0       0
      Locals:        18       0       0       0       0       0       0       0       0       0       0       0       0       0       0       0       0
      Temps:          2       0       0       0       0       0       0       0       0       0       0       0       0       0       0       0       0
      Totals:        24       0       0       0       0       0       0       0       0       0       0       0       0       0       0       0       0
Total ram usage:       24 bytes
 Hardware stack levels used:    1
 Hardware stack levels required when called:    4
 This function calls:
		_dbc_1st
		_dbc_2nd
		_ff_oem2uni
 This function is called by:
		_create_name
 This function uses a non-reentrant model


 *************** function _ff_oem2uni *****************
 Defined at:
		line 15273 in file "ffunicode.c"
 Parameters:    Size  Location     Type
  oem             2   13[COMRAM] unsigned short 
  cp              2   15[COMRAM] unsigned short 
 Auto vars:     Size  Location     Type
  c               2   29[COMRAM] unsigned short 
  p               2   27[COMRAM] PTR const unsigned short
		 -> uc857(256), 
 Return value:  Size  Location     Type
                  2   13[COMRAM] unsigned short 
 Registers used:
		wreg, status,2, status,0, tblptrl, tblptrh, tblptru
 Tracked objects:
		On entry : 
		On exit  : 
		Unchanged: 
 Data sizes:     COMRAM   BANK0   BANK1   BANK2   BANK3   BANK4   BANK5   BANK6   BANK7   BANK8   BANK9  BANK10  BANK11  BANK12  BANK13  BANK14  BANK15
      Params:         4       0       0       0       0       0       0       0       0       0       0       0       0       0       0       0       0
      Locals:         8       0       0       0       0       0       0       0       0       0       0       0       0       0       0       0       0
      Temps:          6       0       0       0       0       0       0       0       0       0       0       0       0       0       0       0       0
      Totals:        18       0       0       0       0       0       0       0       0       0       0       0       0       0       0       0       0
Total ram usage:       18 bytes
 Hardware stack levels used:    1
 Hardware stack levels required when called:    3
 This function calls:
		Nothing
 This function is called by:
		_tchar2uni
 This function uses a non-reentrant model


 *************** function _dbc_1st *****************
 Defined at:
		line 697 in file "ff.c"
 Parameters:    Size  Location     Type
  c               1    wreg     unsigned char 
 Auto vars:     Size  Location     Type
  c               1   15[COMRAM] unsigned char 
 Return value:  Size  Location     Type
                  2   13[COMRAM] int 
 Registers used:
		wreg, status,2
 Tracked objects:
		On entry : 
		On exit  : 
		Unchanged: 
 Data sizes:     COMRAM   BANK0   BANK1   BANK2   BANK3   BANK4   BANK5   BANK6   BANK7   BANK8   BANK9  BANK10  BANK11  BANK12  BANK13  BANK14  BANK15
      Params:         2       0       0       0       0       0       0       0       0       0       0       0       0       0       0       0       0
      Locals:         1       0       0       0       0       0       0       0       0       0       0       0       0       0       0       0       0
      Temps:          0       0       0       0       0       0       0       0       0       0       0       0       0       0       0       0       0
      Totals:         3       0       0       0       0       0       0       0       0       0       0       0       0       0       0       0       0
Total ram usage:        3 bytes
 Hardware stack levels used:    1
 Hardware stack levels required when called:    3
 This function calls:
		Nothing
 This function is called by:
		_tchar2uni
		_gen_numname
 This function uses a non-reentrant model


 *************** function _put_utf *****************
 Defined at:
		line 812 in file "ff.c"
 Parameters:    Size  Location     Type
  chr             4   31[COMRAM] unsigned long 
  buf             2   35[COMRAM] PTR unsigned char 
		 -> Finfo.fname(256), Finfo(278), F7699.fname(256), scan_files@fno(278), 
  szb             2   37[COMRAM] unsigned int 
 Auto vars:     Size  Location     Type
  wc              2   41[COMRAM] unsigned short 
 Return value:  Size  Location     Type
                  1    wreg      unsigned char 
 Registers used:
		wreg, fsr2l, fsr2h, status,2, status,0, tblptrl, tblptrh, tblptru, cstack
 Tracked objects:
		On entry : 
		On exit  : 
		Unchanged: 
 Data sizes:     COMRAM   BANK0   BANK1   BANK2   BANK3   BANK4   BANK5   BANK6   BANK7   BANK8   BANK9  BANK10  BANK11  BANK12  BANK13  BANK14  BANK15
      Params:         8       0       0       0       0       0       0       0       0       0       0       0       0       0       0       0       0
      Locals:         4       0       0       0       0       0       0       0       0       0       0       0       0       0       0       0       0
      Temps:          0       0       0       0       0       0       0       0       0       0       0       0       0       0       0       0       0
      Totals:        12       0       0       0       0       0       0       0       0       0       0       0       0       0       0       0       0
Total ram usage:       12 bytes
 Hardware stack levels used:    1
 Hardware stack levels required when called:    4
 This function calls:
		_ff_uni2oem
 This function is called by:
		_get_fileinfo
 This function uses a non-reentrant model


 *************** function _ff_uni2oem *****************
 Defined at:
		line 15251 in file "ffunicode.c"
 Parameters:    Size  Location     Type
  uni             4   13[COMRAM] unsigned long 
  cp              2   17[COMRAM] unsigned short 
 Auto vars:     Size  Location     Type
  c               2   29[COMRAM] unsigned short 
  p               2   27[COMRAM] PTR const unsigned short
		 -> uc857(256), 
 Return value:  Size  Location     Type
                  2   13[COMRAM] unsigned short 
 Registers used:
		wreg, status,2, status,0, tblptrl, tblptrh, tblptru
 Tracked objects:
		On entry : 
		On exit  : 
		Unchanged: 
 Data sizes:     COMRAM   BANK0   BANK1   BANK2   BANK3   BANK4   BANK5   BANK6   BANK7   BANK8   BANK9  BANK10  BANK11  BANK12  BANK13  BANK14  BANK15
      Params:         6       0       0       0       0       0       0       0       0       0       0       0       0       0       0       0       0
      Locals:         8       0       0       0       0       0       0       0       0       0       0       0       0       0       0       0       0
      Temps:          4       0       0       0       0       0       0       0       0       0       0       0       0       0       0       0       0
      Totals:        18       0       0       0       0       0       0       0       0       0       0       0       0       0       0       0       0
Total ram usage:       18 bytes
 Hardware stack levels used:    1
 Hardware stack levels required when called:    3
 This function calls:
		Nothing
 This function is called by:
		_put_utf
		_create_name
 This function uses a non-reentrant model


 *************** function _cmp_lfn *****************
 Defined at:
		line 1875 in file "ff.c"
 Parameters:    Size  Location     Type
  lfnbuf          2  125[BANK0 ] PTR const unsigned short
		 -> LfnBuf(202), 
  dir             2  127[BANK0 ] PTR unsigned char 
		 -> FatFs(561), NULL(0), 
 Auto vars:     Size  Location     Type
  s               2  151[BANK0 ] unsigned int 
  uc              2  149[BANK0 ] unsigned short 
  i               2  147[BANK0 ] unsigned int 
  wc              2  145[BANK0 ] unsigned short 
 Return value:  Size  Location     Type
                  2  125[BANK0 ] int 
 Registers used:
		wreg, fsr2l, fsr2h, status,2, status,0, tblptrl, tblptrh, tblptru, prodl, prodh, cstack
 Tracked objects:
		On entry : 
		On exit  : 
		Unchanged: 
 Data sizes:     COMRAM   BANK0   BANK1   BANK2   BANK3   BANK4   BANK5   BANK6   BANK7   BANK8   BANK9  BANK10  BANK11  BANK12  BANK13  BANK14  BANK15
      Params:         0       4       0       0       0       0       0       0       0       0       0       0       0       0       0       0       0
      Locals:         0      16       0       0       0       0       0       0       0       0       0       0       0       0       0       0       0
      Temps:          0       8       0       0       0       0       0       0       0       0       0       0       0       0       0       0       0
      Totals:         0      28       0       0       0       0       0       0       0       0       0       0       0       0       0       0       0
Total ram usage:       28 bytes
 Hardware stack levels used:    1
 Hardware stack levels required when called:    4
 This function calls:
		___wmul
		_ff_wtoupper
		_ld_word
 This function is called by:
		_dir_find
 This function uses a non-reentrant model


 *************** function _ff_wtoupper *****************
 Defined at:
		line 15495 in file "ffunicode.c"
 Parameters:    Size  Location     Type
  uni             4   13[COMRAM] unsigned long 
 Auto vars:     Size  Location     Type
  uc              2   39[COMRAM] unsigned short 
  bc              2   37[COMRAM] unsigned short 
  p               2   35[COMRAM] PTR const unsigned short
		 -> ff_wtoupper@cvt2(188), ff_wtoupper@cvt1(498), 
  nc              2   33[COMRAM] unsigned short 
  cmd             2   31[COMRAM] unsigned short 
 Return value:  Size  Location     Type
                  4   13[COMRAM] unsigned long 
 Registers used:
		wreg, status,2, status,0, tblptrl, tblptrh, tblptru
 Tracked objects:
		On entry : 
		On exit  : 
		Unchanged: 
 Data sizes:     COMRAM   BANK0   BANK1   BANK2   BANK3   BANK4   BANK5   BANK6   BANK7   BANK8   BANK9  BANK10  BANK11  BANK12  BANK13  BANK14  BANK15
      Params:         4       0       0       0       0       0       0       0       0       0       0       0       0       0       0       0       0
      Locals:        20       0       0       0       0       0       0       0       0       0       0       0       0       0       0       0       0
      Temps:          4       0       0       0       0       0       0       0       0       0       0       0       0       0       0       0       0
      Totals:        28       0       0       0       0       0       0       0       0       0       0       0       0       0       0       0       0
Total ram usage:       28 bytes
 Hardware stack levels used:    1
 Hardware stack levels required when called:    3
 This function calls:
		Nothing
 This function is called by:
		_cmp_lfn
 This function uses a non-reentrant model


 *************** function _pick_lfn *****************
 Defined at:
		line 1911 in file "ff.c"
 Parameters:    Size  Location     Type
  lfnbuf          2  125[BANK0 ] PTR unsigned short 
		 -> LfnBuf(202), 
  dir             2  127[BANK0 ] PTR unsigned char 
		 -> FatFs(561), NULL(0), 
 Auto vars:     Size  Location     Type
  i               2  144[BANK0 ] unsigned int 
  s               2  142[BANK0 ] unsigned int 
  uc              2  140[BANK0 ] unsigned short 
  wc              2  138[BANK0 ] unsigned short 
 Return value:  Size  Location     Type
                  2  125[BANK0 ] int 
 Registers used:
		wreg, fsr2l, fsr2h, status,2, status,0, tblptrl, tblptrh, tblptru, prodl, prodh, cstack
 Tracked objects:
		On entry : 
		On exit  : 
		Unchanged: 
 Data sizes:     COMRAM   BANK0   BANK1   BANK2   BANK3   BANK4   BANK5   BANK6   BANK7   BANK8   BANK9  BANK10  BANK11  BANK12  BANK13  BANK14  BANK15
      Params:         0       4       0       0       0       0       0       0       0       0       0       0       0       0       0       0       0
      Locals:         0      16       0       0       0       0       0       0       0       0       0       0       0       0       0       0       0
      Temps:          0       1       0       0       0       0       0       0       0       0       0       0       0       0       0       0       0
      Totals:         0      21       0       0       0       0       0       0       0       0       0       0       0       0       0       0       0
Total ram usage:       21 bytes
 Hardware stack levels used:    1
 Hardware stack levels required when called:    4
 This function calls:
		___wmul
		_ld_word
 This function is called by:
		_dir_read
 This function uses a non-reentrant model


 *************** function ___wmul *****************
 Defined at:
		line 15 in file "C:\Program Files (x86)\Microchip\xc8\v1.45\sources\common\Umul16.c"
 Parameters:    Size  Location     Type
  multiplier      2   13[COMRAM] unsigned int 
  multiplicand    2   15[COMRAM] unsigned int 
 Auto vars:     Size  Location     Type
  product         2   17[COMRAM] unsigned int 
 Return value:  Size  Location     Type
                  2   13[COMRAM] unsigned int 
 Registers used:
		wreg, status,2, status,0, prodl, prodh
 Tracked objects:
		On entry : 
		On exit  : 
		Unchanged: 
 Data sizes:     COMRAM   BANK0   BANK1   BANK2   BANK3   BANK4   BANK5   BANK6   BANK7   BANK8   BANK9  BANK10  BANK11  BANK12  BANK13  BANK14  BANK15
      Params:         4       0       0       0       0       0       0       0       0       0       0       0       0       0       0       0       0
      Locals:         2       0       0       0       0       0       0       0       0       0       0       0       0       0       0       0       0
      Temps:          0       0       0       0       0       0       0       0       0       0       0       0       0       0       0       0       0
      Totals:         6       0       0       0       0       0       0       0       0       0       0       0       0       0       0       0       0
Total ram usage:        6 bytes
 Hardware stack levels used:    1
 Hardware stack levels required when called:    3
 This function calls:
		Nothing
 This function is called by:
		_disk_ioctl
		_cmp_lfn
		_pick_lfn
		_put_lfn
		_xvprintf
 This function uses a non-reentrant model


 *************** function _get_fileinfo *****************
 Defined at:
		line 2663 in file "ff.c"
 Parameters:    Size  Location     Type
  dp              2  125[BANK0 ] PTR struct .
		 -> main@dir(44), dir(44), f_stat@dj(44), 
  fno             2  127[BANK0 ] PTR struct .
		 -> Finfo(278), scan_files@fno(278), 
 Auto vars:     Size  Location     Type
  di              2  157[BANK0 ] unsigned int 
  wc              2  155[BANK0 ] unsigned short 
  si              2  153[BANK0 ] unsigned int 
  hs              2  151[BANK0 ] unsigned short 
  fs              2  149[BANK0 ] PTR struct .
		 -> FatFs(561), NULL(0), 
 Return value:  Size  Location     Type
                  1    wreg      void 
 Registers used:
		wreg, fsr0l, fsr0h, fsr2l, fsr2h, status,2, status,0, tblptrl, tblptrh, tblptru, cstack
 Tracked objects:
		On entry : 
		On exit  : 
		Unchanged: 
 Data sizes:     COMRAM   BANK0   BANK1   BANK2   BANK3   BANK4   BANK5   BANK6   BANK7   BANK8   BANK9  BANK10  BANK11  BANK12  BANK13  BANK14  BANK15
      Params:         0       4       0       0       0       0       0       0       0       0       0       0       0       0       0       0       0
      Locals:         0      24       0       0       0       0       0       0       0       0       0       0       0       0       0       0       0
      Temps:          0       6       0       0       0       0       0       0       0       0       0       0       0       0       0       0       0
      Totals:         0      34       0       0       0       0       0       0       0       0       0       0       0       0       0       0       0
Total ram usage:       34 bytes
 Hardware stack levels used:    1
 Hardware stack levels required when called:    5
 This function calls:
		_ld_dword
		_ld_word
		_put_utf
 This function is called by:
		_f_readdir
 This function uses a non-reentrant model


 *************** function _create_name *****************
 Defined at:
		line 2848 in file "ff.c"
 Parameters:    Size  Location     Type
  dp              2    0[BANK0 ] PTR struct .
		 -> main@dir(44), dir(44), f_rename@djn(44), f_rename@djo(44), 
		 -> f_mkdir@dj(44), f_unlink@dj(44), f_stat@dj(44), f_open@dj(44), 
  path            2    2[BANK0 ] PTR PTR const unsigned c
		 -> follow_path@path(2), 
 Auto vars:     Size  Location     Type
  uc              4   34[BANK0 ] unsigned long 
  wc              2   52[BANK0 ] unsigned short 
  di              2   50[BANK0 ] unsigned int 
  si              2   48[BANK0 ] unsigned int 
  lfn             2   46[BANK0 ] PTR unsigned short 
		 -> LfnBuf(202), 
  ni              2   43[BANK0 ] unsigned int 
  i               2   40[BANK0 ] unsigned int 
  p               2   38[BANK0 ] PTR const unsigned char 
		 -> STR_29(1), Buff(512), Line(50), NULL(0), 
  b               1   45[BANK0 ] unsigned char 
  cf              1   42[BANK0 ] unsigned char 
 Return value:  Size  Location     Type
                  1    wreg      enum E69
 Registers used:
		wreg, fsr0l, fsr0h, fsr2l, fsr2h, status,2, status,0, tblptrl, tblptrh, tblptru, cstack
 Tracked objects:
		On entry : 
		On exit  : 
		Unchanged: 
 Data sizes:     COMRAM   BANK0   BANK1   BANK2   BANK3   BANK4   BANK5   BANK6   BANK7   BANK8   BANK9  BANK10  BANK11  BANK12  BANK13  BANK14  BANK15
      Params:         0       4       0       0       0       0       0       0       0       0       0       0       0       0       0       0       0
      Locals:         0      44       0       0       0       0       0       0       0       0       0       0       0       0       0       0       0
      Temps:          0       6       0       0       0       0       0       0       0       0       0       0       0       0       0       0       0
      Totals:         0      54       0       0       0       0       0       0       0       0       0       0       0       0       0       0       0
Total ram usage:       54 bytes
 Hardware stack levels used:    1
 Hardware stack levels required when called:    5
 This function calls:
		_chk_chr
		_ff_uni2oem
		_mem_set
		_tchar2uni
 This function is called by:
		_follow_path
 This function uses a non-reentrant model


 *************** function _check_fs *****************
 Defined at:
		line 3195 in file "ff.c"
 Parameters:    Size  Location     Type
  fs              2    0[BANK1 ] PTR struct .
		 -> FatFs(561), NULL(0), 
  sect            4    2[BANK1 ] unsigned long 
 Auto vars:     Size  Location     Type
		None
 Return value:  Size  Location     Type
                  1    wreg      unsigned char 
 Registers used:
		wreg, fsr0l, fsr0h, fsr2l, fsr2h, status,2, status,0, tblptrl, tblptrh, tblptru, cstack
 Tracked objects:
		On entry : 
		On exit  : 
		Unchanged: 
 Data sizes:     COMRAM   BANK0   BANK1   BANK2   BANK3   BANK4   BANK5   BANK6   BANK7   BANK8   BANK9  BANK10  BANK11  BANK12  BANK13  BANK14  BANK15
      Params:         0       0       6       0       0       0       0       0       0       0       0       0       0       0       0       0       0
      Locals:         0       0       0       0       0       0       0       0       0       0       0       0       0       0       0       0       0
      Temps:          0       1       0       0       0       0       0       0       0       0       0       0       0       0       0       0       0
      Totals:         0       1       6       0       0       0       0       0       0       0       0       0       0       0       0       0       0
Total ram usage:        7 bytes
 Hardware stack levels used:    1
 Hardware stack levels required when called:   11
 This function calls:
		_ld_word
		_mem_cmp
		_move_window
 This function is called by:
		_find_volume
 This function uses a non-reentrant model


 *************** function _f_closedir *****************
 Defined at:
		line 4447 in file "ff.c"
 Parameters:    Size  Location     Type
  dp              2   26[COMRAM] PTR struct .
		 -> dir(44), 
 Auto vars:     Size  Location     Type
  fs              2   31[COMRAM] PTR struct .
		 -> FatFs(561), NULL(0), 
  res             1   33[COMRAM] enum E69
 Return value:  Size  Location     Type
                  1    wreg      enum E69
 Registers used:
		wreg, fsr0l, fsr0h, fsr2l, fsr2h, status,2, status,0, cstack
 Tracked objects:
		On entry : 
		On exit  : 
		Unchanged: 
 Data sizes:     COMRAM   BANK0   BANK1   BANK2   BANK3   BANK4   BANK5   BANK6   BANK7   BANK8   BANK9  BANK10  BANK11  BANK12  BANK13  BANK14  BANK15
      Params:         2       0       0       0       0       0       0       0       0       0       0       0       0       0       0       0       0
      Locals:         6       0       0       0       0       0       0       0       0       0       0       0       0       0       0       0       0
      Temps:          0       0       0       0       0       0       0       0       0       0       0       0       0       0       0       0       0
      Totals:         8       0       0       0       0       0       0       0       0       0       0       0       0       0       0       0       0
Total ram usage:        8 bytes
 Hardware stack levels used:    1
 Hardware stack levels required when called:    5
 This function calls:
		_validate
 This function is called by:
		_scan_files
 This function uses a non-reentrant model


 *************** function _EUSART1_Write *****************
 Defined at:
		line 93 in file "mcc_generated_files/eusart1.c"
 Parameters:    Size  Location     Type
  txData          1    wreg     unsigned char 
 Auto vars:     Size  Location     Type
  txData          1   14[COMRAM] unsigned char 
 Return value:  Size  Location     Type
                  1    wreg      void 
 Registers used:
		wreg
 Tracked objects:
		On entry : 
		On exit  : 
		Unchanged: 
 Data sizes:     COMRAM   BANK0   BANK1   BANK2   BANK3   BANK4   BANK5   BANK6   BANK7   BANK8   BANK9  BANK10  BANK11  BANK12  BANK13  BANK14  BANK15
      Params:         0       0       0       0       0       0       0       0       0       0       0       0       0       0       0       0       0
      Locals:         2       0       0       0       0       0       0       0       0       0       0       0       0       0       0       0       0
      Temps:          0       0       0       0       0       0       0       0       0       0       0       0       0       0       0       0       0
      Totals:         2       0       0       0       0       0       0       0       0       0       0       0       0       0       0       0       0
Total ram usage:        2 bytes
 Hardware stack levels used:    1
 Hardware stack levels required when called:    3
 This function calls:
		Nothing
 This function is called by:
		_putch
		_main
		_xputc
 This function uses a non-reentrant model


 *************** function _putch *****************
 Defined at:
		line 160 in file "main.c"
 Parameters:    Size  Location     Type
  temp            1    wreg     unsigned char 
 Auto vars:     Size  Location     Type
  temp            1   16[COMRAM] unsigned char 
 Return value:  Size  Location     Type
                  1    wreg      void 
 Registers used:
		wreg, status,2, cstack
 Tracked objects:
		On entry : 
		On exit  : 
		Unchanged: 
 Data sizes:     COMRAM   BANK0   BANK1   BANK2   BANK3   BANK4   BANK5   BANK6   BANK7   BANK8   BANK9  BANK10  BANK11  BANK12  BANK13  BANK14  BANK15
      Params:         0       0       0       0       0       0       0       0       0       0       0       0       0       0       0       0       0
      Locals:         2       0       0       0       0       0       0       0       0       0       0       0       0       0       0       0       0
      Temps:          0       0       0       0       0       0       0       0       0       0       0       0       0       0       0       0       0
      Totals:         2       0       0       0       0       0       0       0       0       0       0       0       0       0       0       0       0
Total ram usage:        2 bytes
 Hardware stack levels used:    1
 Hardware stack levels required when called:    4
 This function calls:
		_EUSART1_Write
 This function is called by:
		_printf
 This function uses a non-reentrant model


 *************** function ___lwmod *****************
 Defined at:
		line 8 in file "C:\Program Files (x86)\Microchip\xc8\v1.45\sources\common\lwmod.c"
 Parameters:    Size  Location     Type
  dividend        2   20[COMRAM] unsigned int 
  divisor         2   22[COMRAM] unsigned int 
 Auto vars:     Size  Location     Type
  counter         1   25[COMRAM] unsigned char 
 Return value:  Size  Location     Type
                  2   20[COMRAM] unsigned int 
 Registers used:
		wreg, status,2, status,0
 Tracked objects:
		On entry : 
		On exit  : 
		Unchanged: 
 Data sizes:     COMRAM   BANK0   BANK1   BANK2   BANK3   BANK4   BANK5   BANK6   BANK7   BANK8   BANK9  BANK10  BANK11  BANK12  BANK13  BANK14  BANK15
      Params:         4       0       0       0       0       0       0       0       0       0       0       0       0       0       0       0       0
      Locals:         2       0       0       0       0       0       0       0       0       0       0       0       0       0       0       0       0
      Temps:          0       0       0       0       0       0       0       0       0       0       0       0       0       0       0       0       0
      Totals:         6       0       0       0       0       0       0       0       0       0       0       0       0       0       0       0       0
Total ram usage:        6 bytes
 Hardware stack levels used:    1
 Hardware stack levels required when called:    3
 This function calls:
		Nothing
 This function is called by:
		_printf
 This function uses a non-reentrant model


 *************** function _disk_initialize *****************
 Defined at:
		line 298 in file "diskio.c"
 Parameters:    Size  Location     Type
  pdrv            1    wreg     unsigned char 
 Auto vars:     Size  Location     Type
  pdrv            1  132[BANK0 ] unsigned char 
  ocr             4  133[BANK0 ] unsigned char [4]
  tmr             2  141[BANK0 ] unsigned int 
  n               1  143[BANK0 ] unsigned char 
  ty              1  140[BANK0 ] unsigned char 
  cmd             1  139[BANK0 ] unsigned char 
 Return value:  Size  Location     Type
                  1    wreg      unsigned char 
 Registers used:
		wreg, fsr2l, fsr2h, status,2, status,0, cstack
 Tracked objects:
		On entry : 
		On exit  : 
		Unchanged: 
 Data sizes:     COMRAM   BANK0   BANK1   BANK2   BANK3   BANK4   BANK5   BANK6   BANK7   BANK8   BANK9  BANK10  BANK11  BANK12  BANK13  BANK14  BANK15
      Params:         0       0       0       0       0       0       0       0       0       0       0       0       0       0       0       0       0
      Locals:         0      24       0       0       0       0       0       0       0       0       0       0       0       0       0       0       0
      Temps:          1       0       0       0       0       0       0       0       0       0       0       0       0       0       0       0       0
      Totals:         1      24       0       0       0       0       0       0       0       0       0       0       0       0       0       0       0
Total ram usage:       25 bytes
 Hardware stack levels used:    1
 Hardware stack levels required when called:    8
 This function calls:
		_SPI1_Exchange8bit
		_SPI1_Initialize
		_deselect
		_send_cmd
 This function is called by:
		_find_volume
		_main
 This function uses a non-reentrant model


 *************** function _SPI1_Initialize *****************
 Defined at:
		line 63 in file "mcc_generated_files/spi1.c"
 Parameters:    Size  Location     Type
		None
 Auto vars:     Size  Location     Type
		None
 Return value:  Size  Location     Type
                  1    wreg      void 
 Registers used:
		wreg, status,2
 Tracked objects:
		On entry : 
		On exit  : 
		Unchanged: 
 Data sizes:     COMRAM   BANK0   BANK1   BANK2   BANK3   BANK4   BANK5   BANK6   BANK7   BANK8   BANK9  BANK10  BANK11  BANK12  BANK13  BANK14  BANK15
      Params:         0       0       0       0       0       0       0       0       0       0       0       0       0       0       0       0       0
      Locals:         0       0       0       0       0       0       0       0       0       0       0       0       0       0       0       0       0
      Temps:          0       0       0       0       0       0       0       0       0       0       0       0       0       0       0       0       0
      Totals:         0       0       0       0       0       0       0       0       0       0       0       0       0       0       0       0       0
Total ram usage:        0 bytes
 Hardware stack levels used:    1
 Hardware stack levels required when called:    3
 This function calls:
		Nothing
 This function is called by:
		_disk_initialize
		_SYSTEM_Initialize
 This function uses a non-reentrant model


 *************** function _f_opendir *****************
 Defined at:
		line 4381 in file "ff.c"
 Parameters:    Size  Location     Type
  dp              2  115[BANK1 ] PTR struct .
		 -> main@dir(44), dir(44), 
  path            2  117[BANK1 ] PTR const unsigned char 
		 -> STR_29(1), Buff(512), Line(50), NULL(0), 
 Auto vars:     Size  Location     Type
  fs              2  122[BANK1 ] PTR struct .
		 -> FatFs(561), NULL(0), 
  res             1  124[BANK1 ] enum E69
 Return value:  Size  Location     Type
                  1    wreg      enum E69
 Registers used:
		wreg, fsr0l, fsr0h, fsr2l, fsr2h, status,2, status,0, tblptrl, tblptrh, tblptru, prodl, prodh, cstack
 Tracked objects:
		On entry : 
		On exit  : 
		Unchanged: 
 Data sizes:     COMRAM   BANK0   BANK1   BANK2   BANK3   BANK4   BANK5   BANK6   BANK7   BANK8   BANK9  BANK10  BANK11  BANK12  BANK13  BANK14  BANK15
      Params:         0       0       4       0       0       0       0       0       0       0       0       0       0       0       0       0       0
      Locals:         0       0       6       0       0       0       0       0       0       0       0       0       0       0       0       0       0
      Temps:          0       0       0       0       0       0       0       0       0       0       0       0       0       0       0       0       0
      Totals:         0       0      10       0       0       0       0       0       0       0       0       0       0       0       0       0       0
Total ram usage:       10 bytes
 Hardware stack levels used:    1
 Hardware stack levels required when called:   16
 This function calls:
		_dir_sdi
		_find_volume
		_follow_path
		_ld_clust
 This function is called by:
		_scan_files
		_main
 This function uses a non-reentrant model


 *************** function _follow_path *****************
 Defined at:
		line 3046 in file "ff.c"
 Parameters:    Size  Location     Type
  dp              2  101[BANK1 ] PTR struct .
		 -> main@dir(44), dir(44), f_rename@djn(44), f_rename@djo(44), 
		 -> f_mkdir@dj(44), f_unlink@dj(44), f_stat@dj(44), f_open@dj(44), 
  path            2  103[BANK1 ] PTR const unsigned char 
		 -> STR_29(1), Buff(512), Line(50), NULL(0), 
 Auto vars:     Size  Location     Type
  fs              2  111[BANK1 ] PTR struct .
		 -> FatFs(561), NULL(0), 
  res             1  114[BANK1 ] enum E69
  ns              1  113[BANK1 ] unsigned char 
 Return value:  Size  Location     Type
                  1    wreg      enum E69
 Registers used:
		wreg, fsr0l, fsr0h, fsr2l, fsr2h, status,2, status,0, tblptrl, tblptrh, tblptru, prodl, prodh, cstack
 Tracked objects:
		On entry : 
		On exit  : 
		Unchanged: 
 Data sizes:     COMRAM   BANK0   BANK1   BANK2   BANK3   BANK4   BANK5   BANK6   BANK7   BANK8   BANK9  BANK10  BANK11  BANK12  BANK13  BANK14  BANK15
      Params:         0       0       4       0       0       0       0       0       0       0       0       0       0       0       0       0       0
      Locals:         0       0       4       0       0       0       0       0       0       0       0       0       0       0       0       0       0
      Temps:          0       0       6       0       0       0       0       0       0       0       0       0       0       0       0       0       0
      Totals:         0       0      14       0       0       0       0       0       0       0       0       0       0       0       0       0       0
Total ram usage:       14 bytes
 Hardware stack levels used:    1
 Hardware stack levels required when called:   15
 This function calls:
		_create_name
		_dir_find
		_dir_sdi
		_ld_clust
 This function is called by:
		_f_open
		_f_opendir
		_f_unlink
		_f_mkdir
		_f_rename
 This function uses a non-reentrant model


 *************** function _ld_clust *****************
 Defined at:
		line 1837 in file "ff.c"
 Parameters:    Size  Location     Type
  fs              2  125[BANK0 ] PTR struct .
		 -> FatFs(561), NULL(0), 
  dir             2  127[BANK0 ] PTR const unsigned char 
		 -> FatFs.win(512), FatFs(561), NULL(0), 
 Auto vars:     Size  Location     Type
  cl              4  133[BANK0 ] unsigned long 
 Return value:  Size  Location     Type
                  4  125[BANK0 ] unsigned long 
 Registers used:
		wreg, fsr2l, fsr2h, status,2, status,0, cstack
 Tracked objects:
		On entry : 
		On exit  : 
		Unchanged: 
 Data sizes:     COMRAM   BANK0   BANK1   BANK2   BANK3   BANK4   BANK5   BANK6   BANK7   BANK8   BANK9  BANK10  BANK11  BANK12  BANK13  BANK14  BANK15
      Params:         0       4       0       0       0       0       0       0       0       0       0       0       0       0       0       0       0
      Locals:         0       4       0       0       0       0       0       0       0       0       0       0       0       0       0       0       0
      Temps:          0       4       0       0       0       0       0       0       0       0       0       0       0       0       0       0       0
      Totals:         0      12       0       0       0       0       0       0       0       0       0       0       0       0       0       0       0
Total ram usage:       12 bytes
 Hardware stack levels used:    1
 Hardware stack levels required when called:    4
 This function calls:
		_ld_word
 This function is called by:
		_follow_path
		_f_open
		_f_opendir
		_f_unlink
		_f_rename
 This function uses a non-reentrant model


 *************** function _dir_find *****************
 Defined at:
		line 2427 in file "ff.c"
 Parameters:    Size  Location     Type
  dp              2  156[BANK0 ] PTR struct .
		 -> main@dir(44), dir(44), f_rename@djn(44), f_rename@djo(44), 
		 -> f_mkdir@dj(44), f_unlink@dj(44), f_stat@dj(44), f_open@dj(44), 
 Auto vars:     Size  Location     Type
  fs              2   94[BANK1 ] PTR struct .
		 -> FatFs(561), NULL(0), 
  res             1  100[BANK1 ] enum E69
  c               1   99[BANK1 ] unsigned char 
  ord             1   98[BANK1 ] unsigned char 
  a               1   97[BANK1 ] unsigned char 
  sum             1   96[BANK1 ] unsigned char 
 Return value:  Size  Location     Type
                  1    wreg      enum E69
 Registers used:
		wreg, fsr0l, fsr0h, fsr2l, fsr2h, status,2, status,0, tblptrl, tblptrh, tblptru, prodl, prodh, cstack
 Tracked objects:
		On entry : 
		On exit  : 
		Unchanged: 
 Data sizes:     COMRAM   BANK0   BANK1   BANK2   BANK3   BANK4   BANK5   BANK6   BANK7   BANK8   BANK9  BANK10  BANK11  BANK12  BANK13  BANK14  BANK15
      Params:         0       2       0       0       0       0       0       0       0       0       0       0       0       0       0       0       0
      Locals:         0       0       9       0       0       0       0       0       0       0       0       0       0       0       0       0       0
      Temps:          0       2       0       0       0       0       0       0       0       0       0       0       0       0       0       0       0
      Totals:         0       4       9       0       0       0       0       0       0       0       0       0       0       0       0       0       0
Total ram usage:       13 bytes
 Hardware stack levels used:    1
 Hardware stack levels required when called:   14
 This function calls:
		_cmp_lfn
		_dir_next
		_dir_sdi
		_mem_cmp
		_move_window
		_sum_sfn
 This function is called by:
		_dir_register
		_follow_path
 This function uses a non-reentrant model


 *************** function _mem_set *****************
 Defined at:
		line 661 in file "ff.c"
 Parameters:    Size  Location     Type
  dst             2   13[COMRAM] PTR void 
		 -> FatFs.win(512), File(1092), main@dir(44), FatFs(561), 
		 -> dir(44), f_rename@djn(44), f_rename@djo(44), f_mkdir@dj(44), 
		 -> f_unlink@dj(44), f_stat@dj(44), f_open@dj(44), NULL(0), 
  val             2   15[COMRAM] int 
  cnt             2   17[COMRAM] unsigned int 
 Auto vars:     Size  Location     Type
  d               2   19[COMRAM] PTR unsigned char 
		 -> FatFs.win(512), File(1092), main@dir(44), FatFs(561), 
		 -> dir(44), f_rename@djn(44), f_rename@djo(44), f_mkdir@dj(44), 
		 -> f_unlink@dj(44), f_stat@dj(44), f_open@dj(44), NULL(0), 
 Return value:  Size  Location     Type
                  1    wreg      void 
 Registers used:
		wreg, fsr2l, fsr2h, status,2, status,0
 Tracked objects:
		On entry : 
		On exit  : 
		Unchanged: 
 Data sizes:     COMRAM   BANK0   BANK1   BANK2   BANK3   BANK4   BANK5   BANK6   BANK7   BANK8   BANK9  BANK10  BANK11  BANK12  BANK13  BANK14  BANK15
      Params:         6       0       0       0       0       0       0       0       0       0       0       0       0       0       0       0       0
      Locals:         2       0       0       0       0       0       0       0       0       0       0       0       0       0       0       0       0
      Temps:          0       0       0       0       0       0       0       0       0       0       0       0       0       0       0       0       0
      Totals:         8       0       0       0       0       0       0       0       0       0       0       0       0       0       0       0       0
Total ram usage:        8 bytes
 Hardware stack levels used:    1
 Hardware stack levels required when called:    3
 This function calls:
		Nothing
 This function is called by:
		_sync_fs
		_dir_clear
		_dir_register
		_create_name
		_f_open
		_f_mkdir
 This function uses a non-reentrant model


 *************** function _find_volume *****************
 Defined at:
		line 3223 in file "ff.c"
 Parameters:    Size  Location     Type
  path            2    6[BANK1 ] PTR PTR const unsigned c
		 -> f_rename@path_old(2), f_mkdir@path(2), f_unlink@path(2), f_getfree@path(2), 
		 -> f_stat@path(2), f_opendir@path(2), f_open@path(2), f_mount@path(2), 
  rfs             2    8[BANK1 ] PTR PTR struct .
		 -> f_rename@fs(2), f_mkdir@fs(2), f_unlink@fs(2), f_getfree@fs(2), 
		 -> dj.obj(15), f_stat@dj(44), f_opendir@fs(2), f_open@fs(2), 
		 -> f_mount@fs(2), 
  mode            1   10[BANK1 ] unsigned char 
 Auto vars:     Size  Location     Type
  br             16   19[BANK1 ] unsigned long [4]
  bsect           4   68[BANK1 ] unsigned long 
  fasize          4   64[BANK1 ] unsigned long 
  nclst           4   60[BANK1 ] unsigned long 
  tsect           4   55[BANK1 ] unsigned long 
  sysect          4   47[BANK1 ] unsigned long 
  szbfat          4   41[BANK1 ] unsigned long 
  fs              2   75[BANK1 ] PTR struct .
		 -> FatFs(561), NULL(0), 
  i               2   72[BANK1 ] unsigned int 
  nrsv            2   53[BANK1 ] unsigned short 
  vol             2   51[BANK1 ] int 
  pt              2   45[BANK1 ] PTR unsigned char 
		 -> FatFs.win(512), FatFs(561), NULL(0), 
  fmt             1   74[BANK1 ] unsigned char 
  stat            1   59[BANK1 ] unsigned char 
 Return value:  Size  Location     Type
                  1    wreg      enum E69
 Registers used:
		wreg, fsr0l, fsr0h, fsr2l, fsr2h, status,2, status,0, tblptrl, tblptrh, tblptru, cstack
 Tracked objects:
		On entry : 
		On exit  : 
		Unchanged: 
 Data sizes:     COMRAM   BANK0   BANK1   BANK2   BANK3   BANK4   BANK5   BANK6   BANK7   BANK8   BANK9  BANK10  BANK11  BANK12  BANK13  BANK14  BANK15
      Params:         0       0       5       0       0       0       0       0       0       0       0       0       0       0       0       0       0
      Locals:         0       0      58       0       0       0       0       0       0       0       0       0       0       0       0       0       0
      Temps:          0       0       8       0       0       0       0       0       0       0       0       0       0       0       0       0       0
      Totals:         0       0      71       0       0       0       0       0       0       0       0       0       0       0       0       0       0
Total ram usage:       71 bytes
 Hardware stack levels used:    1
 Hardware stack levels required when called:   12
 This function calls:
		___lldiv
		___lmul
		_check_fs
		_disk_initialize
		_disk_status
		_get_ldnumber
		_ld_dword
		_ld_word
		_move_window
 This function is called by:
		_f_mount
		_f_open
		_f_opendir
		_f_getfree
		_f_unlink
		_f_mkdir
		_f_rename
 This function uses a non-reentrant model


 *************** function _ld_word *****************
 Defined at:
		line 566 in file "ff.c"
 Parameters:    Size  Location     Type
  ptr             2   56[COMRAM] PTR const unsigned char 
		 -> FatFs.win(512), FatFs(561), NULL(0), 
 Auto vars:     Size  Location     Type
  rv              2  123[BANK0 ] unsigned short 
 Return value:  Size  Location     Type
                  2   56[COMRAM] unsigned short 
 Registers used:
		wreg, fsr2l, fsr2h, status,2, status,0
 Tracked objects:
		On entry : 
		On exit  : 
		Unchanged: 
 Data sizes:     COMRAM   BANK0   BANK1   BANK2   BANK3   BANK4   BANK5   BANK6   BANK7   BANK8   BANK9  BANK10  BANK11  BANK12  BANK13  BANK14  BANK15
      Params:         2       0       0       0       0       0       0       0       0       0       0       0       0       0       0       0       0
      Locals:         0       2       0       0       0       0       0       0       0       0       0       0       0       0       0       0       0
      Temps:          0       3       0       0       0       0       0       0       0       0       0       0       0       0       0       0       0
      Totals:         2       5       0       0       0       0       0       0       0       0       0       0       0       0       0       0       0
Total ram usage:        7 bytes
 Hardware stack levels used:    1
 Hardware stack levels required when called:    3
 This function calls:
		Nothing
 This function is called by:
		_get_fat
		_ld_clust
		_cmp_lfn
		_pick_lfn
		_get_fileinfo
		_check_fs
		_find_volume
		_f_getfree
 This function uses a non-reentrant model


 *************** function _get_ldnumber *****************
 Defined at:
		line 3134 in file "ff.c"
 Parameters:    Size  Location     Type
  path            2   13[COMRAM] PTR PTR const unsigned c
		 -> f_rename@path_old(2), f_rename@path_new(2), f_mkdir@path(2), f_unlink@path(2), 
		 -> f_getfree@path(2), f_stat@path(2), f_opendir@path(2), f_open@path(2), 
		 -> f_mount@path(2), f_mount@rp(2), 
 Auto vars:     Size  Location     Type
  tt              2   25[COMRAM] PTR const unsigned char 
		 -> STR_29(1), Buff(512), Line(50), NULL(0), 
  i               2   23[COMRAM] unsigned int 
  tp              2   21[COMRAM] PTR const unsigned char 
		 -> STR_29(1), Buff(512), Line(50), NULL(0), 
  vol             2   19[COMRAM] int 
 Return value:  Size  Location     Type
                  2   13[COMRAM] int 
 Registers used:
		wreg, fsr0l, fsr0h, fsr2l, fsr2h, status,2, status,0, tblptrl, tblptrh, tblptru
 Tracked objects:
		On entry : 
		On exit  : 
		Unchanged: 
 Data sizes:     COMRAM   BANK0   BANK1   BANK2   BANK3   BANK4   BANK5   BANK6   BANK7   BANK8   BANK9  BANK10  BANK11  BANK12  BANK13  BANK14  BANK15
      Params:         2       0       0       0       0       0       0       0       0       0       0       0       0       0       0       0       0
      Locals:        10       0       0       0       0       0       0       0       0       0       0       0       0       0       0       0       0
      Temps:          2       0       0       0       0       0       0       0       0       0       0       0       0       0       0       0       0
      Totals:        14       0       0       0       0       0       0       0       0       0       0       0       0       0       0       0       0
Total ram usage:       14 bytes
 Hardware stack levels used:    1
 Hardware stack levels required when called:    3
 This function calls:
		Nothing
 This function is called by:
		_find_volume
		_f_mount
		_f_rename
 This function uses a non-reentrant model


 *************** function _SPI1_Exchange8bit *****************
 Defined at:
		line 77 in file "mcc_generated_files/spi1.c"
 Parameters:    Size  Location     Type
  data            1    wreg     unsigned char 
 Auto vars:     Size  Location     Type
  data            1   32[COMRAM] unsigned char 
 Return value:  Size  Location     Type
                  1    wreg      unsigned char 
 Registers used:
		wreg, status,2
 Tracked objects:
		On entry : 
		On exit  : 
		Unchanged: 
 Data sizes:     COMRAM   BANK0   BANK1   BANK2   BANK3   BANK4   BANK5   BANK6   BANK7   BANK8   BANK9  BANK10  BANK11  BANK12  BANK13  BANK14  BANK15
      Params:         0       0       0       0       0       0       0       0       0       0       0       0       0       0       0       0       0
      Locals:         1       0       0       0       0       0       0       0       0       0       0       0       0       0       0       0       0
      Temps:          0       0       0       0       0       0       0       0       0       0       0       0       0       0       0       0       0
      Totals:         1       0       0       0       0       0       0       0       0       0       0       0       0       0       0       0       0
Total ram usage:        1 bytes
 Hardware stack levels used:    1
 Hardware stack levels required when called:    3
 This function calls:
		Nothing
 This function is called by:
		_wait_ready
		_deselect
		_select
		_rcvr_datablock
		_xmit_datablock
		___send_cmd
		_disk_initialize
		_disk_ioctl
 This function uses a non-reentrant model


 *************** function ___lldiv *****************
 Defined at:
		line 8 in file "C:\Program Files (x86)\Microchip\xc8\v1.45\sources\common\lldiv.c"
 Parameters:    Size  Location     Type
  dividend        4   13[COMRAM] unsigned long 
  divisor         4   17[COMRAM] unsigned long 
 Auto vars:     Size  Location     Type
  quotient        4   21[COMRAM] unsigned long 
  counter         1   25[COMRAM] unsigned char 
 Return value:  Size  Location     Type
                  4   13[COMRAM] unsigned long 
 Registers used:
		wreg, status,2, status,0
 Tracked objects:
		On entry : 
		On exit  : 
		Unchanged: 
 Data sizes:     COMRAM   BANK0   BANK1   BANK2   BANK3   BANK4   BANK5   BANK6   BANK7   BANK8   BANK9  BANK10  BANK11  BANK12  BANK13  BANK14  BANK15
      Params:         8       0       0       0       0       0       0       0       0       0       0       0       0       0       0       0       0
      Locals:         5       0       0       0       0       0       0       0       0       0       0       0       0       0       0       0       0
      Temps:          0       0       0       0       0       0       0       0       0       0       0       0       0       0       0       0       0
      Totals:        13       0       0       0       0       0       0       0       0       0       0       0       0       0       0       0       0
Total ram usage:       13 bytes
 Hardware stack levels used:    1
 Hardware stack levels required when called:    3
 This function calls:
		Nothing
 This function is called by:
		_find_volume
		_f_lseek
		_xvprintf
 This function uses a non-reentrant model


 *************** function _f_readdir *****************
 Defined at:
		line 4477 in file "ff.c"
 Parameters:    Size  Location     Type
  dp              2  105[BANK1 ] PTR struct .
		 -> main@dir(44), dir(44), 
  fno             2  107[BANK1 ] PTR struct .
		 -> Finfo(278), scan_files@fno(278), 
 Auto vars:     Size  Location     Type
  fs              2  112[BANK1 ] PTR struct .
		 -> FatFs(561), NULL(0), 
  res             1  114[BANK1 ] enum E69
 Return value:  Size  Location     Type
                  1    wreg      enum E69
 Registers used:
		wreg, fsr0l, fsr0h, fsr2l, fsr2h, status,2, status,0, tblptrl, tblptrh, tblptru, prodl, prodh, cstack
 Tracked objects:
		On entry : 
		On exit  : 
		Unchanged: 
 Data sizes:     COMRAM   BANK0   BANK1   BANK2   BANK3   BANK4   BANK5   BANK6   BANK7   BANK8   BANK9  BANK10  BANK11  BANK12  BANK13  BANK14  BANK15
      Params:         0       0       4       0       0       0       0       0       0       0       0       0       0       0       0       0       0
      Locals:         0       0       6       0       0       0       0       0       0       0       0       0       0       0       0       0       0
      Temps:          0       0       0       0       0       0       0       0       0       0       0       0       0       0       0       0       0
      Totals:         0       0      10       0       0       0       0       0       0       0       0       0       0       0       0       0       0
Total ram usage:       10 bytes
 Hardware stack levels used:    1
 Hardware stack levels required when called:   15
 This function calls:
		_dir_next
		_dir_read
		_dir_sdi
		_get_fileinfo
		_validate
 This function is called by:
		_scan_files
		_main
 This function uses a non-reentrant model


 *************** function _validate *****************
 Defined at:
		line 3449 in file "ff.c"
 Parameters:    Size  Location     Type
  obj             2   15[COMRAM] PTR struct .
		 -> File(1092), main@dir(44), dir(44), 
  rfs             2   17[COMRAM] PTR PTR struct .
		 -> f_truncate@fs(2), f_readdir@fs(2), f_closedir@fs(2), f_lseek@fs(2), 
		 -> f_close@fs(2), f_sync@fs(2), f_write@fs(2), f_read@fs(2), 
 Auto vars:     Size  Location     Type
  res             1   25[COMRAM] enum E69
 Return value:  Size  Location     Type
                  1    wreg      enum E69
 Registers used:
		wreg, fsr0l, fsr0h, fsr2l, fsr2h, status,2, status,0, cstack
 Tracked objects:
		On entry : 
		On exit  : 
		Unchanged: 
 Data sizes:     COMRAM   BANK0   BANK1   BANK2   BANK3   BANK4   BANK5   BANK6   BANK7   BANK8   BANK9  BANK10  BANK11  BANK12  BANK13  BANK14  BANK15
      Params:         4       0       0       0       0       0       0       0       0       0       0       0       0       0       0       0       0
      Locals:         3       0       0       0       0       0       0       0       0       0       0       0       0       0       0       0       0
      Temps:          4       0       0       0       0       0       0       0       0       0       0       0       0       0       0       0       0
      Totals:        11       0       0       0       0       0       0       0       0       0       0       0       0       0       0       0       0
Total ram usage:       11 bytes
 Hardware stack levels used:    1
 Hardware stack levels required when called:    4
 This function calls:
		_disk_status
 This function is called by:
		_f_read
		_f_write
		_f_sync
		_f_close
		_f_lseek
		_f_closedir
		_f_readdir
		_f_truncate
 This function uses a non-reentrant model


 *************** function _dir_sdi *****************
 Defined at:
		line 1684 in file "ff.c"
 Parameters:    Size  Location     Type
  dp              2   26[BANK1 ] PTR struct .
		 -> main@dir(44), dir(44), f_rename@djn(44), f_rename@djo(44), 
		 -> f_mkdir@dj(44), f_unlink@sdj(44), f_unlink@dj(44), f_stat@dj(44), 
		 -> f_open@dj(44), 
  ofs             4   28[BANK1 ] unsigned long 
 Auto vars:     Size  Location     Type
  clst            4   50[BANK1 ] unsigned long 
  csz             4   46[BANK1 ] unsigned long 
  fs              2   54[BANK1 ] PTR struct .
		 -> FatFs(561), NULL(0), 
 Return value:  Size  Location     Type
                  1    wreg      enum E69
 Registers used:
		wreg, fsr0l, fsr0h, fsr2l, fsr2h, status,2, status,0, tblptrl, tblptrh, tblptru, cstack
 Tracked objects:
		On entry : 
		On exit  : 
		Unchanged: 
 Data sizes:     COMRAM   BANK0   BANK1   BANK2   BANK3   BANK4   BANK5   BANK6   BANK7   BANK8   BANK9  BANK10  BANK11  BANK12  BANK13  BANK14  BANK15
      Params:         0       0       6       0       0       0       0       0       0       0       0       0       0       0       0       0       0
      Locals:         0       0      14       0       0       0       0       0       0       0       0       0       0       0       0       0       0
      Temps:          0       0      10       0       0       0       0       0       0       0       0       0       0       0       0       0       0
      Totals:         0       0      30       0       0       0       0       0       0       0       0       0       0       0       0       0       0
Total ram usage:       30 bytes
 Hardware stack levels used:    1
 Hardware stack levels required when called:   12
 This function calls:
		_clst2sect
		_get_fat
 This function is called by:
		_dir_alloc
		_dir_find
		_dir_register
		_dir_remove
		_follow_path
		_f_opendir
		_f_readdir
		_f_unlink
 This function uses a non-reentrant model


 *************** function _dir_read *****************
 Defined at:
		line 2348 in file "ff.c"
 Parameters:    Size  Location     Type
  dp              2   92[BANK1 ] PTR struct .
		 -> main@dir(44), dir(44), f_unlink@sdj(44), 
  vol             2   94[BANK1 ] int 
 Auto vars:     Size  Location     Type
  fs              2   98[BANK1 ] PTR struct .
		 -> FatFs(561), NULL(0), 
  c               1  104[BANK1 ] unsigned char 
  res             1  103[BANK1 ] enum E69
  ord             1  102[BANK1 ] unsigned char 
  sum             1  101[BANK1 ] unsigned char 
  a               1  100[BANK1 ] unsigned char 
 Return value:  Size  Location     Type
                  1    wreg      enum E69
 Registers used:
		wreg, fsr0l, fsr0h, fsr2l, fsr2h, status,2, status,0, tblptrl, tblptrh, tblptru, prodl, prodh, cstack
 Tracked objects:
		On entry : 
		On exit  : 
		Unchanged: 
 Data sizes:     COMRAM   BANK0   BANK1   BANK2   BANK3   BANK4   BANK5   BANK6   BANK7   BANK8   BANK9  BANK10  BANK11  BANK12  BANK13  BANK14  BANK15
      Params:         0       0       4       0       0       0       0       0       0       0       0       0       0       0       0       0       0
      Locals:         0       0       9       0       0       0       0       0       0       0       0       0       0       0       0       0       0
      Temps:          0       4       0       0       0       0       0       0       0       0       0       0       0       0       0       0       0
      Totals:         0       4      13       0       0       0       0       0       0       0       0       0       0       0       0       0       0
Total ram usage:       17 bytes
 Hardware stack levels used:    1
 Hardware stack levels required when called:   14
 This function calls:
		_dir_next
		_move_window
		_pick_lfn
		_sum_sfn
 This function is called by:
		_f_readdir
		_f_unlink
 This function uses a non-reentrant model


 *************** function _sum_sfn *****************
 Defined at:
		line 2046 in file "ff.c"
 Parameters:    Size  Location     Type
  dir             2   13[COMRAM] PTR const unsigned char 
		 -> djn.fn(12), FatFs(561), f_rename@djn(44), dj.fn(12), 
		 -> f_mkdir@dj(44), dj.fn(12), f_open@dj(44), NULL(0), 
 Auto vars:     Size  Location     Type
  n               2   17[COMRAM] unsigned int 
  sum             1   19[COMRAM] unsigned char 
 Return value:  Size  Location     Type
                  1    wreg      unsigned char 
 Registers used:
		wreg, fsr2l, fsr2h, status,2, status,0, prodl, prodh
 Tracked objects:
		On entry : 
		On exit  : 
		Unchanged: 
 Data sizes:     COMRAM   BANK0   BANK1   BANK2   BANK3   BANK4   BANK5   BANK6   BANK7   BANK8   BANK9  BANK10  BANK11  BANK12  BANK13  BANK14  BANK15
      Params:         2       0       0       0       0       0       0       0       0       0       0       0       0       0       0       0       0
      Locals:         3       0       0       0       0       0       0       0       0       0       0       0       0       0       0       0       0
      Temps:          2       0       0       0       0       0       0       0       0       0       0       0       0       0       0       0       0
      Totals:         7       0       0       0       0       0       0       0       0       0       0       0       0       0       0       0       0
Total ram usage:        7 bytes
 Hardware stack levels used:    1
 Hardware stack levels required when called:    3
 This function calls:
		Nothing
 This function is called by:
		_dir_read
		_dir_find
		_dir_register
 This function uses a non-reentrant model


 *************** function _dir_next *****************
 Defined at:
		line 1733 in file "ff.c"
 Parameters:    Size  Location     Type
  dp              2   62[BANK1 ] PTR struct .
		 -> main@dir(44), dir(44), f_rename@djn(44), f_rename@djo(44), 
		 -> f_mkdir@dj(44), f_unlink@sdj(44), f_unlink@dj(44), f_stat@dj(44), 
		 -> f_open@dj(44), 
  stretch         2   64[BANK1 ] int 
 Auto vars:     Size  Location     Type
  clst            4   88[BANK1 ] unsigned long 
  ofs             4   82[BANK1 ] unsigned long 
  fs              2   86[BANK1 ] PTR struct .
		 -> FatFs(561), NULL(0), 
 Return value:  Size  Location     Type
                  1    wreg      enum E69
 Registers used:
		wreg, fsr0l, fsr0h, fsr2l, fsr2h, status,2, status,0, tblptrl, tblptrh, tblptru, cstack
 Tracked objects:
		On entry : 
		On exit  : 
		Unchanged: 
 Data sizes:     COMRAM   BANK0   BANK1   BANK2   BANK3   BANK4   BANK5   BANK6   BANK7   BANK8   BANK9  BANK10  BANK11  BANK12  BANK13  BANK14  BANK15
      Params:         0       0       4       0       0       0       0       0       0       0       0       0       0       0       0       0       0
      Locals:         0       0      14       0       0       0       0       0       0       0       0       0       0       0       0       0       0
      Temps:          0       0      12       0       0       0       0       0       0       0       0       0       0       0       0       0       0
      Totals:         0       0      30       0       0       0       0       0       0       0       0       0       0       0       0       0       0
Total ram usage:       30 bytes
 Hardware stack levels used:    1
 Hardware stack levels required when called:   13
 This function calls:
		_clst2sect
		_create_chain
		_dir_clear
		_get_fat
 This function is called by:
		_dir_alloc
		_dir_read
		_dir_find
		_dir_register
		_dir_remove
		_f_readdir
 This function uses a non-reentrant model


 *************** function _dir_clear *****************
 Defined at:
		line 1644 in file "ff.c"
 Parameters:    Size  Location     Type
  fs              2  146[BANK0 ] PTR struct .
		 -> FatFs(561), NULL(0), 
  clst            4  148[BANK0 ] unsigned long 
 Auto vars:     Size  Location     Type
  sect            4    2[BANK1 ] unsigned long 
  n               2    8[BANK1 ] unsigned int 
  szb             2    6[BANK1 ] unsigned int 
  ibuf            2    0[BANK1 ] PTR unsigned char 
		 -> FatFs.win(512), FatFs(561), NULL(0), 
 Return value:  Size  Location     Type
                  1    wreg      enum E69
 Registers used:
		wreg, fsr0l, fsr0h, fsr2l, fsr2h, status,2, status,0, tblptrl, tblptrh, tblptru, cstack
 Tracked objects:
		On entry : 
		On exit  : 
		Unchanged: 
 Data sizes:     COMRAM   BANK0   BANK1   BANK2   BANK3   BANK4   BANK5   BANK6   BANK7   BANK8   BANK9  BANK10  BANK11  BANK12  BANK13  BANK14  BANK15
      Params:         0       6       0       0       0       0       0       0       0       0       0       0       0       0       0       0       0
      Locals:         0       0      10       0       0       0       0       0       0       0       0       0       0       0       0       0       0
      Temps:          2       0       0       0       0       0       0       0       0       0       0       0       0       0       0       0       0
      Totals:         2       6      10       0       0       0       0       0       0       0       0       0       0       0       0       0       0
Total ram usage:       18 bytes
 Hardware stack levels used:    1
 Hardware stack levels required when called:   10
 This function calls:
		_clst2sect
		_disk_write
		_mem_set
		_sync_window
 This function is called by:
		_dir_next
		_f_mkdir
 This function uses a non-reentrant model


 *************** function _clst2sect *****************
 Defined at:
		line 1124 in file "ff.c"
 Parameters:    Size  Location     Type
  fs              2   44[COMRAM] PTR struct .
		 -> FatFs(561), NULL(0), 
  clst            4   46[COMRAM] unsigned long 
 Auto vars:     Size  Location     Type
		None
 Return value:  Size  Location     Type
                  4   44[COMRAM] unsigned long 
 Registers used:
		wreg, fsr2l, fsr2h, status,2, status,0, cstack
 Tracked objects:
		On entry : 
		On exit  : 
		Unchanged: 
 Data sizes:     COMRAM   BANK0   BANK1   BANK2   BANK3   BANK4   BANK5   BANK6   BANK7   BANK8   BANK9  BANK10  BANK11  BANK12  BANK13  BANK14  BANK15
      Params:         6       0       0       0       0       0       0       0       0       0       0       0       0       0       0       0       0
      Locals:         0       0       0       0       0       0       0       0       0       0       0       0       0       0       0       0       0
      Temps:          6       0       0       0       0       0       0       0       0       0       0       0       0       0       0       0       0
      Totals:        12       0       0       0       0       0       0       0       0       0       0       0       0       0       0       0       0
Total ram usage:       12 bytes
 Hardware stack levels used:    1
 Hardware stack levels required when called:    4
 This function calls:
		___lmul
 This function is called by:
		_dir_clear
		_dir_sdi
		_dir_next
		_f_open
		_f_read
		_f_write
		_f_lseek
		_f_rename
 This function uses a non-reentrant model


 *************** function ___lmul *****************
 Defined at:
		line 15 in file "C:\Program Files (x86)\Microchip\xc8\v1.45\sources\common\Umul32.c"
 Parameters:    Size  Location     Type
  multiplier      4   32[COMRAM] unsigned long 
  multiplicand    4   36[COMRAM] unsigned long 
 Auto vars:     Size  Location     Type
  product         4   40[COMRAM] unsigned long 
 Return value:  Size  Location     Type
                  4   32[COMRAM] unsigned long 
 Registers used:
		wreg, status,2, status,0
 Tracked objects:
		On entry : 
		On exit  : 
		Unchanged: 
 Data sizes:     COMRAM   BANK0   BANK1   BANK2   BANK3   BANK4   BANK5   BANK6   BANK7   BANK8   BANK9  BANK10  BANK11  BANK12  BANK13  BANK14  BANK15
      Params:         8       0       0       0       0       0       0       0       0       0       0       0       0       0       0       0       0
      Locals:         4       0       0       0       0       0       0       0       0       0       0       0       0       0       0       0       0
      Temps:          0       0       0       0       0       0       0       0       0       0       0       0       0       0       0       0       0
      Totals:        12       0       0       0       0       0       0       0       0       0       0       0       0       0       0       0       0
Total ram usage:       12 bytes
 Hardware stack levels used:    1
 Hardware stack levels required when called:    3
 This function calls:
		Nothing
 This function is called by:
		_clst2sect
		_find_volume
		_main
		_xatoi
 This function uses a non-reentrant model


 *************** function _create_chain *****************
 Defined at:
		line 1509 in file "ff.c"
 Parameters:    Size  Location     Type
  obj             2   33[BANK1 ] PTR struct .
		 -> File(1092), main@dir(44), dir(44), f_rename@djn(44), 
		 -> f_rename@djo(44), f_mkdir@dj(44), f_unlink@sdj(44), f_unlink@dj(44), 
		 -> f_stat@dj(44), f_open@dj(44), 
  clst            4   35[BANK1 ] unsigned long 
 Auto vars:     Size  Location     Type
  cs              4   58[BANK1 ] unsigned long 
  ncl             4   52[BANK1 ] unsigned long 
  scl             4   48[BANK1 ] unsigned long 
  fs              2   56[BANK1 ] PTR struct .
		 -> FatFs(561), NULL(0), 
  res             1   47[BANK1 ] enum E69
 Return value:  Size  Location     Type
                  4   33[BANK1 ] unsigned long 
 Registers used:
		wreg, fsr0l, fsr0h, fsr2l, fsr2h, status,2, status,0, tblptrl, tblptrh, tblptru, cstack
 Tracked objects:
		On entry : 
		On exit  : 
		Unchanged: 
 Data sizes:     COMRAM   BANK0   BANK1   BANK2   BANK3   BANK4   BANK5   BANK6   BANK7   BANK8   BANK9  BANK10  BANK11  BANK12  BANK13  BANK14  BANK15
      Params:         0       0       6       0       0       0       0       0       0       0       0       0       0       0       0       0       0
      Locals:         0       0      15       0       0       0       0       0       0       0       0       0       0       0       0       0       0
      Temps:          0       0       8       0       0       0       0       0       0       0       0       0       0       0       0       0       0
      Totals:         0       0      29       0       0       0       0       0       0       0       0       0       0       0       0       0       0
Total ram usage:       29 bytes
 Hardware stack levels used:    1
 Hardware stack levels required when called:   12
 This function calls:
		_get_fat
		_put_fat
 This function is called by:
		_dir_next
		_f_write
		_f_lseek
		_f_mkdir
 This function uses a non-reentrant model


 *************** function _put_fat *****************
 Defined at:
		line 1220 in file "ff.c"
 Parameters:    Size  Location     Type
  fs              2    0[BANK1 ] PTR struct .
		 -> FatFs(561), NULL(0), 
  clst            4    2[BANK1 ] unsigned long 
  val             4    6[BANK1 ] unsigned long 
 Auto vars:     Size  Location     Type
  bc              2   30[BANK1 ] unsigned int 
  p               2   28[BANK1 ] PTR unsigned char 
		 -> FatFs.win(512), FatFs(561), NULL(0), 
  res             1   32[BANK1 ] enum E69
 Return value:  Size  Location     Type
                  1    wreg      enum E69
 Registers used:
		wreg, fsr0l, fsr0h, fsr2l, fsr2h, status,2, status,0, tblptrl, tblptrh, tblptru, cstack
 Tracked objects:
		On entry : 
		On exit  : 
		Unchanged: 
 Data sizes:     COMRAM   BANK0   BANK1   BANK2   BANK3   BANK4   BANK5   BANK6   BANK7   BANK8   BANK9  BANK10  BANK11  BANK12  BANK13  BANK14  BANK15
      Params:         0       0      10       0       0       0       0       0       0       0       0       0       0       0       0       0       0
      Locals:         0       0       9       0       0       0       0       0       0       0       0       0       0       0       0       0       0
      Temps:          0       0      14       0       0       0       0       0       0       0       0       0       0       0       0       0       0
      Totals:         0       0      33       0       0       0       0       0       0       0       0       0       0       0       0       0       0
Total ram usage:       33 bytes
 Hardware stack levels used:    1
 Hardware stack levels required when called:   11
 This function calls:
		_ld_dword
		_move_window
		_st_dword
		_st_word
 This function is called by:
		_remove_chain
		_create_chain
 This function uses a non-reentrant model


 *************** function _st_word *****************
 Defined at:
		line 607 in file "ff.c"
 Parameters:    Size  Location     Type
  ptr             2   13[COMRAM] PTR unsigned char 
		 -> FatFs.win(512), FatFs(561), NULL(0), 
  val             2   15[COMRAM] unsigned short 
 Auto vars:     Size  Location     Type
		None
 Return value:  Size  Location     Type
                  1    wreg      void 
 Registers used:
		fsr2l, fsr2h, status,2, status,0
 Tracked objects:
		On entry : 
		On exit  : 
		Unchanged: 
 Data sizes:     COMRAM   BANK0   BANK1   BANK2   BANK3   BANK4   BANK5   BANK6   BANK7   BANK8   BANK9  BANK10  BANK11  BANK12  BANK13  BANK14  BANK15
      Params:         4       0       0       0       0       0       0       0       0       0       0       0       0       0       0       0       0
      Locals:         0       0       0       0       0       0       0       0       0       0       0       0       0       0       0       0       0
      Temps:          0       0       0       0       0       0       0       0       0       0       0       0       0       0       0       0       0
      Totals:         4       0       0       0       0       0       0       0       0       0       0       0       0       0       0       0       0
Total ram usage:        4 bytes
 Hardware stack levels used:    1
 Hardware stack levels required when called:    3
 This function calls:
		Nothing
 This function is called by:
		_sync_fs
		_put_fat
		_st_clust
		_put_lfn
		_f_sync
 This function uses a non-reentrant model


 *************** function _st_dword *****************
 Defined at:
		line 614 in file "ff.c"
 Parameters:    Size  Location     Type
  ptr             2    0[BANK0 ] PTR unsigned char 
		 -> FatFs.win(512), FatFs(561), NULL(0), 
  val             4    2[BANK0 ] unsigned long 
 Auto vars:     Size  Location     Type
		None
 Return value:  Size  Location     Type
                  1    wreg      void 
 Registers used:
		wreg, fsr2l, fsr2h, status,2, status,0
 Tracked objects:
		On entry : 
		On exit  : 
		Unchanged: 
 Data sizes:     COMRAM   BANK0   BANK1   BANK2   BANK3   BANK4   BANK5   BANK6   BANK7   BANK8   BANK9  BANK10  BANK11  BANK12  BANK13  BANK14  BANK15
      Params:         0       6       0       0       0       0       0       0       0       0       0       0       0       0       0       0       0
      Locals:         0       0       0       0       0       0       0       0       0       0       0       0       0       0       0       0       0
      Temps:          0       0       0       0       0       0       0       0       0       0       0       0       0       0       0       0       0
      Totals:         0       6       0       0       0       0       0       0       0       0       0       0       0       0       0       0       0
Total ram usage:        6 bytes
 Hardware stack levels used:    1
 Hardware stack levels required when called:    3
 This function calls:
		Nothing
 This function is called by:
		_sync_fs
		_put_fat
		_f_open
		_f_sync
		_f_mkdir
 This function uses a non-reentrant model


 *************** function _move_window *****************
 Defined at:
		line 1054 in file "ff.c"
 Parameters:    Size  Location     Type
  fs              2  146[BANK0 ] PTR struct .
		 -> FatFs(561), NULL(0), 
  sector          4  148[BANK0 ] unsigned long 
 Auto vars:     Size  Location     Type
  res             1   57[COMRAM] enum E69
 Return value:  Size  Location     Type
                  1    wreg      enum E69
 Registers used:
		wreg, fsr0l, fsr0h, fsr2l, fsr2h, status,2, status,0, tblptrl, tblptrh, tblptru, cstack
 Tracked objects:
		On entry : 
		On exit  : 
		Unchanged: 
 Data sizes:     COMRAM   BANK0   BANK1   BANK2   BANK3   BANK4   BANK5   BANK6   BANK7   BANK8   BANK9  BANK10  BANK11  BANK12  BANK13  BANK14  BANK15
      Params:         0       6       0       0       0       0       0       0       0       0       0       0       0       0       0       0       0
      Locals:         1       0       0       0       0       0       0       0       0       0       0       0       0       0       0       0       0
      Temps:          0       4       0       0       0       0       0       0       0       0       0       0       0       0       0       0       0
      Totals:         1      10       0       0       0       0       0       0       0       0       0       0       0       0       0       0       0
Total ram usage:       11 bytes
 Hardware stack levels used:    1
 Hardware stack levels required when called:   10
 This function calls:
		_disk_read
		_sync_window
 This function is called by:
		_get_fat
		_put_fat
		_dir_alloc
		_dir_read
		_dir_find
		_dir_register
		_dir_remove
		_check_fs
		_find_volume
		_f_open
		_f_sync
		_f_getfree
		_f_rename
 This function uses a non-reentrant model


 *************** function _sync_window *****************
 Defined at:
		line 1031 in file "ff.c"
 Parameters:    Size  Location     Type
  fs              2  128[BANK0 ] PTR struct .
		 -> FatFs(561), NULL(0), 
 Auto vars:     Size  Location     Type
  res             1   55[COMRAM] enum E69
 Return value:  Size  Location     Type
                  1    wreg      enum E69
 Registers used:
		wreg, fsr0l, fsr0h, fsr2l, fsr2h, status,2, status,0, tblptrl, tblptrh, tblptru, cstack
 Tracked objects:
		On entry : 
		On exit  : 
		Unchanged: 
 Data sizes:     COMRAM   BANK0   BANK1   BANK2   BANK3   BANK4   BANK5   BANK6   BANK7   BANK8   BANK9  BANK10  BANK11  BANK12  BANK13  BANK14  BANK15
      Params:         0       2       0       0       0       0       0       0       0       0       0       0       0       0       0       0       0
      Locals:         1       0       0       0       0       0       0       0       0       0       0       0       0       0       0       0       0
      Temps:          0      16       0       0       0       0       0       0       0       0       0       0       0       0       0       0       0
      Totals:         1      18       0       0       0       0       0       0       0       0       0       0       0       0       0       0       0
Total ram usage:       19 bytes
 Hardware stack levels used:    1
 Hardware stack levels required when called:    9
 This function calls:
		_disk_write
 This function is called by:
		_move_window
		_sync_fs
		_dir_clear
		_f_mkdir
 This function uses a non-reentrant model


 *************** function _disk_write *****************
 Defined at:
		line 407 in file "diskio.c"
 Parameters:    Size  Location     Type
  pdrv            1    wreg     unsigned char 
  buff            2  120[BANK0 ] PTR const unsigned char 
		 -> FatFs.win(512), File.buf(512), File(1092), FatFs(561), 
		 -> Buff(512), NULL(0), 
  sector          4  122[BANK0 ] unsigned long 
  count           2  126[BANK0 ] unsigned int 
 Auto vars:     Size  Location     Type
  pdrv            1   54[COMRAM] unsigned char 
 Return value:  Size  Location     Type
                  1    wreg      enum E11
 Registers used:
		wreg, fsr0l, fsr0h, status,2, status,0, tblptrl, tblptrh, tblptru, cstack
 Tracked objects:
		On entry : 
		On exit  : 
		Unchanged: 
 Data sizes:     COMRAM   BANK0   BANK1   BANK2   BANK3   BANK4   BANK5   BANK6   BANK7   BANK8   BANK9  BANK10  BANK11  BANK12  BANK13  BANK14  BANK15
      Params:         0       8       0       0       0       0       0       0       0       0       0       0       0       0       0       0       0
      Locals:         1       0       0       0       0       0       0       0       0       0       0       0       0       0       0       0       0
      Temps:          1       0       0       0       0       0       0       0       0       0       0       0       0       0       0       0       0
      Totals:         2       8       0       0       0       0       0       0       0       0       0       0       0       0       0       0       0
Total ram usage:       10 bytes
 Hardware stack levels used:    1
 Hardware stack levels required when called:    8
 This function calls:
		_deselect
		_send_cmd
		_xmit_datablock
 This function is called by:
		_sync_window
		_sync_fs
		_dir_clear
		_f_read
		_f_write
		_f_sync
		_f_lseek
		_f_truncate
		_main
 This function uses a non-reentrant model


 *************** function _send_cmd *****************
 Defined at:
		line 233 in file "diskio.c"
 Parameters:    Size  Location     Type
  cmd             1    wreg     unsigned char 
  arg             4   47[COMRAM] unsigned long 
 Auto vars:     Size  Location     Type
  cmd             1   51[COMRAM] unsigned char 
  res             1   52[COMRAM] unsigned char 
 Return value:  Size  Location     Type
                  1    wreg      unsigned char 
 Registers used:
		wreg, status,2, status,0, cstack
 Tracked objects:
		On entry : 
		On exit  : 
		Unchanged: 
 Data sizes:     COMRAM   BANK0   BANK1   BANK2   BANK3   BANK4   BANK5   BANK6   BANK7   BANK8   BANK9  BANK10  BANK11  BANK12  BANK13  BANK14  BANK15
      Params:         4       0       0       0       0       0       0       0       0       0       0       0       0       0       0       0       0
      Locals:         2       0       0       0       0       0       0       0       0       0       0       0       0       0       0       0       0
      Temps:          0       0       0       0       0       0       0       0       0       0       0       0       0       0       0       0       0
      Totals:         6       0       0       0       0       0       0       0       0       0       0       0       0       0       0       0       0
Total ram usage:        6 bytes
 Hardware stack levels used:    1
 Hardware stack levels required when called:    7
 This function calls:
		___send_cmd
 This function is called by:
		_disk_initialize
		_disk_read
		_disk_write
		_disk_ioctl
 This function uses a non-reentrant model


 *************** function _deselect *****************
 Defined at:
		line 94 in file "diskio.c"
 Parameters:    Size  Location     Type
		None
 Auto vars:     Size  Location     Type
		None
 Return value:  Size  Location     Type
                  1    wreg      void 
 Registers used:
		wreg, status,2, cstack
 Tracked objects:
		On entry : 
		On exit  : 
		Unchanged: 
 Data sizes:     COMRAM   BANK0   BANK1   BANK2   BANK3   BANK4   BANK5   BANK6   BANK7   BANK8   BANK9  BANK10  BANK11  BANK12  BANK13  BANK14  BANK15
      Params:         0       0       0       0       0       0       0       0       0       0       0       0       0       0       0       0       0
      Locals:         0       0       0       0       0       0       0       0       0       0       0       0       0       0       0       0       0
      Temps:          0       0       0       0       0       0       0       0       0       0       0       0       0       0       0       0       0
      Totals:         0       0       0       0       0       0       0       0       0       0       0       0       0       0       0       0       0
Total ram usage:        0 bytes
 Hardware stack levels used:    1
 Hardware stack levels required when called:    4
 This function calls:
		_SPI1_Exchange8bit
 This function is called by:
		_select
		___send_cmd
		_disk_initialize
		_disk_read
		_disk_write
		_disk_ioctl
 This function uses a non-reentrant model


 *************** function _disk_read *****************
 Defined at:
		line 372 in file "diskio.c"
 Parameters:    Size  Location     Type
  pdrv            1    wreg     unsigned char 
  buff            2  120[BANK0 ] PTR unsigned char 
		 -> File(1092), FatFs(561), Buff(512), NULL(0), 
  sector          4  122[BANK0 ] unsigned long 
  count           2  126[BANK0 ] unsigned int 
 Auto vars:     Size  Location     Type
  pdrv            1   53[COMRAM] unsigned char 
  cmd             1   56[COMRAM] unsigned char 
 Return value:  Size  Location     Type
                  1    wreg      enum E11
 Registers used:
		wreg, fsr2l, fsr2h, status,2, status,0, cstack
 Tracked objects:
		On entry : 
		On exit  : 
		Unchanged: 
 Data sizes:     COMRAM   BANK0   BANK1   BANK2   BANK3   BANK4   BANK5   BANK6   BANK7   BANK8   BANK9  BANK10  BANK11  BANK12  BANK13  BANK14  BANK15
      Params:         0       8       0       0       0       0       0       0       0       0       0       0       0       0       0       0       0
      Locals:         4       0       0       0       0       0       0       0       0       0       0       0       0       0       0       0       0
      Temps:          0       0       0       0       0       0       0       0       0       0       0       0       0       0       0       0       0
      Totals:         4       8       0       0       0       0       0       0       0       0       0       0       0       0       0       0       0
Total ram usage:       12 bytes
 Hardware stack levels used:    1
 Hardware stack levels required when called:    8
 This function calls:
		_deselect
		_rcvr_datablock
		_send_cmd
 This function is called by:
		_move_window
		_f_open
		_f_read
		_f_write
		_f_lseek
		_main
 This function uses a non-reentrant model


 *************** function _rcvr_datablock *****************
 Defined at:
		line 124 in file "diskio.c"
 Parameters:    Size  Location     Type
  buff            2   33[COMRAM] PTR unsigned char 
		 -> File(1092), FatFs(561), Buff(512), main@b(1), 
		 -> main@p2(4), NULL(0), disk_ioctl@csd(16), 
  btr             2   35[COMRAM] unsigned int 
 Auto vars:     Size  Location     Type
  tmr             2   37[COMRAM] unsigned int 
  token           1   39[COMRAM] unsigned char 
 Return value:  Size  Location     Type
                  1    wreg      unsigned char 
 Registers used:
		wreg, fsr2l, fsr2h, status,2, status,0, cstack
 Tracked objects:
		On entry : 
		On exit  : 
		Unchanged: 
 Data sizes:     COMRAM   BANK0   BANK1   BANK2   BANK3   BANK4   BANK5   BANK6   BANK7   BANK8   BANK9  BANK10  BANK11  BANK12  BANK13  BANK14  BANK15
      Params:         4       0       0       0       0       0       0       0       0       0       0       0       0       0       0       0       0
      Locals:         3       0       0       0       0       0       0       0       0       0       0       0       0       0       0       0       0
      Temps:          0       0       0       0       0       0       0       0       0       0       0       0       0       0       0       0       0
      Totals:         7       0       0       0       0       0       0       0       0       0       0       0       0       0       0       0       0
Total ram usage:        7 bytes
 Hardware stack levels used:    1
 Hardware stack levels required when called:    4
 This function calls:
		_SPI1_Exchange8bit
 This function is called by:
		_disk_read
		_disk_ioctl
 This function uses a non-reentrant model


 *************** function _ld_dword *****************
 Defined at:
		line 576 in file "ff.c"
 Parameters:    Size  Location     Type
  ptr             2   13[COMRAM] PTR const unsigned char 
		 -> FatFs.win(512), FatFs(561), NULL(0), 
 Auto vars:     Size  Location     Type
  rv              4   21[COMRAM] unsigned long 
 Return value:  Size  Location     Type
                  4   13[COMRAM] unsigned long 
 Registers used:
		wreg, fsr2l, fsr2h, status,2, status,0
 Tracked objects:
		On entry : 
		On exit  : 
		Unchanged: 
 Data sizes:     COMRAM   BANK0   BANK1   BANK2   BANK3   BANK4   BANK5   BANK6   BANK7   BANK8   BANK9  BANK10  BANK11  BANK12  BANK13  BANK14  BANK15
      Params:         4       0       0       0       0       0       0       0       0       0       0       0       0       0       0       0       0
      Locals:         4       0       0       0       0       0       0       0       0       0       0       0       0       0       0       0       0
      Temps:          4       0       0       0       0       0       0       0       0       0       0       0       0       0       0       0       0
      Totals:        12       0       0       0       0       0       0       0       0       0       0       0       0       0       0       0       0
Total ram usage:       12 bytes
 Hardware stack levels used:    1
 Hardware stack levels required when called:    3
 This function calls:
		Nothing
 This function is called by:
		_get_fat
		_put_fat
		_get_fileinfo
		_find_volume
		_f_open
		_f_getfree
 This function uses a non-reentrant model


 *************** function _get_fat *****************
 Defined at:
		line 1142 in file "ff.c"
 Parameters:    Size  Location     Type
  obj             2    0[BANK1 ] PTR struct .
		 -> File(1092), main@dir(44), dir(44), f_rename@djn(44), 
		 -> f_rename@djo(44), f_mkdir@dj(44), f_unlink@sdj(44), f_unlink@dj(44), 
		 -> f_getfree@obj(14), f_stat@dj(44), f_open@dj(44), 
  clst            4    2[BANK1 ] unsigned long 
 Auto vars:     Size  Location     Type
  val             4   18[BANK1 ] unsigned long 
  fs              2   24[BANK1 ] PTR struct .
		 -> FatFs(561), NULL(0), 
  bc              2   22[BANK1 ] unsigned int 
  wc              2   16[BANK1 ] unsigned int 
 Return value:  Size  Location     Type
                  4    0[BANK1 ] unsigned long 
 Registers used:
		wreg, fsr0l, fsr0h, fsr2l, fsr2h, status,2, status,0, tblptrl, tblptrh, tblptru, cstack
 Tracked objects:
		On entry : 
		On exit  : 
		Unchanged: 
 Data sizes:     COMRAM   BANK0   BANK1   BANK2   BANK3   BANK4   BANK5   BANK6   BANK7   BANK8   BANK9  BANK10  BANK11  BANK12  BANK13  BANK14  BANK15
      Params:         0       0       6       0       0       0       0       0       0       0       0       0       0       0       0       0       0
      Locals:         0       0      12       0       0       0       0       0       0       0       0       0       0       0       0       0       0
      Temps:          0       0       8       0       0       0       0       0       0       0       0       0       0       0       0       0       0
      Totals:         0       0      26       0       0       0       0       0       0       0       0       0       0       0       0       0       0
Total ram usage:       26 bytes
 Hardware stack levels used:    1
 Hardware stack levels required when called:   11
 This function calls:
		_ld_dword
		_ld_word
		_move_window
 This function is called by:
		_remove_chain
		_create_chain
		_dir_sdi
		_dir_next
		_f_open
		_f_read
		_f_lseek
		_f_getfree
		_f_truncate
 This function uses a non-reentrant model


 *************** function _scan_files *****************
 Defined at:
		line 177 in file "main.c"
 Parameters:    Size  Location     Type
  path            2  [STACK] PTR unsigned char 
		 -> Buff(512), Line(50), 
 Auto vars:     Size  Location     Type
  dir            44  [STACK] struct .
  i               2    0        unsigned int 
  res             1  [STACK] enum E7469
 Return value:  Size  Location     Type
                  1  [STACK] enum E7469
 Registers used:
		wreg, fsr0l, fsr0h, fsr1l, fsr1h, fsr2l, fsr2h, status,2, status,0, btemp, btemp+1, btemp+2, btemp+11, tblptrl, tblptrh, tblptru, prodl, prodh, cstack
 Tracked objects:
		On entry : 
		On exit  : 
		Unchanged: 
 Data sizes:     COMRAM   BANK0   BANK1   BANK2   BANK3   BANK4   BANK5   BANK6   BANK7   BANK8   BANK9  BANK10  BANK11  BANK12  BANK13  BANK14  BANK15
      Params:         0       0       0       0       0       0       0       0       0       0       0       0       0       0       0       0       0
      Locals:         0       0       0       0       0       0       0       0       0       0       0       0       0       0       0       0       0
      Temps:          0       0       0       0       0       0       0       0       0       0       0       0       0       0       0       0       0
      Totals:         0       0       0       0       0       0       0       0       0       0       0       0       0       0       0       0       0
Total ram usage:        0 bytes
 Hardware stack levels used:    1
 Hardware stack levels required when called:   17
 This function calls:
		_f_closedir
		_f_opendir
		_f_readdir
		_printf
		_scan_files
 This function is called by:
		_main
 This function uses a reentrant model (it is recursive)


 *************** function _printf *****************
 Defined at:
		line 464 in file "C:\Program Files (x86)\Microchip\xc8\v1.45\sources\common\doprnt.c"
 Parameters:    Size  Location     Type
  f               2   26[COMRAM] PTR const unsigned char 
		 -> STR_10(21), STR_8(4), STR_7(6), STR_6(13), 
 Auto vars:     Size  Location     Type
  tmpval          4    0        struct .
  cp              2   36[COMRAM] PTR const unsigned char 
		 -> STR_47(7), Finfo(278), Buff(512), Line(50), 
		 -> STR_14(9), STR_13(8), F7699.fname(256), scan_files@fno(278), 
		 -> STR_5(209), NULL(0), disk_ioctl@csd(16), 
  val             2   32[COMRAM] unsigned int 
  len             2    0        unsigned int 
  c               1   38[COMRAM] char 
  ap              1   35[COMRAM] PTR void [1]
		 -> ?_printf(2), 
  prec            1   34[COMRAM] char 
  flag            1    0        unsigned char 
 Return value:  Size  Location     Type
                  2   26[COMRAM] int 
 Registers used:
		wreg, fsr0l, fsr0h, fsr2l, fsr2h, status,2, status,0, tblptrl, tblptrh, tblptru, prodl, prodh, cstack
 Tracked objects:
		On entry : 
		On exit  : 
		Unchanged: 
 Data sizes:     COMRAM   BANK0   BANK1   BANK2   BANK3   BANK4   BANK5   BANK6   BANK7   BANK8   BANK9  BANK10  BANK11  BANK12  BANK13  BANK14  BANK15
      Params:         6       0       0       0       0       0       0       0       0       0       0       0       0       0       0       0       0
      Locals:         7       0       0       0       0       0       0       0       0       0       0       0       0       0       0       0       0
      Temps:          0       0       0       0       0       0       0       0       0       0       0       0       0       0       0       0       0
      Totals:        13       0       0       0       0       0       0       0       0       0       0       0       0       0       0       0       0
Total ram usage:       13 bytes
 Hardware stack levels used:    1
 Hardware stack levels required when called:    5
 This function calls:
		___lwdiv
		___lwmod
		_putch
 This function is called by:
		_put_rc
		_scan_files
		_main
 This function uses a non-reentrant model


 *************** function ___lwdiv *****************
 Defined at:
		line 8 in file "C:\Program Files (x86)\Microchip\xc8\v1.45\sources\common\lwdiv.c"
 Parameters:    Size  Location     Type
  dividend        2   13[COMRAM] unsigned int 
  divisor         2   15[COMRAM] unsigned int 
 Auto vars:     Size  Location     Type
  quotient        2   18[COMRAM] unsigned int 
  counter         1   17[COMRAM] unsigned char 
 Return value:  Size  Location     Type
                  2   13[COMRAM] unsigned int 
 Registers used:
		wreg, status,2, status,0
 Tracked objects:
		On entry : 
		On exit  : 
		Unchanged: 
 Data sizes:     COMRAM   BANK0   BANK1   BANK2   BANK3   BANK4   BANK5   BANK6   BANK7   BANK8   BANK9  BANK10  BANK11  BANK12  BANK13  BANK14  BANK15
      Params:         4       0       0       0       0       0       0       0       0       0       0       0       0       0       0       0       0
      Locals:         3       0       0       0       0       0       0       0       0       0       0       0       0       0       0       0       0
      Temps:          0       0       0       0       0       0       0       0       0       0       0       0       0       0       0       0       0
      Totals:         7       0       0       0       0       0       0       0       0       0       0       0       0       0       0       0       0
Total ram usage:        7 bytes
 Hardware stack levels used:    1
 Hardware stack levels required when called:    3
 This function calls:
		Nothing
 This function is called by:
		_dir_register
		_printf
 This function uses a non-reentrant model


 *************** function _xputc *****************
 Defined at:
		line 26 in file "xprintf.c"
 Parameters:    Size  Location     Type
  c               1  [STACK] unsigned char 
 Auto vars:     Size  Location     Type
		None
 Return value:  Size  Location     Type
                  1  [STACK] void 
 Registers used:
		wreg, fsr1l, fsr1h, fsr2l, fsr2h, status,2, status,0, pclath, btemp, tosl, cstack
 Tracked objects:
		On entry : 
		On exit  : 
		Unchanged: 
 Data sizes:     COMRAM   BANK0   BANK1   BANK2   BANK3   BANK4   BANK5   BANK6   BANK7   BANK8   BANK9  BANK10  BANK11  BANK12  BANK13  BANK14  BANK15
      Params:         0       0       0       0       0       0       0       0       0       0       0       0       0       0       0       0       0
      Locals:         0       0       0       0       0       0       0       0       0       0       0       0       0       0       0       0       0
      Temps:          0       0       0       0       0       0       0       0       0       0       0       0       0       0       0       0       0
      Totals:         0       0       0       0       0       0       0       0       0       0       0       0       0       0       0       0       0
Total ram usage:        0 bytes
 Hardware stack levels used:    1
 Hardware stack levels required when called:    4
 This function calls:
		Absolute function
		_EUSART1_Write
		_xputc
 This function is called by:
		_main
		_xputs
		_xvprintf
		_put_dump
		_xgets
 This function uses a reentrant model (it is recursive)


 *************** function _INTERRUPT_InterruptManager *****************
 Defined at:
		line 57 in file "mcc_generated_files/interrupt_manager.c"
 Parameters:    Size  Location     Type
		None
 Auto vars:     Size  Location     Type
		None
 Return value:  Size  Location     Type
                  1    wreg      void 
 Registers used:
		wreg, status,2, status,0, pclath, tosl, tblptrl, tblptrh, tblptru, cstack
 Tracked objects:
		On entry : 
		On exit  : 
		Unchanged: 
 Data sizes:     COMRAM   BANK0   BANK1   BANK2   BANK3   BANK4   BANK5   BANK6   BANK7   BANK8   BANK9  BANK10  BANK11  BANK12  BANK13  BANK14  BANK15
      Params:         0       0       0       0       0       0       0       0       0       0       0       0       0       0       0       0       0
      Locals:         0       0       0       0       0       0       0       0       0       0       0       0       0       0       0       0       0
      Temps:          8       0       0       0       0       0       0       0       0       0       0       0       0       0       0       0       0
      Totals:         8       0       0       0       0       0       0       0       0       0       0       0       0       0       0       0       0
Total ram usage:        8 bytes
 Hardware stack levels used:    1
 Hardware stack levels required when called:    2
 This function calls:
		_TMR1_ISR
 This function is called by:
		Interrupt level 2
 This function uses a non-reentrant model


 *************** function _TMR1_ISR *****************
 Defined at:
		line 157 in file "mcc_generated_files/tmr1.c"
 Parameters:    Size  Location     Type
		None
 Auto vars:     Size  Location     Type
		None
 Return value:  Size  Location     Type
                  1    wreg      void 
 Registers used:
		wreg, status,2, status,0, pclath, tosl, tblptrl, tblptrh, tblptru, cstack
 Tracked objects:
		On entry : 
		On exit  : 
		Unchanged: 
 Data sizes:     COMRAM   BANK0   BANK1   BANK2   BANK3   BANK4   BANK5   BANK6   BANK7   BANK8   BANK9  BANK10  BANK11  BANK12  BANK13  BANK14  BANK15
      Params:         0       0       0       0       0       0       0       0       0       0       0       0       0       0       0       0       0
      Locals:         0       0       0       0       0       0       0       0       0       0       0       0       0       0       0       0       0
      Temps:          0       0       0       0       0       0       0       0       0       0       0       0       0       0       0       0       0
      Totals:         0       0       0       0       0       0       0       0       0       0       0       0       0       0       0       0       0
Total ram usage:        0 bytes
 Hardware stack levels used:    1
 Hardware stack levels required when called:    1
 This function calls:
		Absolute function
		_TMR1_DefaultInterruptHandler
		_TMR1_WriteTimer
		_softRTC
 This function is called by:
		_INTERRUPT_InterruptManager
 This function uses a non-reentrant model


 *************** function _TMR1_DefaultInterruptHandler *****************
 Defined at:
		line 175 in file "mcc_generated_files/tmr1.c"
 Parameters:    Size  Location     Type
		None
 Auto vars:     Size  Location     Type
		None
 Return value:  Size  Location     Type
                  1    wreg      void 
 Registers used:
		None
 Tracked objects:
		On entry : 
		On exit  : 
		Unchanged: 
 Data sizes:     COMRAM   BANK0   BANK1   BANK2   BANK3   BANK4   BANK5   BANK6   BANK7   BANK8   BANK9  BANK10  BANK11  BANK12  BANK13  BANK14  BANK15
      Params:         0       0       0       0       0       0       0       0       0       0       0       0       0       0       0       0       0
      Locals:         0       0       0       0       0       0       0       0       0       0       0       0       0       0       0       0       0
      Temps:          0       0       0       0       0       0       0       0       0       0       0       0       0       0       0       0       0
      Totals:         0       0       0       0       0       0       0       0       0       0       0       0       0       0       0       0       0
Total ram usage:        0 bytes
 Hardware stack levels used:    1
 This function calls:
		Nothing
 This function is called by:
		_TMR1_Initialize
		_TMR1_ISR
 This function uses a non-reentrant model


 *************** function _softRTC *****************
 Defined at:
		line 72 in file "main.c"
 Parameters:    Size  Location     Type
		None
 Auto vars:     Size  Location     Type
  n               1    4[COMRAM] unsigned char 
 Return value:  Size  Location     Type
                  1    wreg      void 
 Registers used:
		wreg, status,2, status,0, tblptrl, tblptrh, tblptru
 Tracked objects:
		On entry : 
		On exit  : 
		Unchanged: 
 Data sizes:     COMRAM   BANK0   BANK1   BANK2   BANK3   BANK4   BANK5   BANK6   BANK7   BANK8   BANK9  BANK10  BANK11  BANK12  BANK13  BANK14  BANK15
      Params:         0       0       0       0       0       0       0       0       0       0       0       0       0       0       0       0       0
      Locals:         1       0       0       0       0       0       0       0       0       0       0       0       0       0       0       0       0
      Temps:          4       0       0       0       0       0       0       0       0       0       0       0       0       0       0       0       0
      Totals:         5       0       0       0       0       0       0       0       0       0       0       0       0       0       0       0       0
Total ram usage:        5 bytes
 Hardware stack levels used:    1
 This function calls:
		Nothing
 This function is called by:
		_main
		_TMR1_ISR
 This function uses a non-reentrant model


 *************** function _TMR1_WriteTimer *****************
 Defined at:
		line 120 in file "mcc_generated_files/tmr1.c"
 Parameters:    Size  Location     Type
  timerVal        2    0[COMRAM] unsigned int 
 Auto vars:     Size  Location     Type
		None
 Return value:  Size  Location     Type
                  1    wreg      void 
 Registers used:
		None
 Tracked objects:
		On entry : 
		On exit  : 
		Unchanged: 
 Data sizes:     COMRAM   BANK0   BANK1   BANK2   BANK3   BANK4   BANK5   BANK6   BANK7   BANK8   BANK9  BANK10  BANK11  BANK12  BANK13  BANK14  BANK15
      Params:         2       0       0       0       0       0       0       0       0       0       0       0       0       0       0       0       0
      Locals:         0       0       0       0       0       0       0       0       0       0       0       0       0       0       0       0       0
      Temps:          0       0       0       0       0       0       0       0       0       0       0       0       0       0       0       0       0
      Totals:         2       0       0       0       0       0       0       0       0       0       0       0       0       0       0       0       0
Total ram usage:        2 bytes
 Hardware stack levels used:    1
 This function calls:
		Nothing
 This function is called by:
		_TMR1_ISR
 This function uses a non-reentrant model



MODULE INFORMATION

Module		Function		Class		Link	Load	Size
diskio.c
		_rcvr_datablock		CODE           	85B6	0000	97
		_send_cmd      		CODE           	8A20	0000	57
		_disk_initialize		CODE           	622A	0000	359
		_disk_write    		CODE           	74B2	0000	201
		_disk_status   		CODE           	8D96	0000	13
		_deselect      		CODE           	8DFC	0000	9
		_disk_ioctl    		CODE           	343A	0000	939
		___send_cmd    		CODE           	81E4	0000	119
		_disk_read     		CODE           	7D50	0000	167
		_select        		CODE           	8CFC	0000	25
		_xmit_datablock		CODE           	8342	0000	111
		_wait_ready    		CODE           	8AC4	0000	51

diskio.c estimated size: 2148

C:\Program Files (x86)\Microchip\xc8\v1.45\sources\common\doprnt.c
		_printf        		CODE           	6E60	0000	235

C:\Program Files (x86)\Microchip\xc8\v1.45\sources\common\doprnt.c estimated size: 235

mcc_generated_files/interrupt_manager.c
		_INTERRUPT_Initialize		CODE           	8E10	0000	5
		_INTERRUPT_InterruptManager		CODE           	0008	0000	83

mcc_generated_files/interrupt_manager.c estimated size: 88

C:\Program Files (x86)\Microchip\xc8\v1.45\sources\common\Umul16.c
		___wmul        		CODE           	8C1C	0000	39

C:\Program Files (x86)\Microchip\xc8\v1.45\sources\common\Umul16.c estimated size: 39

pcf8574.c
		_pcf8574_yaz   		CODE           	8D2C	0000	23

pcf8574.c estimated size: 23

ff.c
		_clst2sect     		CODE           	7BFC	0000	165
		_mem_cpy       		CODE           	8830	0000	67
		_f_unlink      		CODE           	6C00	0000	311
		_f_rename      		CODE           	5080	0000	609
		_find_volume   		CODE           	1386	0000	1825
		_f_truncate    		CODE           	59E8	0000	407
		_dir_clear     		CODE           	6F8A	0000	251
		_put_utf       		CODE           	83B0	0000	99
		_ld_dword      		CODE           	8486	0000	61
		_remove_chain  		CODE           	6522	0000	309
		_f_mount       		CODE           	804E	0000	123
		_get_fat       		CODE           	4DF2	0000	433
		_sum_sfn       		CODE           	89AA	0000	61
		_st_word       		CODE           	8C8C	0000	21
		_get_ldnumber  		CODE           	72BE	0000	215
		_put_lfn       		CODE           	7688	0000	181
		_st_clust      		CODE           	896E	0000	49
		_create_name   		CODE           	300A	0000	867
		_chk_chr       		CODE           	8B78	0000	27
		_create_chain  		CODE           	3854	0000	769
		_gen_numname   		CODE           	5D6A	0000	379
		_dbc_1st       		CODE           	8DE2	0000	11
		_f_lseek       		CODE           	2606	0000	1147
		_validate      		CODE           	7F2C	0000	137
		_check_fs      		CODE           	7766	0000	175
		_f_sync        		CODE           	5F06	0000	371
		_get_fileinfo  		CODE           	3F30	0000	607
		_dir_read      		CODE           	5BCC	0000	369
		_tchar2uni     		CODE           	7838	0000	191
		_st_dword      		CODE           	89E6	0000	27
		_f_write       		CODE           	1B86	0000	1227
		_mem_set       		CODE           	8C42	0000	39
		_dir_alloc     		CODE           	7906	0000	151
		_f_opendir     		CODE           	73BA	0000	217
		_pick_lfn      		CODE           	75A0	0000	191
		_put_fat       		CODE           	425A	0000	539
		_f_readdir     		CODE           	80DC	0000	135
		_sync_fs       		CODE           	60A2	0000	329
		_dir_next      		CODE           	456C	0000	679
		_sync_window   		CODE           	6D36	0000	249
		_dir_register  		CODE           	4862	0000	611
		_f_getfree     		CODE           	558A	0000	539
		_cmp_lfn       		CODE           	6956	0000	297
		_ld_word       		CODE           	8A8E	0000	55
		_dir_find      		CODE           	57F2	0000	449
		_f_open        		CODE           	2B10	0000	1189
		_dir_remove    		CODE           	71B0	0000	261
		_f_mkdir       		CODE           	4B36	0000	579
		_mem_cmp       		CODE           	84EE	0000	103
		_f_read        		CODE           	20F6	0000	1035
		_f_close       		CODE           	88B2	0000	65
		_dir_sdi       		CODE           	5308	0000	567
		_follow_path   		CODE           	67F0	0000	305
		_f_closedir    		CODE           	8BF4	0000	41
		_dbc_2nd       		CODE           	8DD8	0000	11
		_ld_clust      		CODE           	82D0	0000	103
		_move_window   		CODE           	7DF6	0000	141

ff.c estimated size: 20371

mcc_generated_files/pin_manager.c
		_PIN_MANAGER_Initialize		CODE           	8A58	0000	55

mcc_generated_files/pin_manager.c estimated size: 55

mcc_generated_files/spi1.c
		_SPI1_Initialize		CODE           	8DAE	0000	13
		_SPI1_Exchange8bit		CODE           	8D7A	0000	17

mcc_generated_files/spi1.c estimated size: 30

C:\Program Files (x86)\Microchip\xc8\v1.45\sources\common\lwmod.c
		___lwmod       		CODE           	8930	0000	63

C:\Program Files (x86)\Microchip\xc8\v1.45\sources\common\lwmod.c estimated size: 63

ffunicode.c
		_ff_oem2uni    		CODE           	816A	0000	123
		_ff_wtoupper   		CODE           	63AC	0000	337
		_ff_uni2oem    		CODE           	7CAA	0000	167

ffunicode.c estimated size: 627

C:\Program Files (x86)\Microchip\xc8\v1.45\sources\common\llmod.c
		___llmod       		CODE           	8554	0000	99

C:\Program Files (x86)\Microchip\xc8\v1.45\sources\common\llmod.c estimated size: 99

C:\Program Files (x86)\Microchip\xc8\v1.45\sources\common\Umul32.c
		___lmul        		CODE           	870E	0000	77

C:\Program Files (x86)\Microchip\xc8\v1.45\sources\common\Umul32.c estimated size: 77

xprintf.c
		_xatoi         		CODE           	668A	0000	313
		_xvprintf      		CODE           	3BEA	0000	761
		_put_dump      		CODE           	6AB0	0000	305
		_xputs         		CODE           	86BC	0000	83
		_xgets         		CODE           	7A84	0000	175
		_xprintf       		CODE           	8D42	0000	21
		_xputc         		CODE           	8616	0000	85

xprintf.c estimated size: 1743

softi2c.c
		_softi2c_kur   		CODE           	8DBA	0000	11
		_softi2c_yaz   		CODE           	87EE	0000	67
		_softi2c_baslat		CODE           	8CAE	0000	29
		_softi2c_durdur		CODE           	8CCA	0000	27

softi2c.c estimated size: 134

shared
		PL12           		CODE           	449A	0000	31
		PL50           		CODE           	5024	0000	17
		PL8            		CODE           	2050	0000	11
		PL268          		CODE           	120A	0000	21
		PL458          		CODE           	12C4	0000	11
		PL648          		CODE           	8162	0000	9
		PL496          		CODE           	6390	0000	11
		PL22           		CODE           	4AC4	0000	21
		PL60           		CODE           	41C0	0000	21
		PL178          		CODE           	421C	0000	11
		PL368          		CODE           	7094	0000	11
		PL558          		CODE           	5BC2	0000	11
		PL596          		CODE           	8B18	0000	11
		PL100          		CODE           	1132	0000	19
		PL32           		CODE           	44B8	0000	9
		PL70           		CODE           	5B7E	0000	11
		PL278          		CODE           	765E	0000	21
		PL468          		CODE           	2AFC	0000	11
		PL200          		CODE           	6934	0000	17
		PL42           		CODE           	84C2	0000	35
		PL80           		CODE           	3B54	0000	17
		PL188          		CODE           	59CC	0000	11
		PL378          		CODE           	1296	0000	17
		PL568          		CODE           	5D60	0000	11
		PL110          		CODE           	4548	0000	17
		PL300          		CODE           	57AE	0000	19
		PL14           		CODE           	2FB4	0000	21
		PL52           		CODE           	59B2	0000	17
		PL90           		CODE           	5D4A	0000	11
		PL288          		CODE           	7822	0000	11
		PL478          		CODE           	12E0	0000	13
		PL210          		CODE           	608A	0000	9
		PL400          		CODE           	12A6	0000	17
		PL24           		CODE           	2A80	0000	11
		PL62           		CODE           	1AB0	0000	19
		PL198          		CODE           	6082	0000	9
		PL388          		CODE           	25C2	0000	9
		PL578          		CODE           	3000	0000	11
		PL120          		CODE           	251E	0000	13
		PL310          		CODE           	6BEE	0000	19
		PL500          		CODE           	1304	0000	13
		PL34           		CODE           	418E	0000	27
		PL72           		CODE           	205A	0000	21
		PL298          		CODE           	2566	0000	19
		PL488          		CODE           	12EC	0000	13
		ff_wtoupper@cvt1		MEDIUMCONST    	F7E2	0000	499
		PL220          		CODE           	2FDC	0000	11
		PL410          		CODE           	6F7A	0000	17
		PL600          		CODE           	3BB8	0000	11
		PL44           		CODE           	41A8	0000	25
		PL82           		CODE           	41E2	0000	11
		ff_wtoupper@cvt2		MEDIUMCONST    	FAD4	0000	189
		PL398          		CODE           	6222	0000	9
		PL588          		CODE           	5580	0000	11
		PL130          		CODE           	116A	0000	15
		PL320          		CODE           	758E	0000	19
		PL510          		CODE           	424E	0000	13
		PL16           		CODE           	67C2	0000	37
		PL54           		CODE           	3EE2	0000	23
		PL92           		CODE           	41EC	0000	41
		PL498          		CODE           	899E	0000	13
		PL230          		CODE           	666E	0000	11
		PL420          		CODE           	8CA0	0000	15
		PL610          		CODE           	341C	0000	11
		PL26           		CODE           	4FC8	0000	31
		PL64           		CODE           	1106	0000	15
		PL598          		CODE           	57E8	0000	11
		PL102          		CODE           	5034	0000	41
		PL140          		CODE           	1178	0000	19
		PL330          		CODE           	4DCE	0000	19
		PL520          		CODE           	1328	0000	13
		PL36           		CODE           	44C0	0000	11
		PL74           		CODE           	59C2	0000	11
		PL202          		CODE           	8B92	0000	17
		PL240          		CODE           	3B82	0000	23
		PL430          		CODE           	6E48	0000	15
		PL620          		CODE           	3BD6	0000	11
		PL46           		CODE           	4812	0000	13
		PL84           		CODE           	1128	0000	11
		_dpowers       		MEDIUMCONST    	F7D4	0000	11
		PL112          		CODE           	206E	0000	11
		PL302          		CODE           	1232	0000	19
		PL150          		CODE           	6078	0000	11
		PL340          		CODE           	1256	0000	13
		PL530          		CODE           	1334	0000	11
		PL18           		CODE           	7394	0000	13
		PL56           		CODE           	4508	0000	17
		PL94           		CODE           	3B64	0000	11
		PL212          		CODE           	555A	0000	11
		PL402          		CODE           	2AE6	0000	11
		PL250          		CODE           	254A	0000	11
		PL440          		CODE           	33F8	0000	15
		PL630          		CODE           	25FA	0000	7
		PL28           		CODE           	2514	0000	11
		PL66           		CODE           	41D4	0000	15
		PL122          		CODE           	4D78	0000	37
		PL312          		CODE           	6E38	0000	9
		PL160          		CODE           	119E	0000	31
		PL502          		CODE           	1310	0000	13
		PL350          		CODE           	84E4	0000	11
		PL540          		CODE           	4562	0000	11
		PL38           		CODE           	44CA	0000	63
		PL76           		CODE           	2FC8	0000	11
		PL222          		CODE           	11E6	0000	25
		PL412          		CODE           	57DE	0000	11
		PL260          		CODE           	2FE6	0000	9
		PL602          		CODE           	3BC2	0000	11
		PL450          		CODE           	3F1C	0000	11
		PL640          		CODE           	609C	0000	7
		PL48           		CODE           	8A00	0000	33
		PL86           		CODE           	5D3C	0000	15
		PL132          		CODE           	3398	0000	21
		PL322          		CODE           	2FEE	0000	19
		PL170          		CODE           	1B00	0000	19
		PL512          		CODE           	131C	0000	13
		PL360          		CODE           	8B3E	0000	17
		PL550          		CODE           	639A	0000	9
		PL58           		CODE           	3EF8	0000	19
		PL96           		CODE           	4520	0000	41
		_ExCvt         		MEDIUMCONST    	F73B	0000	129
		PL232          		CODE           	6944	0000	11
		PL422          		CODE           	64FC	0000	15
		PL270          		CODE           	757A	0000	21
		PL612          		CODE           	2B06	0000	11
		PL460          		CODE           	12CE	0000	11
		PL650          		CODE           	20EE	0000	9
		PL68           		CODE           	1114	0000	21
		PL104          		CODE           	1AC2	0000	19
		PL142          		CODE           	6920	0000	21
		PL332          		CODE           	2AD4	0000	19
		PL180          		CODE           	6BE0	0000	15
		PL522          		CODE           	5074	0000	13
		PL370          		CODE           	127A	0000	17
		PL560          		CODE           	1348	0000	11
		PL78           		CODE           	336C	0000	45
		softRTC@samurai		MEDIUMCONST    	F7C8	0000	13
		PL204          		CODE           	11D6	0000	17
		PL242          		CODE           	72B4	0000	11
		PL432          		CODE           	2AF0	0000	13
		PL280          		CODE           	4DBA	0000	21
		PL622          		CODE           	6518	0000	11
		PL470          		CODE           	20C6	0000	11
		PL88           		CODE           	4518	0000	9
		PL114          		CODE           	4AEC	0000	11
		PL304          		CODE           	2578	0000	19
		PL152          		CODE           	61FE	0000	11
		PL342          		CODE           	25AE	0000	13
		PL190          		CODE           	33C0	0000	27
		PL532          		CODE           	5BB0	0000	11
		PL380          		CODE           	78F6	0000	17
		PL570          		CODE           	6AA6	0000	11
		PL98           		CODE           	37E4	0000	11
		PL214          		CODE           	6A8A	0000	17
		PL404          		CODE           	4558	0000	11
		PL252          		CODE           	5D54	0000	13
		PL442          		CODE           	650A	0000	15
		PL290          		CODE           	4B04	0000	15
		PL632          		CODE           	5300	0000	9
		PL480          		CODE           	782C	0000	13
		main@F7711     		MEDIUMCONST    	F7DE	0000	5
		PL124          		CODE           	2078	0000	13
		PL314          		CODE           	259C	0000	19
		PL162          		CODE           	3F0A	0000	19
		PL504          		CODE           	4B2A	0000	13
		PL352          		CODE           	1B38	0000	13
		PL542          		CODE           	25DC	0000	11
		PL390          		CODE           	7492	0000	11
		PL580          		CODE           	20DA	0000	11
		__initialization		CODE           	841C	0000	101
		PL224          		CODE           	6F4A	0000	25
		PL414          		CODE           	20BA	0000	13
		PL262          		CODE           	5EE4	0000	15
		PL604          		CODE           	6E56	0000	11
		PL452          		CODE           	423A	0000	11
		PL642          		CODE           	1376	0000	9
		PL490          		CODE           	7A6C	0000	13
		PL134          		CODE           	33AC	0000	21
		PL324          		CODE           	52EE	0000	19
		PL172          		CODE           	52E0	0000	15
		PL514          		CODE           	3B98	0000	13
		PL362          		CODE           	7084	0000	17
		PL552          		CODE           	5BBA	0000	9
		PL590          		CODE           	20E4	0000	11
		PL234          		CODE           	4226	0000	11
		PL424          		CODE           	3814	0000	15
		PL272          		CODE           	80C8	0000	21
		PL614          		CODE           	384A	0000	11
		PL462          		CODE           	1B56	0000	11
		PL106          		CODE           	1144	0000	39
		PL144          		CODE           	118A	0000	21
		PL334          		CODE           	57C0	0000	19
		PL182          		CODE           	79BA	0000	13
		PL524          		CODE           	6A9A	0000	13
		PL372          		CODE           	128A	0000	13
		PL562          		CODE           	3BAE	0000	11
		PL206          		CODE           	37EE	0000	17
		PL244          		CODE           	4230	0000	11
		PL434          		CODE           	3830	0000	15
		PL282          		CODE           	773C	0000	21
		PL624          		CODE           	3BE0	0000	11
		PL472          		CODE           	25CA	0000	9
		PL116          		CODE           	1AD4	0000	13
		PL306          		CODE           	258A	0000	19
		PL154          		CODE           	6E2E	0000	11
		PL344          		CODE           	57D2	0000	13
		PL192          		CODE           	11CE	0000	9
		PL534          		CODE           	3BA4	0000	11
		PL382          		CODE           	694E	0000	9
		PL572          		CODE           	8D22	0000	11
		PL216          		CODE           	73A0	0000	17
		PL406          		CODE           	5BA6	0000	11
		PL254          		CODE           	7814	0000	15
		PL444          		CODE           	1B4C	0000	11
		PL292          		CODE           	5564	0000	11
		PL634          		CODE           	2600	0000	7
		PL482          		CODE           	4856	0000	13
		PL126          		CODE           	505C	0000	9
		PL316          		CODE           	2AC2	0000	19
		PL164          		CODE           	11BC	0000	19
		PL506          		CODE           	749C	0000	13
		PL354          		CODE           	6216	0000	13
		PL544          		CODE           	133E	0000	11
		PL392          		CODE           	4B12	0000	17
		PL582          		CODE           	1352	0000	11
		PL226          		CODE           	6656	0000	25
		PL416          		CODE           	12B6	0000	15
		PL264          		CODE           	6208	0000	15
		PL606          		CODE           	1B7C	0000	11
		PL454          		CODE           	8412	0000	11
		PL644          		CODE           	137E	0000	9
		PL492          		CODE           	3406	0000	13
		PL136          		CODE           	61EA	0000	21
		PL326          		CODE           	1244	0000	19
		PL174          		CODE           	553E	0000	29
		PL516          		CODE           	383E	0000	13
		PL364          		CODE           	73B0	0000	11
		PL554          		CODE           	86B2	0000	11
		PL592          		CODE           	6092	0000	11
		_LfnOfs        		MEDIUMCONST    	F7BB	0000	14
		PL236          		CODE           	208C	0000	11
		PL426          		CODE           	33EA	0000	15
		PL274          		CODE           	121E	0000	21
		PL616          		CODE           	63A2	0000	11
		PL464          		CODE           	5EF2	0000	11
		PL108          		CODE           	4AD8	0000	21
		PL146          		CODE           	1AE0	0000	33
		PL336          		CODE           	556E	0000	19
		PL184          		CODE           	6A7E	0000	13
		PL526          		CODE           	3412	0000	11
		PL374          		CODE           	25BA	0000	9
		PL564          		CODE           	767E	0000	11
		PL208          		CODE           	57A4	0000	11
		PL246          		CODE           	1B2C	0000	13
		PL436          		CODE           	8922	0000	15
		PL284          		CODE           	59D6	0000	11
		PL626          		CODE           	135C	0000	11
		PL474          		CODE           	4244	0000	11
		PL118          		CODE           	481E	0000	11
		PL308          		CODE           	2AB0	0000	19
		PL156          		CODE           	799C	0000	31
		PL346          		CODE           	1262	0000	13
		PL194          		CODE           	5B96	0000	9
		PL536          		CODE           	25D2	0000	11
		PL384          		CODE           	7E82	0000	17
		PL574          		CODE           	25E6	0000	11
		PL218          		CODE           	2084	0000	9
		PL408          		CODE           	33DA	0000	17
		PL256          		CODE           	7A5E	0000	15
		PL446          		CODE           	484C	0000	11
		PL294          		CODE           	2554	0000	19
		PL636          		CODE           	1366	0000	9
		PL484          		CODE           	8336	0000	13
		PL128          		CODE           	5B88	0000	15
		PL318          		CODE           	4828	0000	19
		PL166          		CODE           	252A	0000	19
		PL508          		CODE           	7672	0000	13
		PL356          		CODE           	126E	0000	13
		PL546          		CODE           	1B68	0000	11
		PL394          		CODE           	4B22	0000	9
		PL584          		CODE           	6680	0000	11
		PL228          		CODE           	6F62	0000	25
		PL418          		CODE           	8796	0000	15
		PL266          		CODE           	6678	0000	9
		PL608          		CODE           	3BCC	0000	11
		PL456          		CODE           	7750	0000	11
		PL646          		CODE           	4DEA	0000	9
		PL494          		CODE           	12F8	0000	13
		PL138          		CODE           	3B6E	0000	21
		PL328          		CODE           	483A	0000	19
		PL176          		CODE           	253C	0000	15
		PL518          		CODE           	7A78	0000	13
		PL366          		CODE           	6E40	0000	9
		PL556          		CODE           	20D0	0000	11
		PL594          		CODE           	67E6	0000	11
		PL2            		CODE           	10E4	0000	19
		_uc857         		MEDIUMCONST    	F9D4	0000	257
		PL238          		CODE           	5064	0000	17
		PL428          		CODE           	3822	0000	15
		PL276          		CODE           	2A9C	0000	21
		PL618          		CODE           	3426	0000	11
		PL466          		CODE           	7CA0	0000	11
		PL148          		CODE           	4214	0000	9
		PL338          		CODE           	20A8	0000	19
		PL186          		CODE           	1B12	0000	27
		PL528          		CODE           	1B60	0000	9
		PL376          		CODE           	5B9E	0000	9
		PL566          		CODE           	74A8	0000	11
		PL10           		CODE           	4FA2	0000	39
		PL4            		CODE           	1AA6	0000	11
		PL248          		CODE           	11FE	0000	13
		PL438          		CODE           	7B32	0000	15
		PL286          		CODE           	7FB4	0000	11
		PL628          		CODE           	3430	0000	11
		PL476          		CODE           	12D8	0000	9
		PL20           		CODE           	2500	0000	21
		PL158          		CODE           	4D9C	0000	31
		PL348          		CODE           	37FE	0000	13
		PL196          		CODE           	2FD2	0000	11
		PL538          		CODE           	5EFC	0000	11
		PL386          		CODE           	59E0	0000	9
		PL576          		CODE           	25F0	0000	11
		PL30           		CODE           	10F6	0000	17
		PL6            		CODE           	4474	0000	39
		PL258          		CODE           	4AF6	0000	15
		PL448          		CODE           	4DE0	0000	11
		PL296          		CODE           	2096	0000	19
		PL638          		CODE           	136E	0000	9
		PL486          		CODE           	775A	0000	13
		PL40           		CODE           	4FE6	0000	63
		PL168          		CODE           	2A8A	0000	19
		PL358          		CODE           	380A	0000	11
		PL548          		CODE           	3F26	0000	11
		PL396          		CODE           	1B44	0000	9
		PL586          		CODE           	1B72	0000	11

shared estimated size: 6213

mcc_generated_files/eusart1.c
		_EUSART1_Initialize		CODE           	8D56	0000	21
		_EUSART1_Read  		CODE           	8D6A	0000	17
		_EUSART1_Write 		CODE           	8DA2	0000	13

mcc_generated_files/eusart1.c estimated size: 51

mcc_generated_files/mcc.c
		_OSCILLATOR_Initialize		CODE           	8D8A	0000	13
		_SYSTEM_Initialize		CODE           	8CE4	0000	25

mcc_generated_files/mcc.c estimated size: 38

mcc_generated_files/tmr1.c
		_TMR1_Initialize		CODE           	8BCC	0000	41
		_TMR1_SetInterruptHandler		CODE           	8DCE	0000	11
		_TMR1_DefaultInterruptHandler		CODE           	8E14	0000	3
		_TMR1_WriteTimer		CODE           	8D14	0000	15
		_TMR1_ISR      		CODE           	8BA2	0000	43

mcc_generated_files/tmr1.c estimated size: 113

C:\Program Files (x86)\Microchip\xc8\v1.45\sources\common\lwdiv.c
		___lwdiv       		CODE           	87A4	0000	75

C:\Program Files (x86)\Microchip\xc8\v1.45\sources\common\lwdiv.c estimated size: 75

seri_lcd.c
		_lcd_sil       		CODE           	8E04	0000	7
		_lcd_aydinlatma_ac		CODE           	8DEC	0000	9
		_lcd_baslat    		CODE           	7E92	0000	155
		_pcf8574_yaz_wEnable		CODE           	8C68	0000	37
		_lcd_komut     		CODE           	875A	0000	61
		_lcd_git       		CODE           	8872	0000	65
		_lcd_mesgulmu  		CODE           	8DC4	0000	11
		_lcd_mesajyaz  		CODE           	8B22	0000	29
		_lcd_harfyaz   		CODE           	88F2	0000	49

seri_lcd.c estimated size: 423

C:\Program Files (x86)\Microchip\xc8\v1.45\sources\common\lldiv.c
		___lldiv       		CODE           	825A	0000	119

C:\Program Files (x86)\Microchip\xc8\v1.45\sources\common\lldiv.c estimated size: 119

C:\Program Files (x86)\Microchip\xc8\v1.45\sources\common\aldiv.c
		___aldiv       		CODE           	7B40	0000	189

C:\Program Files (x86)\Microchip\xc8\v1.45\sources\common\aldiv.c estimated size: 189

main.c
		_softRTC       		CODE           	7FBE	0000	145
		_putch         		CODE           	8DF4	0000	9
		_get_fattime   		CODE           	709E	0000	275
		_main          		CODE           	0062	0000	4227
		_put_rc        		CODE           	866A	0000	73
		_scan_files    		CODE           	79C6	0000	153

main.c estimated size: 4882

C:\Program Files (x86)\Microchip\xc8\v1.45\sources\common\strchr.c
		_strchr        		CODE           	8AF6	0000	35

C:\Program Files (x86)\Microchip\xc8\v1.45\sources\common\strchr.c estimated size: 35

C:\Program Files (x86)\Microchip\xc8\v1.45\sources\common\memset.c
		_memset        		CODE           	8B4E	0000	43

C:\Program Files (x86)\Microchip\xc8\v1.45\sources\common\memset.c estimated size: 43

