

Microchip Technology PIC LITE Macro Assembler V1.42 build -159332390 
                                                                                               Tue Jun 20 18:51:29 2017

Microchip Technology Omniscient Code Generator v1.42 (Free mode) build 201704130522
     1                           	processor	16F1827
     2                           	opt	pw 120
     3                           	opt	lm
     4                           	psect	cinit,global,class=CODE,merge=1,delta=2
     5                           	psect	bitbssCOMMON,global,bit,class=COMMON,space=1,delta=1
     6                           	psect	bssCOMMON,global,class=COMMON,space=1,delta=1
     7                           	psect	bssBANK0,global,class=BANK0,space=1,delta=1
     8                           	psect	cstackCOMMON,global,class=COMMON,space=1,delta=1
     9                           	psect	cstackBANK0,global,class=BANK0,space=1,delta=1
    10                           	psect	maintext,global,class=CODE,merge=1,split=1,delta=2
    11                           	psect	text1,local,class=CODE,merge=1,delta=2
    12                           	psect	text2,local,class=CODE,merge=1,delta=2
    13                           	psect	swtext1,local,class=CONST,delta=2
    14                           	psect	text3,local,class=CODE,merge=1,delta=2
    15                           	psect	text4,local,class=CODE,merge=1,delta=2
    16                           	psect	text5,local,class=CODE,merge=1,delta=2
    17                           	psect	text6,local,class=CODE,merge=1,delta=2
    18                           	psect	text7,local,class=CODE,merge=1,delta=2
    19                           	psect	text8,local,class=CODE,merge=1,delta=2
    20                           	psect	text9,local,class=CODE,merge=1,delta=2
    21                           	psect	text10,local,class=CODE,merge=1,delta=2
    22                           	psect	intentry,global,class=CODE,delta=2
    23                           	psect	text12,local,class=CODE,merge=1,delta=2
    24                           	psect	text13,local,class=CODE,merge=1,delta=2
    25                           	psect	text14,local,class=CODE,merge=1,delta=2
    26                           	dabs	1,0x7E,2
    27  0000                     
    28                           ; Version 1.42
    29                           ; Generated 13/04/2017 GMT
    30                           ; 
    31                           ; Copyright © 2017, Microchip Technology Inc. and its subsidiaries ("Microchip")
    32                           ; All rights reserved.
    33                           ; 
    34                           ; This software is developed by Microchip Technology Inc. and its subsidiaries ("Microch
      +                          ip").
    35                           ; 
    36                           ; Redistribution and use in source and binary forms, with or without modification, are
    37                           ; permitted provided that the following conditions are met:
    38                           ; 
    39                           ;     1. Redistributions of source code must retain the above copyright notice, this lis
      +                          t of
    40                           ;        conditions and the following disclaimer.
    41                           ; 
    42                           ;     2. Redistributions in binary form must reproduce the above copyright notice, this 
      +                          list
    43                           ;        of conditions and the following disclaimer in the documentation and/or other
    44                           ;        materials provided with the distribution.
    45                           ; 
    46                           ;     3. Microchip's name may not be used to endorse or promote products derived from th
      +                          is
    47                           ;        software without specific prior written permission.
    48                           ; 
    49                           ; THIS SOFTWARE IS PROVIDED BY MICROCHIP "AS IS" AND ANY EXPRESS OR IMPLIED WARRANTIES,
    50                           ; INCLUDING, BUT NOT LIMITED TO, THE IMPLIED WARRANTIES OF MERCHANTABILITY AND FITNESS F
      +                          OR
    51                           ; PURPOSE ARE DISCLAIMED.  IN NO EVENT SHALL MICROCHIP BE LIABLE FOR ANY DIRECT, INDIREC
      +                          T,
    52                           ; INCIDENTAL, SPECIAL, EXEMPLARY, OR CONSEQUENTIAL DAMAGES (INCLUDING BUT NOT LIMITED TO
    53                           ; PROCUREMENT OF SUBSTITUTE GOODS OR SERVICES; LOSS OF USE, DATA OR PROFITS; OR BUSINESS
    54                           ; INTERRUPTION) HOWSOEVER CAUSED AND ON ANY THEORY OF LIABILITY, WHETHER IN CONTRACT, ST
      +                          RICT
    55                           ; LIABILITY, OR TORT (INCLUDING NEGLIGENCE OR OTHERWISE) ARISING IN ANY WAY OUT OF THE U
      +                          SE OF
    56                           ; THIS SOFTWARE, EVEN IF ADVISED OF THE POSSIBILITY OF SUCH DAMAGE.
    57                           ; 
    58                           ; 
    59                           ; Code-generator required, PIC16F1827 Definitions
    60                           ; 
    61                           ; SFR Addresses
    62  0000                     	;# 
    63  0001                     	;# 
    64  0002                     	;# 
    65  0003                     	;# 
    66  0004                     	;# 
    67  0005                     	;# 
    68  0006                     	;# 
    69  0007                     	;# 
    70  0008                     	;# 
    71  0009                     	;# 
    72  000A                     	;# 
    73  000B                     	;# 
    74  000C                     	;# 
    75  000D                     	;# 
    76  0011                     	;# 
    77  0012                     	;# 
    78  0013                     	;# 
    79  0014                     	;# 
    80  0015                     	;# 
    81  0016                     	;# 
    82  0016                     	;# 
    83  0017                     	;# 
    84  0018                     	;# 
    85  0019                     	;# 
    86  001A                     	;# 
    87  001B                     	;# 
    88  001C                     	;# 
    89  001E                     	;# 
    90  001F                     	;# 
    91  008C                     	;# 
    92  008D                     	;# 
    93  0091                     	;# 
    94  0092                     	;# 
    95  0093                     	;# 
    96  0094                     	;# 
    97  0095                     	;# 
    98  0096                     	;# 
    99  0097                     	;# 
   100  0098                     	;# 
   101  0099                     	;# 
   102  009A                     	;# 
   103  009B                     	;# 
   104  009B                     	;# 
   105  009C                     	;# 
   106  009D                     	;# 
   107  009E                     	;# 
   108  010C                     	;# 
   109  010D                     	;# 
   110  0111                     	;# 
   111  0112                     	;# 
   112  0113                     	;# 
   113  0114                     	;# 
   114  0115                     	;# 
   115  0116                     	;# 
   116  0117                     	;# 
   117  0118                     	;# 
   118  0119                     	;# 
   119  011A                     	;# 
   120  011B                     	;# 
   121  011D                     	;# 
   122  011E                     	;# 
   123  018C                     	;# 
   124  018D                     	;# 
   125  0191                     	;# 
   126  0191                     	;# 
   127  0192                     	;# 
   128  0193                     	;# 
   129  0193                     	;# 
   130  0193                     	;# 
   131  0194                     	;# 
   132  0195                     	;# 
   133  0196                     	;# 
   134  0199                     	;# 
   135  019A                     	;# 
   136  019B                     	;# 
   137  019B                     	;# 
   138  019B                     	;# 
   139  019B                     	;# 
   140  019C                     	;# 
   141  019C                     	;# 
   142  019D                     	;# 
   143  019E                     	;# 
   144  019F                     	;# 
   145  020C                     	;# 
   146  020D                     	;# 
   147  0211                     	;# 
   148  0211                     	;# 
   149  0212                     	;# 
   150  0212                     	;# 
   151  0213                     	;# 
   152  0213                     	;# 
   153  0214                     	;# 
   154  0214                     	;# 
   155  0215                     	;# 
   156  0215                     	;# 
   157  0215                     	;# 
   158  0216                     	;# 
   159  0216                     	;# 
   160  0217                     	;# 
   161  0217                     	;# 
   162  0219                     	;# 
   163  021A                     	;# 
   164  021B                     	;# 
   165  021C                     	;# 
   166  021D                     	;# 
   167  021E                     	;# 
   168  021F                     	;# 
   169  0291                     	;# 
   170  0291                     	;# 
   171  0292                     	;# 
   172  0293                     	;# 
   173  0294                     	;# 
   174  0295                     	;# 
   175  0295                     	;# 
   176  0296                     	;# 
   177  0298                     	;# 
   178  0298                     	;# 
   179  0299                     	;# 
   180  029A                     	;# 
   181  029B                     	;# 
   182  029C                     	;# 
   183  029C                     	;# 
   184  029D                     	;# 
   185  029E                     	;# 
   186  029E                     	;# 
   187  0311                     	;# 
   188  0311                     	;# 
   189  0312                     	;# 
   190  0313                     	;# 
   191  0318                     	;# 
   192  0318                     	;# 
   193  0319                     	;# 
   194  031A                     	;# 
   195  0394                     	;# 
   196  0395                     	;# 
   197  0396                     	;# 
   198  039A                     	;# 
   199  039C                     	;# 
   200  039D                     	;# 
   201  039E                     	;# 
   202  039F                     	;# 
   203  0415                     	;# 
   204  0416                     	;# 
   205  0417                     	;# 
   206  041C                     	;# 
   207  041D                     	;# 
   208  041E                     	;# 
   209  0FE4                     	;# 
   210  0FE5                     	;# 
   211  0FE6                     	;# 
   212  0FE7                     	;# 
   213  0FE8                     	;# 
   214  0FE9                     	;# 
   215  0FEA                     	;# 
   216  0FEB                     	;# 
   217  0FED                     	;# 
   218  0FEE                     	;# 
   219  0FEF                     	;# 
   220  0000                     	;# 
   221  0001                     	;# 
   222  0002                     	;# 
   223  0003                     	;# 
   224  0004                     	;# 
   225  0005                     	;# 
   226  0006                     	;# 
   227  0007                     	;# 
   228  0008                     	;# 
   229  0009                     	;# 
   230  000A                     	;# 
   231  000B                     	;# 
   232  000C                     	;# 
   233  000D                     	;# 
   234  0011                     	;# 
   235  0012                     	;# 
   236  0013                     	;# 
   237  0014                     	;# 
   238  0015                     	;# 
   239  0016                     	;# 
   240  0016                     	;# 
   241  0017                     	;# 
   242  0018                     	;# 
   243  0019                     	;# 
   244  001A                     	;# 
   245  001B                     	;# 
   246  001C                     	;# 
   247  001E                     	;# 
   248  001F                     	;# 
   249  008C                     	;# 
   250  008D                     	;# 
   251  0091                     	;# 
   252  0092                     	;# 
   253  0093                     	;# 
   254  0094                     	;# 
   255  0095                     	;# 
   256  0096                     	;# 
   257  0097                     	;# 
   258  0098                     	;# 
   259  0099                     	;# 
   260  009A                     	;# 
   261  009B                     	;# 
   262  009B                     	;# 
   263  009C                     	;# 
   264  009D                     	;# 
   265  009E                     	;# 
   266  010C                     	;# 
   267  010D                     	;# 
   268  0111                     	;# 
   269  0112                     	;# 
   270  0113                     	;# 
   271  0114                     	;# 
   272  0115                     	;# 
   273  0116                     	;# 
   274  0117                     	;# 
   275  0118                     	;# 
   276  0119                     	;# 
   277  011A                     	;# 
   278  011B                     	;# 
   279  011D                     	;# 
   280  011E                     	;# 
   281  018C                     	;# 
   282  018D                     	;# 
   283  0191                     	;# 
   284  0191                     	;# 
   285  0192                     	;# 
   286  0193                     	;# 
   287  0193                     	;# 
   288  0193                     	;# 
   289  0194                     	;# 
   290  0195                     	;# 
   291  0196                     	;# 
   292  0199                     	;# 
   293  019A                     	;# 
   294  019B                     	;# 
   295  019B                     	;# 
   296  019B                     	;# 
   297  019B                     	;# 
   298  019C                     	;# 
   299  019C                     	;# 
   300  019D                     	;# 
   301  019E                     	;# 
   302  019F                     	;# 
   303  020C                     	;# 
   304  020D                     	;# 
   305  0211                     	;# 
   306  0211                     	;# 
   307  0212                     	;# 
   308  0212                     	;# 
   309  0213                     	;# 
   310  0213                     	;# 
   311  0214                     	;# 
   312  0214                     	;# 
   313  0215                     	;# 
   314  0215                     	;# 
   315  0215                     	;# 
   316  0216                     	;# 
   317  0216                     	;# 
   318  0217                     	;# 
   319  0217                     	;# 
   320  0219                     	;# 
   321  021A                     	;# 
   322  021B                     	;# 
   323  021C                     	;# 
   324  021D                     	;# 
   325  021E                     	;# 
   326  021F                     	;# 
   327  0291                     	;# 
   328  0291                     	;# 
   329  0292                     	;# 
   330  0293                     	;# 
   331  0294                     	;# 
   332  0295                     	;# 
   333  0295                     	;# 
   334  0296                     	;# 
   335  0298                     	;# 
   336  0298                     	;# 
   337  0299                     	;# 
   338  029A                     	;# 
   339  029B                     	;# 
   340  029C                     	;# 
   341  029C                     	;# 
   342  029D                     	;# 
   343  029E                     	;# 
   344  029E                     	;# 
   345  0311                     	;# 
   346  0311                     	;# 
   347  0312                     	;# 
   348  0313                     	;# 
   349  0318                     	;# 
   350  0318                     	;# 
   351  0319                     	;# 
   352  031A                     	;# 
   353  0394                     	;# 
   354  0395                     	;# 
   355  0396                     	;# 
   356  039A                     	;# 
   357  039C                     	;# 
   358  039D                     	;# 
   359  039E                     	;# 
   360  039F                     	;# 
   361  0415                     	;# 
   362  0416                     	;# 
   363  0417                     	;# 
   364  041C                     	;# 
   365  041D                     	;# 
   366  041E                     	;# 
   367  0FE4                     	;# 
   368  0FE5                     	;# 
   369  0FE6                     	;# 
   370  0FE7                     	;# 
   371  0FE8                     	;# 
   372  0FE9                     	;# 
   373  0FEA                     	;# 
   374  0FEB                     	;# 
   375  0FED                     	;# 
   376  0FEE                     	;# 
   377  0FEF                     	;# 
   378  0000                     	;# 
   379  0001                     	;# 
   380  0002                     	;# 
   381  0003                     	;# 
   382  0004                     	;# 
   383  0005                     	;# 
   384  0006                     	;# 
   385  0007                     	;# 
   386  0008                     	;# 
   387  0009                     	;# 
   388  000A                     	;# 
   389  000B                     	;# 
   390  000C                     	;# 
   391  000D                     	;# 
   392  0011                     	;# 
   393  0012                     	;# 
   394  0013                     	;# 
   395  0014                     	;# 
   396  0015                     	;# 
   397  0016                     	;# 
   398  0016                     	;# 
   399  0017                     	;# 
   400  0018                     	;# 
   401  0019                     	;# 
   402  001A                     	;# 
   403  001B                     	;# 
   404  001C                     	;# 
   405  001E                     	;# 
   406  001F                     	;# 
   407  008C                     	;# 
   408  008D                     	;# 
   409  0091                     	;# 
   410  0092                     	;# 
   411  0093                     	;# 
   412  0094                     	;# 
   413  0095                     	;# 
   414  0096                     	;# 
   415  0097                     	;# 
   416  0098                     	;# 
   417  0099                     	;# 
   418  009A                     	;# 
   419  009B                     	;# 
   420  009B                     	;# 
   421  009C                     	;# 
   422  009D                     	;# 
   423  009E                     	;# 
   424  010C                     	;# 
   425  010D                     	;# 
   426  0111                     	;# 
   427  0112                     	;# 
   428  0113                     	;# 
   429  0114                     	;# 
   430  0115                     	;# 
   431  0116                     	;# 
   432  0117                     	;# 
   433  0118                     	;# 
   434  0119                     	;# 
   435  011A                     	;# 
   436  011B                     	;# 
   437  011D                     	;# 
   438  011E                     	;# 
   439  018C                     	;# 
   440  018D                     	;# 
   441  0191                     	;# 
   442  0191                     	;# 
   443  0192                     	;# 
   444  0193                     	;# 
   445  0193                     	;# 
   446  0193                     	;# 
   447  0194                     	;# 
   448  0195                     	;# 
   449  0196                     	;# 
   450  0199                     	;# 
   451  019A                     	;# 
   452  019B                     	;# 
   453  019B                     	;# 
   454  019B                     	;# 
   455  019B                     	;# 
   456  019C                     	;# 
   457  019C                     	;# 
   458  019D                     	;# 
   459  019E                     	;# 
   460  019F                     	;# 
   461  020C                     	;# 
   462  020D                     	;# 
   463  0211                     	;# 
   464  0211                     	;# 
   465  0212                     	;# 
   466  0212                     	;# 
   467  0213                     	;# 
   468  0213                     	;# 
   469  0214                     	;# 
   470  0214                     	;# 
   471  0215                     	;# 
   472  0215                     	;# 
   473  0215                     	;# 
   474  0216                     	;# 
   475  0216                     	;# 
   476  0217                     	;# 
   477  0217                     	;# 
   478  0219                     	;# 
   479  021A                     	;# 
   480  021B                     	;# 
   481  021C                     	;# 
   482  021D                     	;# 
   483  021E                     	;# 
   484  021F                     	;# 
   485  0291                     	;# 
   486  0291                     	;# 
   487  0292                     	;# 
   488  0293                     	;# 
   489  0294                     	;# 
   490  0295                     	;# 
   491  0295                     	;# 
   492  0296                     	;# 
   493  0298                     	;# 
   494  0298                     	;# 
   495  0299                     	;# 
   496  029A                     	;# 
   497  029B                     	;# 
   498  029C                     	;# 
   499  029C                     	;# 
   500  029D                     	;# 
   501  029E                     	;# 
   502  029E                     	;# 
   503  0311                     	;# 
   504  0311                     	;# 
   505  0312                     	;# 
   506  0313                     	;# 
   507  0318                     	;# 
   508  0318                     	;# 
   509  0319                     	;# 
   510  031A                     	;# 
   511  0394                     	;# 
   512  0395                     	;# 
   513  0396                     	;# 
   514  039A                     	;# 
   515  039C                     	;# 
   516  039D                     	;# 
   517  039E                     	;# 
   518  039F                     	;# 
   519  0415                     	;# 
   520  0416                     	;# 
   521  0417                     	;# 
   522  041C                     	;# 
   523  041D                     	;# 
   524  041E                     	;# 
   525  0FE4                     	;# 
   526  0FE5                     	;# 
   527  0FE6                     	;# 
   528  0FE7                     	;# 
   529  0FE8                     	;# 
   530  0FE9                     	;# 
   531  0FEA                     	;# 
   532  0FEB                     	;# 
   533  0FED                     	;# 
   534  0FEE                     	;# 
   535  0FEF                     	;# 
   536  0000                     	;# 
   537  0001                     	;# 
   538  0002                     	;# 
   539  0003                     	;# 
   540  0004                     	;# 
   541  0005                     	;# 
   542  0006                     	;# 
   543  0007                     	;# 
   544  0008                     	;# 
   545  0009                     	;# 
   546  000A                     	;# 
   547  000B                     	;# 
   548  000C                     	;# 
   549  000D                     	;# 
   550  0011                     	;# 
   551  0012                     	;# 
   552  0013                     	;# 
   553  0014                     	;# 
   554  0015                     	;# 
   555  0016                     	;# 
   556  0016                     	;# 
   557  0017                     	;# 
   558  0018                     	;# 
   559  0019                     	;# 
   560  001A                     	;# 
   561  001B                     	;# 
   562  001C                     	;# 
   563  001E                     	;# 
   564  001F                     	;# 
   565  008C                     	;# 
   566  008D                     	;# 
   567  0091                     	;# 
   568  0092                     	;# 
   569  0093                     	;# 
   570  0094                     	;# 
   571  0095                     	;# 
   572  0096                     	;# 
   573  0097                     	;# 
   574  0098                     	;# 
   575  0099                     	;# 
   576  009A                     	;# 
   577  009B                     	;# 
   578  009B                     	;# 
   579  009C                     	;# 
   580  009D                     	;# 
   581  009E                     	;# 
   582  010C                     	;# 
   583  010D                     	;# 
   584  0111                     	;# 
   585  0112                     	;# 
   586  0113                     	;# 
   587  0114                     	;# 
   588  0115                     	;# 
   589  0116                     	;# 
   590  0117                     	;# 
   591  0118                     	;# 
   592  0119                     	;# 
   593  011A                     	;# 
   594  011B                     	;# 
   595  011D                     	;# 
   596  011E                     	;# 
   597  018C                     	;# 
   598  018D                     	;# 
   599  0191                     	;# 
   600  0191                     	;# 
   601  0192                     	;# 
   602  0193                     	;# 
   603  0193                     	;# 
   604  0193                     	;# 
   605  0194                     	;# 
   606  0195                     	;# 
   607  0196                     	;# 
   608  0199                     	;# 
   609  019A                     	;# 
   610  019B                     	;# 
   611  019B                     	;# 
   612  019B                     	;# 
   613  019B                     	;# 
   614  019C                     	;# 
   615  019C                     	;# 
   616  019D                     	;# 
   617  019E                     	;# 
   618  019F                     	;# 
   619  020C                     	;# 
   620  020D                     	;# 
   621  0211                     	;# 
   622  0211                     	;# 
   623  0212                     	;# 
   624  0212                     	;# 
   625  0213                     	;# 
   626  0213                     	;# 
   627  0214                     	;# 
   628  0214                     	;# 
   629  0215                     	;# 
   630  0215                     	;# 
   631  0215                     	;# 
   632  0216                     	;# 
   633  0216                     	;# 
   634  0217                     	;# 
   635  0217                     	;# 
   636  0219                     	;# 
   637  021A                     	;# 
   638  021B                     	;# 
   639  021C                     	;# 
   640  021D                     	;# 
   641  021E                     	;# 
   642  021F                     	;# 
   643  0291                     	;# 
   644  0291                     	;# 
   645  0292                     	;# 
   646  0293                     	;# 
   647  0294                     	;# 
   648  0295                     	;# 
   649  0295                     	;# 
   650  0296                     	;# 
   651  0298                     	;# 
   652  0298                     	;# 
   653  0299                     	;# 
   654  029A                     	;# 
   655  029B                     	;# 
   656  029C                     	;# 
   657  029C                     	;# 
   658  029D                     	;# 
   659  029E                     	;# 
   660  029E                     	;# 
   661  0311                     	;# 
   662  0311                     	;# 
   663  0312                     	;# 
   664  0313                     	;# 
   665  0318                     	;# 
   666  0318                     	;# 
   667  0319                     	;# 
   668  031A                     	;# 
   669  0394                     	;# 
   670  0395                     	;# 
   671  0396                     	;# 
   672  039A                     	;# 
   673  039C                     	;# 
   674  039D                     	;# 
   675  039E                     	;# 
   676  039F                     	;# 
   677  0415                     	;# 
   678  0416                     	;# 
   679  0417                     	;# 
   680  041C                     	;# 
   681  041D                     	;# 
   682  041E                     	;# 
   683  0FE4                     	;# 
   684  0FE5                     	;# 
   685  0FE6                     	;# 
   686  0FE7                     	;# 
   687  0FE8                     	;# 
   688  0FE9                     	;# 
   689  0FEA                     	;# 
   690  0FEB                     	;# 
   691  0FED                     	;# 
   692  0FEE                     	;# 
   693  0FEF                     	;# 
   694  0000                     	;# 
   695  0001                     	;# 
   696  0002                     	;# 
   697  0003                     	;# 
   698  0004                     	;# 
   699  0005                     	;# 
   700  0006                     	;# 
   701  0007                     	;# 
   702  0008                     	;# 
   703  0009                     	;# 
   704  000A                     	;# 
   705  000B                     	;# 
   706  000C                     	;# 
   707  000D                     	;# 
   708  0011                     	;# 
   709  0012                     	;# 
   710  0013                     	;# 
   711  0014                     	;# 
   712  0015                     	;# 
   713  0016                     	;# 
   714  0016                     	;# 
   715  0017                     	;# 
   716  0018                     	;# 
   717  0019                     	;# 
   718  001A                     	;# 
   719  001B                     	;# 
   720  001C                     	;# 
   721  001E                     	;# 
   722  001F                     	;# 
   723  008C                     	;# 
   724  008D                     	;# 
   725  0091                     	;# 
   726  0092                     	;# 
   727  0093                     	;# 
   728  0094                     	;# 
   729  0095                     	;# 
   730  0096                     	;# 
   731  0097                     	;# 
   732  0098                     	;# 
   733  0099                     	;# 
   734  009A                     	;# 
   735  009B                     	;# 
   736  009B                     	;# 
   737  009C                     	;# 
   738  009D                     	;# 
   739  009E                     	;# 
   740  010C                     	;# 
   741  010D                     	;# 
   742  0111                     	;# 
   743  0112                     	;# 
   744  0113                     	;# 
   745  0114                     	;# 
   746  0115                     	;# 
   747  0116                     	;# 
   748  0117                     	;# 
   749  0118                     	;# 
   750  0119                     	;# 
   751  011A                     	;# 
   752  011B                     	;# 
   753  011D                     	;# 
   754  011E                     	;# 
   755  018C                     	;# 
   756  018D                     	;# 
   757  0191                     	;# 
   758  0191                     	;# 
   759  0192                     	;# 
   760  0193                     	;# 
   761  0193                     	;# 
   762  0193                     	;# 
   763  0194                     	;# 
   764  0195                     	;# 
   765  0196                     	;# 
   766  0199                     	;# 
   767  019A                     	;# 
   768  019B                     	;# 
   769  019B                     	;# 
   770  019B                     	;# 
   771  019B                     	;# 
   772  019C                     	;# 
   773  019C                     	;# 
   774  019D                     	;# 
   775  019E                     	;# 
   776  019F                     	;# 
   777  020C                     	;# 
   778  020D                     	;# 
   779  0211                     	;# 
   780  0211                     	;# 
   781  0212                     	;# 
   782  0212                     	;# 
   783  0213                     	;# 
   784  0213                     	;# 
   785  0214                     	;# 
   786  0214                     	;# 
   787  0215                     	;# 
   788  0215                     	;# 
   789  0215                     	;# 
   790  0216                     	;# 
   791  0216                     	;# 
   792  0217                     	;# 
   793  0217                     	;# 
   794  0219                     	;# 
   795  021A                     	;# 
   796  021B                     	;# 
   797  021C                     	;# 
   798  021D                     	;# 
   799  021E                     	;# 
   800  021F                     	;# 
   801  0291                     	;# 
   802  0291                     	;# 
   803  0292                     	;# 
   804  0293                     	;# 
   805  0294                     	;# 
   806  0295                     	;# 
   807  0295                     	;# 
   808  0296                     	;# 
   809  0298                     	;# 
   810  0298                     	;# 
   811  0299                     	;# 
   812  029A                     	;# 
   813  029B                     	;# 
   814  029C                     	;# 
   815  029C                     	;# 
   816  029D                     	;# 
   817  029E                     	;# 
   818  029E                     	;# 
   819  0311                     	;# 
   820  0311                     	;# 
   821  0312                     	;# 
   822  0313                     	;# 
   823  0318                     	;# 
   824  0318                     	;# 
   825  0319                     	;# 
   826  031A                     	;# 
   827  0394                     	;# 
   828  0395                     	;# 
   829  0396                     	;# 
   830  039A                     	;# 
   831  039C                     	;# 
   832  039D                     	;# 
   833  039E                     	;# 
   834  039F                     	;# 
   835  0415                     	;# 
   836  0416                     	;# 
   837  0417                     	;# 
   838  041C                     	;# 
   839  041D                     	;# 
   840  041E                     	;# 
   841  0FE4                     	;# 
   842  0FE5                     	;# 
   843  0FE6                     	;# 
   844  0FE7                     	;# 
   845  0FE8                     	;# 
   846  0FE9                     	;# 
   847  0FEA                     	;# 
   848  0FEB                     	;# 
   849  0FED                     	;# 
   850  0FEE                     	;# 
   851  0FEF                     	;# 
   852  0000                     	;# 
   853  0001                     	;# 
   854  0002                     	;# 
   855  0003                     	;# 
   856  0004                     	;# 
   857  0005                     	;# 
   858  0006                     	;# 
   859  0007                     	;# 
   860  0008                     	;# 
   861  0009                     	;# 
   862  000A                     	;# 
   863  000B                     	;# 
   864  000C                     	;# 
   865  000D                     	;# 
   866  0011                     	;# 
   867  0012                     	;# 
   868  0013                     	;# 
   869  0014                     	;# 
   870  0015                     	;# 
   871  0016                     	;# 
   872  0016                     	;# 
   873  0017                     	;# 
   874  0018                     	;# 
   875  0019                     	;# 
   876  001A                     	;# 
   877  001B                     	;# 
   878  001C                     	;# 
   879  001E                     	;# 
   880  001F                     	;# 
   881  008C                     	;# 
   882  008D                     	;# 
   883  0091                     	;# 
   884  0092                     	;# 
   885  0093                     	;# 
   886  0094                     	;# 
   887  0095                     	;# 
   888  0096                     	;# 
   889  0097                     	;# 
   890  0098                     	;# 
   891  0099                     	;# 
   892  009A                     	;# 
   893  009B                     	;# 
   894  009B                     	;# 
   895  009C                     	;# 
   896  009D                     	;# 
   897  009E                     	;# 
   898  010C                     	;# 
   899  010D                     	;# 
   900  0111                     	;# 
   901  0112                     	;# 
   902  0113                     	;# 
   903  0114                     	;# 
   904  0115                     	;# 
   905  0116                     	;# 
   906  0117                     	;# 
   907  0118                     	;# 
   908  0119                     	;# 
   909  011A                     	;# 
   910  011B                     	;# 
   911  011D                     	;# 
   912  011E                     	;# 
   913  018C                     	;# 
   914  018D                     	;# 
   915  0191                     	;# 
   916  0191                     	;# 
   917  0192                     	;# 
   918  0193                     	;# 
   919  0193                     	;# 
   920  0193                     	;# 
   921  0194                     	;# 
   922  0195                     	;# 
   923  0196                     	;# 
   924  0199                     	;# 
   925  019A                     	;# 
   926  019B                     	;# 
   927  019B                     	;# 
   928  019B                     	;# 
   929  019B                     	;# 
   930  019C                     	;# 
   931  019C                     	;# 
   932  019D                     	;# 
   933  019E                     	;# 
   934  019F                     	;# 
   935  020C                     	;# 
   936  020D                     	;# 
   937  0211                     	;# 
   938  0211                     	;# 
   939  0212                     	;# 
   940  0212                     	;# 
   941  0213                     	;# 
   942  0213                     	;# 
   943  0214                     	;# 
   944  0214                     	;# 
   945  0215                     	;# 
   946  0215                     	;# 
   947  0215                     	;# 
   948  0216                     	;# 
   949  0216                     	;# 
   950  0217                     	;# 
   951  0217                     	;# 
   952  0219                     	;# 
   953  021A                     	;# 
   954  021B                     	;# 
   955  021C                     	;# 
   956  021D                     	;# 
   957  021E                     	;# 
   958  021F                     	;# 
   959  0291                     	;# 
   960  0291                     	;# 
   961  0292                     	;# 
   962  0293                     	;# 
   963  0294                     	;# 
   964  0295                     	;# 
   965  0295                     	;# 
   966  0296                     	;# 
   967  0298                     	;# 
   968  0298                     	;# 
   969  0299                     	;# 
   970  029A                     	;# 
   971  029B                     	;# 
   972  029C                     	;# 
   973  029C                     	;# 
   974  029D                     	;# 
   975  029E                     	;# 
   976  029E                     	;# 
   977  0311                     	;# 
   978  0311                     	;# 
   979  0312                     	;# 
   980  0313                     	;# 
   981  0318                     	;# 
   982  0318                     	;# 
   983  0319                     	;# 
   984  031A                     	;# 
   985  0394                     	;# 
   986  0395                     	;# 
   987  0396                     	;# 
   988  039A                     	;# 
   989  039C                     	;# 
   990  039D                     	;# 
   991  039E                     	;# 
   992  039F                     	;# 
   993  0415                     	;# 
   994  0416                     	;# 
   995  0417                     	;# 
   996  041C                     	;# 
   997  041D                     	;# 
   998  041E                     	;# 
   999  0FE4                     	;# 
  1000  0FE5                     	;# 
  1001  0FE6                     	;# 
  1002  0FE7                     	;# 
  1003  0FE8                     	;# 
  1004  0FE9                     	;# 
  1005  0FEA                     	;# 
  1006  0FEB                     	;# 
  1007  0FED                     	;# 
  1008  0FEE                     	;# 
  1009  0FEF                     	;# 
  1010  000D                     _PORTBbits	set	13
  1011  0013                     _PIR3bits	set	19
  1012  000B                     _INTCONbits	set	11
  1013  0097                     _WDTCON	set	151
  1014  0098                     _OSCTUNE	set	152
  1015  0099                     _OSCCON	set	153
  1016  0095                     _OPTION_REGbits	set	149
  1017  008D                     _TRISB	set	141
  1018  008C                     _TRISA	set	140
  1019  0093                     _PIE3bits	set	147
  1020  04D6                     _PLLR	set	1238
  1021  010D                     _LATBbits	set	269
  1022  011D                     _APFCON0	set	285
  1023  011E                     _APFCON1	set	286
  1024  010D                     _LATB	set	269
  1025  010C                     _LATA	set	268
  1026  018C                     _ANSELA	set	396
  1027  018D                     _ANSELB	set	397
  1028  020C                     _WPUA	set	524
  1029  020D                     _WPUB	set	525
  1030  041E                     _T6CONbits	set	1054
  1031  041C                     _TMR6	set	1052
  1032  041D                     _PR6	set	1053
  1033  041E                     _T6CON	set	1054
  1034                           
  1035                           ; #config settings
  1036  0000                     
  1037                           	psect	cinit
  1038  001A                     start_initialization:	
  1039  001A                     __initialization:	
  1040                           
  1041                           ; Clear objects allocated to BITCOMMON
  1042  001A  01FA               	clrf	(__pbitbssCOMMON/(0+8))& (0+127)
  1043                           
  1044                           ; Clear objects allocated to COMMON
  1045  001B  01FB               	clrf	__pbssCOMMON& (0+127)
  1046                           
  1047                           ; Clear objects allocated to BANK0
  1048  001C  0020               	movlb	0	; select bank0
  1049  001D  01A0               	clrf	__pbssBANK0& (0+127)
  1050  001E  01A1               	clrf	(__pbssBANK0+1)& (0+127)
  1051  001F  01A2               	clrf	(__pbssBANK0+2)& (0+127)
  1052  0020  01A3               	clrf	(__pbssBANK0+3)& (0+127)
  1053  0021  01A4               	clrf	(__pbssBANK0+4)& (0+127)
  1054  0022  01A5               	clrf	(__pbssBANK0+5)& (0+127)
  1055  0023  01A6               	clrf	(__pbssBANK0+6)& (0+127)
  1056  0024  01A7               	clrf	(__pbssBANK0+7)& (0+127)
  1057  0025  01A8               	clrf	(__pbssBANK0+8)& (0+127)
  1058  0026  01A9               	clrf	(__pbssBANK0+9)& (0+127)
  1059  0027  01AA               	clrf	(__pbssBANK0+10)& (0+127)
  1060  0028  01AB               	clrf	(__pbssBANK0+11)& (0+127)
  1061  0029                     end_of_initialization:	
  1062                           ;End of C runtime variable initialization code
  1063                           
  1064  0029                     __end_of__initialization:	
  1065  0029  107E               	bcf	int$flags,0	;clear compiler interrupt flag (level 1)
  1066  002A  0020               	movlb	0
  1067  002B  3181  2943         	ljmp	_main	;jump to C main() function
  1068                           
  1069                           	psect	bitbssCOMMON
  1070  03D0                     __pbitbssCOMMON:	
  1071  03D0                     _uzunBasildi:	
  1072  03D0                     	ds	1
  1073                           
  1074                           	psect	bssCOMMON
  1075  007B                     __pbssCOMMON:	
  1076  007B                     _butonNo:	
  1077  007B                     	ds	1
  1078                           
  1079                           	psect	bssBANK0
  1080  0020                     __pbssBANK0:	
  1081  0020                     _butonSure:	
  1082  0020                     	ds	4
  1083  0024                     __msaniye:	
  1084  0024                     	ds	4
  1085  0028                     _TMR6_InterruptHandler:	
  1086  0028                     	ds	2
  1087  002A                     _oncekiButon:	
  1088  002A                     	ds	1
  1089  002B                     _butonDurumu:	
  1090  002B                     	ds	1
  1091                           
  1092                           	psect	cstackCOMMON
  1093  0070                     __pcstackCOMMON:	
  1094  0070                     ?_TMR6_ISR:	
  1095  0070                     ??_TMR6_ISR:	
  1096                           ; 1 bytes @ 0x0
  1097                           
  1098  0070                     ?_TMR6_DefaultInterruptHandler:	
  1099                           ; 1 bytes @ 0x0
  1100                           
  1101  0070                     ??_TMR6_DefaultInterruptHandler:	
  1102                           ; 1 bytes @ 0x0
  1103                           
  1104  0070                     ?_TMR6_StartTimer:	
  1105                           ; 1 bytes @ 0x0
  1106                           
  1107  0070                     ?_OSCILLATOR_Initialize:	
  1108                           ; 1 bytes @ 0x0
  1109                           
  1110  0070                     ?_WDT_Initialize:	
  1111                           ; 1 bytes @ 0x0
  1112                           
  1113  0070                     ?__miliSaat:	
  1114                           ; 1 bytes @ 0x0
  1115                           
  1116  0070                     ??__miliSaat:	
  1117                           ; 1 bytes @ 0x0
  1118                           
  1119  0070                     ?_buton_oku:	
  1120                           ; 1 bytes @ 0x0
  1121                           
  1122  0070                     ?_buton_kontrol:	
  1123                           ; 1 bytes @ 0x0
  1124                           
  1125  0070                     ?_INTERRUPT_InterruptManager:	
  1126                           ; 1 bytes @ 0x0
  1127                           
  1128  0070                     ??_INTERRUPT_InterruptManager:	
  1129                           ; 1 bytes @ 0x0
  1130                           
  1131  0070                     ?_TMR6_Initialize:	
  1132                           ; 1 bytes @ 0x0
  1133                           
  1134  0070                     ?_PIN_MANAGER_Initialize:	
  1135                           ; 1 bytes @ 0x0
  1136                           
  1137  0070                     ?_SYSTEM_Initialize:	
  1138                           ; 1 bytes @ 0x0
  1139                           
  1140  0070                     ?_main:	
  1141                           ; 1 bytes @ 0x0
  1142                           
  1143                           
  1144                           ; 1 bytes @ 0x0
  1145  0070                     	ds	1
  1146  0071                     ?_TMR6_SetInterruptHandler:	
  1147  0071                     ??_TMR6_StartTimer:	
  1148                           ; 1 bytes @ 0x1
  1149                           
  1150  0071                     ??_OSCILLATOR_Initialize:	
  1151                           ; 1 bytes @ 0x1
  1152                           
  1153  0071                     ??_WDT_Initialize:	
  1154                           ; 1 bytes @ 0x1
  1155                           
  1156  0071                     ??_PIN_MANAGER_Initialize:	
  1157                           ; 1 bytes @ 0x1
  1158                           
  1159  0071                     ?_miliSaniye:	
  1160                           ; 1 bytes @ 0x1
  1161                           
  1162  0071                     TMR6_SetInterruptHandler@InterruptHandler:	
  1163                           ; 4 bytes @ 0x1
  1164                           
  1165                           
  1166                           ; 2 bytes @ 0x1
  1167  0071                     	ds	2
  1168  0073                     ??_TMR6_SetInterruptHandler:	
  1169  0073                     ??_TMR6_Initialize:	
  1170                           ; 1 bytes @ 0x3
  1171                           
  1172  0073                     ??_SYSTEM_Initialize:	
  1173                           ; 1 bytes @ 0x3
  1174                           
  1175                           
  1176                           ; 1 bytes @ 0x3
  1177  0073                     	ds	2
  1178  0075                     ??_buton_kontrol:	
  1179  0075                     ??_miliSaniye:	
  1180                           ; 1 bytes @ 0x5
  1181                           
  1182                           
  1183                           ; 1 bytes @ 0x5
  1184  0075                     	ds	4
  1185  0079                     ??_buton_oku:	
  1186                           
  1187                           ; 1 bytes @ 0x9
  1188  0079                     	ds	1
  1189                           
  1190                           	psect	cstackBANK0
  1191  002C                     __pcstackBANK0:	
  1192  002C                     ??_main:	
  1193                           
  1194                           ; 1 bytes @ 0x0
  1195  002C                     	ds	2
  1196                           
  1197                           	psect	maintext
  1198  0143                     __pmaintext:	
  1199 ;;
  1200 ;;Main: autosize = 0, tempsize = 2, incstack = 0, save=0
  1201 ;;
  1202 ;; *************** function _main *****************
  1203 ;; Defined at:
  1204 ;;		line 54 in file "main.c"
  1205 ;; Parameters:    Size  Location     Type
  1206 ;;		None
  1207 ;; Auto vars:     Size  Location     Type
  1208 ;;		None
  1209 ;; Return value:  Size  Location     Type
  1210 ;;                  1    wreg      void 
  1211 ;; Registers used:
  1212 ;;		wreg, fsr0l, fsr0h, status,2, status,0, pclath, cstack
  1213 ;; Tracked objects:
  1214 ;;		On entry : B1F/0
  1215 ;;		On exit  : 0/0
  1216 ;;		Unchanged: 0/0
  1217 ;; Data sizes:     COMMON   BANK0   BANK1   BANK2   BANK3   BANK4
  1218 ;;      Params:         0       0       0       0       0       0
  1219 ;;      Locals:         0       0       0       0       0       0
  1220 ;;      Temps:          0       2       0       0       0       0
  1221 ;;      Totals:         0       2       0       0       0       0
  1222 ;;Total ram usage:        2 bytes
  1223 ;; Hardware stack levels required when called:    6
  1224 ;; This function calls:
  1225 ;;		_SYSTEM_Initialize
  1226 ;;		_TMR6_SetInterruptHandler
  1227 ;;		_buton_oku
  1228 ;; This function is called by:
  1229 ;;		Startup code after reset
  1230 ;; This function uses a non-reentrant model
  1231 ;;
  1232                           
  1233                           
  1234                           ;psect for function _main
  1235  0143                     _main:	
  1236                           
  1237                           ;main.c: 57: SYSTEM_Initialize();
  1238                           
  1239                           ;incstack = 0
  1240                           ; Regs used in _main: [wreg-fsr0h+status,2+status,0+pclath+cstack]
  1241  0143  3182  221B  3181   	fcall	_SYSTEM_Initialize
  1242                           
  1243                           ;main.c: 61: TMR6_SetInterruptHandler(_miliSaat);
  1244  0146  303D               	movlw	low __miliSaat
  1245  0147  00F1               	movwf	TMR6_SetInterruptHandler@InterruptHandler
  1246  0148  3002               	movlw	high __miliSaat
  1247  0149  00F2               	movwf	TMR6_SetInterruptHandler@InterruptHandler+1
  1248  014A  3182  224E  3181   	fcall	_TMR6_SetInterruptHandler
  1249                           
  1250                           ;main.c: 67: (INTCONbits.GIE = 1);
  1251  014D  178B               	bsf	11,7	;volatile
  1252                           
  1253                           ;main.c: 70: (INTCONbits.PEIE = 1);
  1254  014E  170B               	bsf	11,6	;volatile
  1255                           
  1256                           ;main.c: 78: do { LATBbits.LATB4 = 1; } while(0);
  1257  014F  0022               	movlb	2	; select bank2
  1258  0150  160D               	bsf	13,4	;volatile
  1259                           
  1260                           ;main.c: 79: do { LATBbits.LATB5 = 1; } while(0);
  1261  0151  168D               	bsf	13,5	;volatile
  1262                           
  1263                           ;main.c: 80: do { LATBbits.LATB6 = 1; } while(0);
  1264  0152  170D               	bsf	13,6	;volatile
  1265                           
  1266                           ;main.c: 81: do { LATBbits.LATB7 = 1; } while(0);
  1267  0153  178D               	bsf	13,7	;volatile
  1268                           
  1269                           ;main.c: 82: _delay((unsigned long)((500)*(32000000/4000.0)));
  1270  0154  3015               	movlw	21
  1271  0155  0020               	movlb	0	; select bank0
  1272  0156  00AD               	movwf	??_main+1
  1273  0157  304B               	movlw	75
  1274  0158  00AC               	movwf	??_main
  1275  0159  30BE               	movlw	190
  1276  015A                     u757:	
  1277  015A  0B89               	decfsz	9,f
  1278  015B  295A               	goto	u757
  1279  015C  0BAC               	decfsz	??_main,f
  1280  015D  295A               	goto	u757
  1281  015E  0BAD               	decfsz	??_main+1,f
  1282  015F  295A               	goto	u757
  1283  0160  0000               	nop
  1284                           
  1285                           ;main.c: 83: do { LATBbits.LATB4 = 0; } while(0);
  1286  0161  0022               	movlb	2	; select bank2
  1287  0162  120D               	bcf	13,4	;volatile
  1288                           
  1289                           ;main.c: 84: do { LATBbits.LATB5 = 0; } while(0);
  1290  0163  128D               	bcf	13,5	;volatile
  1291  0164  29B7               	goto	L1
  1292  0165                     l1250:	
  1293                           ;main.c: 96: do { LATBbits.LATB4 = ~LATBbits.LATB4; } while(0);
  1294                           
  1295                           ;main.c: 95: case BASILDI:
  1296                           
  1297                           ;main.c: 94: switch (butonDurumu) {
  1298                           
  1299                           ;main.c: 93: case 1:
  1300                           
  1301                           ;main.c: 91: switch (buton_oku()) {
  1302                           
  1303                           ;main.c: 88: while (1) {
  1304                           
  1305                           ;main.c: 86: do { LATBbits.LATB7 = 0; } while(0);
  1306                           
  1307                           ;main.c: 85: do { LATBbits.LATB6 = 0; } while(0);
  1308                           
  1309  0165  1003               	clrc
  1310  0166  0022               	movlb	2	; select bank2
  1311  0167  1E0D               	btfss	13,4	;volatile
  1312  0168  1403               	setc
  1313  0169  1C03               	btfss	3,0
  1314  016A  296E               	goto	u630
  1315  016B  0022               	movlb	2	; select bank2
  1316  016C  160D               	bsf	13,4	;volatile
  1317  016D  29C6               	goto	l1276
  1318  016E                     u630:	
  1319  016E  0022               	movlb	2	; select bank2
  1320  016F  120D               	bcf	13,4	;volatile
  1321                           
  1322                           ;main.c: 97: break;
  1323  0170  29C6               	goto	l1276
  1324  0171                     l1252:	
  1325                           ;main.c: 99: do { LATBbits.LATB5 = ~LATBbits.LATB5; } while(0);
  1326                           
  1327                           ;main.c: 98: case UZUN_BASILDI:
  1328                           
  1329  0171  1003               	clrc
  1330  0172  0022               	movlb	2	; select bank2
  1331  0173  1E8D               	btfss	13,5	;volatile
  1332  0174  1403               	setc
  1333  0175  1C03               	btfss	3,0
  1334  0176  297A               	goto	u650
  1335  0177  0022               	movlb	2	; select bank2
  1336  0178  168D               	bsf	13,5	;volatile
  1337  0179  29C6               	goto	l1276
  1338  017A                     u650:	
  1339  017A  0022               	movlb	2	; select bank2
  1340  017B  2987               	goto	l1256
  1341  017C                     l1254:	
  1342                           ;main.c: 102: do { LATBbits.LATB4 = ~LATBbits.LATB4; } while(0);
  1343                           
  1344                           ;main.c: 101: case BIRAKILDI:
  1345                           
  1346                           ;main.c: 100: break;
  1347                           
  1348  017C  1003               	clrc
  1349  017D  0022               	movlb	2	; select bank2
  1350  017E  1E0D               	btfss	13,4	;volatile
  1351  017F  1403               	setc
  1352  0180  1C03               	btfss	3,0
  1353  0181  2985               	goto	u670
  1354  0182  0022               	movlb	2	; select bank2
  1355  0183  160D               	bsf	13,4	;volatile
  1356  0184  2987               	goto	l1256
  1357  0185                     u670:	
  1358  0185  0022               	movlb	2	; select bank2
  1359  0186  120D               	bcf	13,4	;volatile
  1360  0187                     l1256:	
  1361                           ;main.c: 103: do { LATBbits.LATB5 = 0; } while(0);
  1362                           
  1363  0187  128D               	bcf	13,5	;volatile
  1364                           
  1365                           ;main.c: 105: }
  1366                           
  1367                           ;main.c: 104: break;
  1368  0188  29C6               	goto	l1276
  1369  0189                     l1260:	
  1370  0189  0020               	movlb	0	; select bank0
  1371  018A  082B               	movf	_butonDurumu,w
  1372                           
  1373                           ; Switch size 1, requested type "space"
  1374                           ; Number of cases is 3, Range of values is 2 to 6
  1375                           ; switch strategies available:
  1376                           ; Name         Instructions Cycles
  1377                           ; simple_byte           10     6 (average)
  1378                           ; direct_byte           19     9 (fixed)
  1379                           ; jumptable            263     9 (fixed)
  1380                           ;	Chosen strategy is simple_byte
  1381  018B  3A02               	xorlw	2	; case 2
  1382  018C  1903               	skipnz
  1383  018D  2965               	goto	l1250
  1384  018E  3A06               	xorlw	6	; case 4
  1385  018F  1903               	skipnz
  1386  0190  2971               	goto	l1252
  1387  0191  3A02               	xorlw	2	; case 6
  1388  0192  1903               	skipnz
  1389  0193  297C               	goto	l1254
  1390  0194  29C6               	goto	l1276
  1391                           
  1392                           ;main.c: 106: break;
  1393  0195  29C6               	goto	l1276
  1394  0196                     l1262:	
  1395                           ;main.c: 112: do { LATBbits.LATB6 = ~LATBbits.LATB6; } while(0);
  1396                           
  1397                           ;main.c: 111: case BASILDI:
  1398                           
  1399                           ;main.c: 110: switch (butonDurumu) {
  1400                           
  1401                           ;main.c: 109: case 2:
  1402                           
  1403  0196  1003               	clrc
  1404  0197  0022               	movlb	2	; select bank2
  1405  0198  1F0D               	btfss	13,6	;volatile
  1406  0199  1403               	setc
  1407  019A  1C03               	btfss	3,0
  1408  019B  299F               	goto	u690
  1409  019C  0022               	movlb	2	; select bank2
  1410  019D  170D               	bsf	13,6	;volatile
  1411  019E  29C6               	goto	l1276
  1412  019F                     u690:	
  1413  019F  0022               	movlb	2	; select bank2
  1414  01A0  130D               	bcf	13,6	;volatile
  1415                           
  1416                           ;main.c: 113: break;
  1417  01A1  29C6               	goto	l1276
  1418  01A2                     l1264:	
  1419                           ;main.c: 115: do { LATBbits.LATB7 = ~LATBbits.LATB7; } while(0);
  1420                           
  1421                           ;main.c: 114: case UZUN_BASILDI:
  1422                           
  1423  01A2  1003               	clrc
  1424  01A3  0022               	movlb	2	; select bank2
  1425  01A4  1F8D               	btfss	13,7	;volatile
  1426  01A5  1403               	setc
  1427  01A6  1C03               	btfss	3,0
  1428  01A7  29AB               	goto	u710
  1429  01A8  0022               	movlb	2	; select bank2
  1430  01A9  178D               	bsf	13,7	;volatile
  1431  01AA  29C6               	goto	l1276
  1432  01AB                     u710:	
  1433  01AB  0022               	movlb	2	; select bank2
  1434  01AC  29B8               	goto	l1268
  1435  01AD                     l1266:	
  1436                           ;main.c: 118: do { LATBbits.LATB6 = ~LATBbits.LATB6; } while(0);
  1437                           
  1438                           ;main.c: 117: case BIRAKILDI:
  1439                           
  1440                           ;main.c: 116: break;
  1441                           
  1442  01AD  1003               	clrc
  1443  01AE  0022               	movlb	2	; select bank2
  1444  01AF  1F0D               	btfss	13,6	;volatile
  1445  01B0  1403               	setc
  1446  01B1  1C03               	btfss	3,0
  1447  01B2  29B6               	goto	u730
  1448  01B3  0022               	movlb	2	; select bank2
  1449  01B4  170D               	bsf	13,6	;volatile
  1450  01B5  29B8               	goto	l1268
  1451  01B6                     u730:	
  1452  01B6  0022               	movlb	2	; select bank2
  1453  01B7                     L1:	
  1454  01B7  130D               	bcf	13,6	;volatile
  1455  01B8                     l1268:	
  1456                           ;main.c: 119: do { LATBbits.LATB7 = 0; } while(0);
  1457                           
  1458  01B8  138D               	bcf	13,7	;volatile
  1459                           
  1460                           ;main.c: 121: }
  1461                           
  1462                           ;main.c: 120: break;
  1463  01B9  29C6               	goto	l1276
  1464  01BA                     l1272:	
  1465  01BA  0020               	movlb	0	; select bank0
  1466  01BB  082B               	movf	_butonDurumu,w
  1467                           
  1468                           ; Switch size 1, requested type "space"
  1469                           ; Number of cases is 3, Range of values is 2 to 6
  1470                           ; switch strategies available:
  1471                           ; Name         Instructions Cycles
  1472                           ; simple_byte           10     6 (average)
  1473                           ; direct_byte           19     9 (fixed)
  1474                           ; jumptable            263     9 (fixed)
  1475                           ;	Chosen strategy is simple_byte
  1476  01BC  3A02               	xorlw	2	; case 2
  1477  01BD  1903               	skipnz
  1478  01BE  2996               	goto	l1262
  1479  01BF  3A06               	xorlw	6	; case 4
  1480  01C0  1903               	skipnz
  1481  01C1  29A2               	goto	l1264
  1482  01C2  3A02               	xorlw	2	; case 6
  1483  01C3  1903               	skipnz
  1484  01C4  29AD               	goto	l1266
  1485  01C5  29C6               	goto	l1276
  1486  01C6                     l1276:	
  1487                           ;main.c: 126: }
  1488                           
  1489                           ;main.c: 122: break;
  1490                           
  1491  01C6  3181  21FD  3181   	fcall	_buton_oku
  1492                           
  1493                           ; Switch size 1, requested type "space"
  1494                           ; Number of cases is 2, Range of values is 1 to 2
  1495                           ; switch strategies available:
  1496                           ; Name         Instructions Cycles
  1497                           ; simple_byte            7     4 (average)
  1498                           ; direct_byte           13     9 (fixed)
  1499                           ; jumptable            263     9 (fixed)
  1500                           ;	Chosen strategy is simple_byte
  1501  01C9  3A01               	xorlw	1	; case 1
  1502  01CA  1903               	skipnz
  1503  01CB  2989               	goto	l1260
  1504  01CC  3A03               	xorlw	3	; case 2
  1505  01CD  1903               	skipnz
  1506  01CE  29BA               	goto	l1272
  1507  01CF  29C6               	goto	l1276
  1508  01D0  29C6               	goto	l1276
  1509  01D1                     __end_of_main:	
  1510                           
  1511                           	psect	text1
  1512  01FD                     __ptext1:	
  1513 ;; *************** function _buton_oku *****************
  1514 ;; Defined at:
  1515 ;;		line 22 in file "buton.c"
  1516 ;; Parameters:    Size  Location     Type
  1517 ;;		None
  1518 ;; Auto vars:     Size  Location     Type
  1519 ;;		None
  1520 ;; Return value:  Size  Location     Type
  1521 ;;                  1    wreg      unsigned char 
  1522 ;; Registers used:
  1523 ;;		wreg, fsr0l, fsr0h, status,2, status,0, pclath, cstack
  1524 ;; Tracked objects:
  1525 ;;		On entry : 0/0
  1526 ;;		On exit  : 0/0
  1527 ;;		Unchanged: 0/0
  1528 ;; Data sizes:     COMMON   BANK0   BANK1   BANK2   BANK3   BANK4
  1529 ;;      Params:         0       0       0       0       0       0
  1530 ;;      Locals:         0       0       0       0       0       0
  1531 ;;      Temps:          1       0       0       0       0       0
  1532 ;;      Totals:         1       0       0       0       0       0
  1533 ;;Total ram usage:        1 bytes
  1534 ;; Hardware stack levels used:    1
  1535 ;; Hardware stack levels required when called:    5
  1536 ;; This function calls:
  1537 ;;		_buton_kontrol
  1538 ;; This function is called by:
  1539 ;;		_main
  1540 ;; This function uses a non-reentrant model
  1541 ;;
  1542                           
  1543                           
  1544                           ;psect for function _buton_oku
  1545  01FD                     _buton_oku:	
  1546                           
  1547                           ;buton.c: 24: butonNo=0;
  1548                           
  1549                           ;incstack = 0
  1550                           ; Regs used in _buton_oku: [wreg-fsr0h+status,2+status,0+pclath+cstack]
  1551  01FD  01FB               	clrf	_butonNo
  1552                           
  1553                           ;buton.c: 27: if(!PORTBbits.RB0)
  1554  01FE  0020               	movlb	0	; select bank0
  1555  01FF  180D               	btfsc	13,0	;volatile
  1556  0200  2A04               	goto	l216
  1557                           
  1558                           ;buton.c: 28: butonNo=1;
  1559  0201  01FB               	clrf	_butonNo
  1560  0202  0AFB               	incf	_butonNo,f
  1561  0203  2A0A               	goto	l1132
  1562  0204                     l216:	
  1563                           
  1564                           ;buton.c: 29: else if(!PORTBbits.RB1)
  1565  0204  188D               	btfsc	13,1	;volatile
  1566  0205  2A0A               	goto	l1132
  1567                           
  1568                           ;buton.c: 30: butonNo=2;
  1569  0206  3002               	movlw	2
  1570  0207  00F9               	movwf	??_buton_oku
  1571  0208  0879               	movf	??_buton_oku,w
  1572  0209  00FB               	movwf	_butonNo
  1573  020A                     l1132:	
  1574                           
  1575                           ;buton.c: 34: return buton_kontrol();
  1576  020A  3180  202D         	fcall	_buton_kontrol
  1577  020C  0008               	return
  1578  020D                     __end_of_buton_oku:	
  1579                           
  1580                           	psect	text2
  1581  002D                     __ptext2:	
  1582 ;; *************** function _buton_kontrol *****************
  1583 ;; Defined at:
  1584 ;;		line 39 in file "buton.c"
  1585 ;; Parameters:    Size  Location     Type
  1586 ;;		None
  1587 ;; Auto vars:     Size  Location     Type
  1588 ;;		None
  1589 ;; Return value:  Size  Location     Type
  1590 ;;                  1    wreg      unsigned char 
  1591 ;; Registers used:
  1592 ;;		wreg, fsr0l, fsr0h, status,2, status,0, pclath, cstack
  1593 ;; Tracked objects:
  1594 ;;		On entry : 0/0
  1595 ;;		On exit  : 0/0
  1596 ;;		Unchanged: 0/0
  1597 ;; Data sizes:     COMMON   BANK0   BANK1   BANK2   BANK3   BANK4
  1598 ;;      Params:         0       0       0       0       0       0
  1599 ;;      Locals:         0       0       0       0       0       0
  1600 ;;      Temps:          4       0       0       0       0       0
  1601 ;;      Totals:         4       0       0       0       0       0
  1602 ;;Total ram usage:        4 bytes
  1603 ;; Hardware stack levels used:    1
  1604 ;; Hardware stack levels required when called:    4
  1605 ;; This function calls:
  1606 ;;		_miliSaniye
  1607 ;; This function is called by:
  1608 ;;		_buton_oku
  1609 ;; This function uses a non-reentrant model
  1610 ;;
  1611                           
  1612                           
  1613                           ;psect for function _buton_kontrol
  1614  002D                     _buton_kontrol:	
  1615                           
  1616                           ;buton.c: 41: switch(butonDurumu)
  1617                           
  1618                           ;incstack = 0
  1619                           ; Regs used in _buton_kontrol: [wreg-fsr0h+status,2+status,0+pclath+cstack]
  1620  002D  2936               	goto	l1104
  1621  002E                     l1014:	
  1622                           ;buton.c: 42: {
  1623                           ;buton.c: 43: case SERBEST:
  1624                           
  1625                           
  1626                           ;buton.c: 44: if(butonNo>0)
  1627  002E  087B               	movf	_butonNo,w
  1628  002F  1903               	btfsc	3,2
  1629  0030  2845               	goto	l1024
  1630                           
  1631                           ;buton.c: 45: {
  1632                           ;buton.c: 46: butonSure = miliSaniye();
  1633  0031  3182  2233  3180   	fcall	_miliSaniye
  1634  0034  0874               	movf	?_miliSaniye+3,w
  1635  0035  0020               	movlb	0	; select bank0
  1636  0036  00A3               	movwf	_butonSure+3
  1637  0037  0873               	movf	?_miliSaniye+2,w
  1638  0038  00A2               	movwf	_butonSure+2
  1639  0039  0872               	movf	?_miliSaniye+1,w
  1640  003A  00A1               	movwf	_butonSure+1
  1641  003B  0871               	movf	?_miliSaniye,w
  1642  003C  00A0               	movwf	_butonSure
  1643                           
  1644                           ;buton.c: 47: butonDurumu = DEBOUNCE;
  1645  003D  01AB               	clrf	_butonDurumu
  1646  003E  0AAB               	incf	_butonDurumu,f
  1647                           
  1648                           ;buton.c: 48: oncekiButon = butonNo;
  1649  003F  087B               	movf	_butonNo,w
  1650  0040  00F5               	movwf	??_buton_kontrol
  1651  0041  0875               	movf	??_buton_kontrol,w
  1652  0042  00AA               	movwf	_oncekiButon
  1653                           
  1654                           ;buton.c: 49: uzunBasildi=0;
  1655  0043  107A               	bcf	_uzunBasildi/(0+8),_uzunBasildi& (0+7)
  1656                           
  1657                           ;buton.c: 50: }
  1658  0044  2941               	goto	l1106
  1659  0045                     l1024:	
  1660                           
  1661                           ;buton.c: 51: else
  1662                           ;buton.c: 52: {
  1663                           ;buton.c: 53: oncekiButon=0;
  1664  0045  0020               	movlb	0	; select bank0
  1665  0046  01AA               	clrf	_oncekiButon
  1666                           
  1667                           ;buton.c: 54: return 0x00;
  1668  0047  3000               	movlw	0
  1669  0048  0008               	return
  1670  0049                     l1030:	
  1671                           ;buton.c: 58: case DEBOUNCE:
  1672                           
  1673                           ;buton.c: 55: }
  1674                           ;buton.c: 56: break;
  1675                           
  1676                           
  1677                           ;buton.c: 61: if(butonNo>0)
  1678  0049  087B               	movf	_butonNo,w
  1679  004A  1903               	btfsc	3,2
  1680  004B  289A               	goto	l1048
  1681                           
  1682                           ;buton.c: 62: {
  1683                           ;buton.c: 63: if (butonNo == oncekiButon)
  1684  004C  087B               	movf	_butonNo,w
  1685  004D  062A               	xorwf	_oncekiButon,w
  1686  004E  1D03               	skipz
  1687  004F  2889               	goto	l1044
  1688                           
  1689                           ;buton.c: 64: {
  1690                           ;buton.c: 65: if (miliSaniye() - butonSure > 20u)
  1691  0050  0920               	comf	_butonSure,w
  1692  0051  00F5               	movwf	??_buton_kontrol
  1693  0052  0921               	comf	_butonSure+1,w
  1694  0053  00F6               	movwf	??_buton_kontrol+1
  1695  0054  0922               	comf	_butonSure+2,w
  1696  0055  00F7               	movwf	??_buton_kontrol+2
  1697  0056  0923               	comf	_butonSure+3,w
  1698  0057  00F8               	movwf	??_buton_kontrol+3
  1699  0058  0AF5               	incf	??_buton_kontrol,f
  1700  0059  1903               	skipnz
  1701  005A  0AF6               	incf	??_buton_kontrol+1,f
  1702  005B  1903               	skipnz
  1703  005C  0AF7               	incf	??_buton_kontrol+2,f
  1704  005D  1903               	skipnz
  1705  005E  0AF8               	incf	??_buton_kontrol+3,f
  1706  005F  3182  2233  3180   	fcall	_miliSaniye
  1707  0062  0871               	movf	?_miliSaniye,w
  1708  0063  07F5               	addwf	??_buton_kontrol,f
  1709  0064  0872               	movf	?_miliSaniye+1,w
  1710  0065  3DF6               	addwfc	??_buton_kontrol+1,f
  1711  0066  0873               	movf	?_miliSaniye+2,w
  1712  0067  3DF7               	addwfc	??_buton_kontrol+2,f
  1713  0068  0874               	movf	?_miliSaniye+3,w
  1714  0069  3DF8               	addwfc	??_buton_kontrol+3,f
  1715  006A  0878               	movf	??_buton_kontrol+3,w
  1716  006B  1D03               	btfss	3,2
  1717  006C  2877               	goto	l1036
  1718  006D  0877               	movf	??_buton_kontrol+2,w
  1719  006E  1D03               	btfss	3,2
  1720  006F  2877               	goto	l1036
  1721  0070  0876               	movf	??_buton_kontrol+1,w
  1722  0071  1D03               	btfss	3,2
  1723  0072  2877               	goto	l1036
  1724  0073  3015               	movlw	21
  1725  0074  0275               	subwf	??_buton_kontrol,w
  1726  0075  1C03               	btfss	3,0
  1727  0076  2941               	goto	l1106
  1728  0077                     l1036:	
  1729                           
  1730                           ;buton.c: 66: {
  1731                           ;buton.c: 67: butonDurumu = BASILDI;
  1732  0077  3002               	movlw	2
  1733  0078  00F5               	movwf	??_buton_kontrol
  1734  0079  0875               	movf	??_buton_kontrol,w
  1735  007A  0020               	movlb	0	; select bank0
  1736  007B  00AB               	movwf	_butonDurumu
  1737                           
  1738                           ;buton.c: 68: butonSure = miliSaniye();
  1739  007C  3182  2233         	fcall	_miliSaniye
  1740  007E  0874               	movf	?_miliSaniye+3,w
  1741  007F  0020               	movlb	0	; select bank0
  1742  0080  00A3               	movwf	_butonSure+3
  1743  0081  0873               	movf	?_miliSaniye+2,w
  1744  0082  00A2               	movwf	_butonSure+2
  1745  0083  0872               	movf	?_miliSaniye+1,w
  1746  0084  00A1               	movwf	_butonSure+1
  1747  0085  0871               	movf	?_miliSaniye,w
  1748  0086  00A0               	movwf	_butonSure
  1749                           
  1750                           ;buton.c: 69: return butonNo;
  1751  0087  087B               	movf	_butonNo,w
  1752  0088  0008               	return
  1753  0089                     l1044:	
  1754                           ;buton.c: 70: }
  1755                           ;buton.c: 71: }
  1756                           
  1757                           
  1758                           ;buton.c: 72: else
  1759                           ;buton.c: 73: {
  1760                           ;buton.c: 75: oncekiButon=butonNo;
  1761  0089  087B               	movf	_butonNo,w
  1762  008A  00F5               	movwf	??_buton_kontrol
  1763  008B  0875               	movf	??_buton_kontrol,w
  1764  008C  00AA               	movwf	_oncekiButon
  1765                           
  1766                           ;buton.c: 76: butonSure=miliSaniye();
  1767  008D  3182  2233  3180   	fcall	_miliSaniye
  1768  0090  0874               	movf	?_miliSaniye+3,w
  1769  0091  0020               	movlb	0	; select bank0
  1770  0092  00A3               	movwf	_butonSure+3
  1771  0093  0873               	movf	?_miliSaniye+2,w
  1772  0094  00A2               	movwf	_butonSure+2
  1773  0095  0872               	movf	?_miliSaniye+1,w
  1774  0096  00A1               	movwf	_butonSure+1
  1775  0097  0871               	movf	?_miliSaniye,w
  1776  0098  00A0               	movwf	_butonSure
  1777                           
  1778                           ;buton.c: 77: }
  1779                           ;buton.c: 78: }
  1780  0099  2941               	goto	l1106
  1781  009A                     l1048:	
  1782                           
  1783                           ;buton.c: 79: else
  1784                           ;buton.c: 80: {
  1785                           ;buton.c: 82: butonDurumu=SERBEST;
  1786  009A  01AB               	clrf	_butonDurumu
  1787                           
  1788                           ;buton.c: 83: }
  1789                           ;buton.c: 84: break;
  1790  009B  2941               	goto	l1106
  1791  009C                     l1050:	
  1792                           ;buton.c: 86: case BASILDI:
  1793                           
  1794                           
  1795                           ;buton.c: 87: if(butonNo>0)
  1796  009C  087B               	movf	_butonNo,w
  1797  009D  1903               	btfsc	3,2
  1798  009E  2941               	goto	l1106
  1799                           
  1800                           ;buton.c: 88: {
  1801                           ;buton.c: 89: butonDurumu=BASILI_TUTULUYOR;
  1802  009F  3003               	movlw	3
  1803  00A0  00F5               	movwf	??_buton_kontrol
  1804  00A1  0875               	movf	??_buton_kontrol,w
  1805  00A2  00AB               	movwf	_butonDurumu
  1806                           
  1807                           ;buton.c: 90: butonSure=miliSaniye();
  1808  00A3  3182  2233         	fcall	_miliSaniye
  1809  00A5  0874               	movf	?_miliSaniye+3,w
  1810  00A6  0020               	movlb	0	; select bank0
  1811  00A7  00A3               	movwf	_butonSure+3
  1812  00A8  0873               	movf	?_miliSaniye+2,w
  1813  00A9  00A2               	movwf	_butonSure+2
  1814  00AA  0872               	movf	?_miliSaniye+1,w
  1815  00AB  00A1               	movwf	_butonSure+1
  1816  00AC  0871               	movf	?_miliSaniye,w
  1817  00AD  00A0               	movwf	_butonSure
  1818                           
  1819                           ;buton.c: 91: return butonNo;
  1820  00AE  087B               	movf	_butonNo,w
  1821  00AF  0008               	return
  1822  00B0                     l1060:	
  1823                           ;buton.c: 95: case BASILI_TUTULUYOR:
  1824                           
  1825                           ;buton.c: 92: }
  1826                           ;buton.c: 93: break;
  1827                           
  1828                           
  1829                           ;buton.c: 96: if(butonNo>0)
  1830  00B0  087B               	movf	_butonNo,w
  1831  00B1  1903               	btfsc	3,2
  1832  00B2  28E6               	goto	l1074
  1833                           
  1834                           ;buton.c: 97: {
  1835                           ;buton.c: 98: if(butonNo==oncekiButon)
  1836  00B3  087B               	movf	_butonNo,w
  1837  00B4  062A               	xorwf	_oncekiButon,w
  1838  00B5  1903               	btfsc	3,2
  1839                           
  1840                           ;buton.c: 99: {
  1841                           ;buton.c: 100: if (uzunBasildi==0)
  1842  00B6  187A               	btfsc	_uzunBasildi/(0+8),_uzunBasildi& (0+7)
  1843  00B7  2941               	goto	l1106
  1844                           
  1845                           ;buton.c: 101: {
  1846                           ;buton.c: 102: if(miliSaniye()-butonSure > 2000u)
  1847  00B8  0920               	comf	_butonSure,w
  1848  00B9  00F5               	movwf	??_buton_kontrol
  1849  00BA  0921               	comf	_butonSure+1,w
  1850  00BB  00F6               	movwf	??_buton_kontrol+1
  1851  00BC  0922               	comf	_butonSure+2,w
  1852  00BD  00F7               	movwf	??_buton_kontrol+2
  1853  00BE  0923               	comf	_butonSure+3,w
  1854  00BF  00F8               	movwf	??_buton_kontrol+3
  1855  00C0  0AF5               	incf	??_buton_kontrol,f
  1856  00C1  1903               	skipnz
  1857  00C2  0AF6               	incf	??_buton_kontrol+1,f
  1858  00C3  1903               	skipnz
  1859  00C4  0AF7               	incf	??_buton_kontrol+2,f
  1860  00C5  1903               	skipnz
  1861  00C6  0AF8               	incf	??_buton_kontrol+3,f
  1862  00C7  3182  2233  3180   	fcall	_miliSaniye
  1863  00CA  0871               	movf	?_miliSaniye,w
  1864  00CB  07F5               	addwf	??_buton_kontrol,f
  1865  00CC  0872               	movf	?_miliSaniye+1,w
  1866  00CD  3DF6               	addwfc	??_buton_kontrol+1,f
  1867  00CE  0873               	movf	?_miliSaniye+2,w
  1868  00CF  3DF7               	addwfc	??_buton_kontrol+2,f
  1869  00D0  0874               	movf	?_miliSaniye+3,w
  1870  00D1  3DF8               	addwfc	??_buton_kontrol+3,f
  1871  00D2  0878               	movf	??_buton_kontrol+3,w
  1872  00D3  1D03               	btfss	3,2
  1873  00D4  28DE               	goto	l1068
  1874  00D5  0877               	movf	??_buton_kontrol+2,w
  1875  00D6  1D03               	btfss	3,2
  1876  00D7  28DE               	goto	l1068
  1877  00D8  30D1               	movlw	209
  1878  00D9  0275               	subwf	??_buton_kontrol,w
  1879  00DA  3007               	movlw	7
  1880  00DB  3B76               	subwfb	??_buton_kontrol+1,w
  1881  00DC  1C03               	btfss	3,0
  1882  00DD  2941               	goto	l1106
  1883  00DE                     l1068:	
  1884                           
  1885                           ;buton.c: 103: {
  1886                           ;buton.c: 104: uzunBasildi=1;
  1887  00DE  147A               	bsf	_uzunBasildi/(0+8),_uzunBasildi& (0+7)
  1888                           
  1889                           ;buton.c: 105: butonDurumu=UZUN_BASILDI;
  1890  00DF  3004               	movlw	4
  1891  00E0  00F5               	movwf	??_buton_kontrol
  1892  00E1  0875               	movf	??_buton_kontrol,w
  1893  00E2  0020               	movlb	0	; select bank0
  1894  00E3  00AB               	movwf	_butonDurumu
  1895                           
  1896                           ;buton.c: 106: return butonNo;
  1897  00E4  087B               	movf	_butonNo,w
  1898  00E5  0008               	return
  1899  00E6                     l1074:	
  1900                           ;buton.c: 107: }
  1901                           ;buton.c: 108: }
  1902                           ;buton.c: 109: }
  1903                           ;buton.c: 110: }
  1904                           
  1905                           
  1906                           ;buton.c: 111: else
  1907                           ;buton.c: 112: {
  1908                           ;buton.c: 113: butonSure=miliSaniye();
  1909  00E6  3182  2233  3180   	fcall	_miliSaniye
  1910  00E9  0874               	movf	?_miliSaniye+3,w
  1911  00EA  0020               	movlb	0	; select bank0
  1912  00EB  00A3               	movwf	_butonSure+3
  1913  00EC  0873               	movf	?_miliSaniye+2,w
  1914  00ED  00A2               	movwf	_butonSure+2
  1915  00EE  0872               	movf	?_miliSaniye+1,w
  1916  00EF  00A1               	movwf	_butonSure+1
  1917  00F0  0871               	movf	?_miliSaniye,w
  1918  00F1  00A0               	movwf	_butonSure
  1919                           
  1920                           ;buton.c: 114: butonDurumu=DEBOUNCE2;
  1921  00F2  3005               	movlw	5
  1922  00F3  292F               	goto	L2
  1923  00F4                     l1078:	
  1924                           ;buton.c: 118: case UZUN_BASILDI:
  1925                           
  1926                           ;buton.c: 115: }
  1927                           ;buton.c: 116: break;
  1928                           
  1929                           
  1930                           ;buton.c: 119: if(butonNo>0)
  1931  00F4  087B               	movf	_butonNo,w
  1932  00F5  1903               	btfsc	3,2
  1933  00F6  2941               	goto	l1106
  1934                           
  1935                           ;buton.c: 120: {
  1936                           ;buton.c: 121: butonDurumu=BASILI_TUTULUYOR;
  1937  00F7  3003               	movlw	3
  1938  00F8  00F5               	movwf	??_buton_kontrol
  1939  00F9  0875               	movf	??_buton_kontrol,w
  1940  00FA  00AB               	movwf	_butonDurumu
  1941                           
  1942                           ;buton.c: 122: return butonNo;
  1943  00FB  087B               	movf	_butonNo,w
  1944  00FC  0008               	return
  1945  00FD                     l1084:	
  1946                           ;buton.c: 126: case DEBOUNCE2:
  1947                           
  1948                           ;buton.c: 123: }
  1949                           ;buton.c: 124: break;
  1950                           
  1951                           
  1952                           ;buton.c: 129: if(butonNo==0)
  1953  00FD  087B               	movf	_butonNo,w
  1954  00FE  1D03               	btfss	3,2
  1955  00FF  292E               	goto	l1092
  1956                           
  1957                           ;buton.c: 130: {
  1958                           ;buton.c: 131: if (miliSaniye() - butonSure > 20u)
  1959  0100  0920               	comf	_butonSure,w
  1960  0101  00F5               	movwf	??_buton_kontrol
  1961  0102  0921               	comf	_butonSure+1,w
  1962  0103  00F6               	movwf	??_buton_kontrol+1
  1963  0104  0922               	comf	_butonSure+2,w
  1964  0105  00F7               	movwf	??_buton_kontrol+2
  1965  0106  0923               	comf	_butonSure+3,w
  1966  0107  00F8               	movwf	??_buton_kontrol+3
  1967  0108  0AF5               	incf	??_buton_kontrol,f
  1968  0109  1903               	skipnz
  1969  010A  0AF6               	incf	??_buton_kontrol+1,f
  1970  010B  1903               	skipnz
  1971  010C  0AF7               	incf	??_buton_kontrol+2,f
  1972  010D  1903               	skipnz
  1973  010E  0AF8               	incf	??_buton_kontrol+3,f
  1974  010F  3182  2233  3180   	fcall	_miliSaniye
  1975  0112  0871               	movf	?_miliSaniye,w
  1976  0113  07F5               	addwf	??_buton_kontrol,f
  1977  0114  0872               	movf	?_miliSaniye+1,w
  1978  0115  3DF6               	addwfc	??_buton_kontrol+1,f
  1979  0116  0873               	movf	?_miliSaniye+2,w
  1980  0117  3DF7               	addwfc	??_buton_kontrol+2,f
  1981  0118  0874               	movf	?_miliSaniye+3,w
  1982  0119  3DF8               	addwfc	??_buton_kontrol+3,f
  1983  011A  0878               	movf	??_buton_kontrol+3,w
  1984  011B  1D03               	btfss	3,2
  1985  011C  2927               	goto	l1088
  1986  011D  0877               	movf	??_buton_kontrol+2,w
  1987  011E  1D03               	btfss	3,2
  1988  011F  2927               	goto	l1088
  1989  0120  0876               	movf	??_buton_kontrol+1,w
  1990  0121  1D03               	btfss	3,2
  1991  0122  2927               	goto	l1088
  1992  0123  3015               	movlw	21
  1993  0124  0275               	subwf	??_buton_kontrol,w
  1994  0125  1C03               	btfss	3,0
  1995  0126  2941               	goto	l1106
  1996  0127                     l1088:	
  1997                           
  1998                           ;buton.c: 132: {
  1999                           ;buton.c: 133: butonDurumu = BIRAKILDI;
  2000  0127  3006               	movlw	6
  2001  0128  00F5               	movwf	??_buton_kontrol
  2002  0129  0875               	movf	??_buton_kontrol,w
  2003  012A  0020               	movlb	0	; select bank0
  2004  012B  00AB               	movwf	_butonDurumu
  2005                           
  2006                           ;buton.c: 134: return oncekiButon;
  2007  012C  082A               	movf	_oncekiButon,w
  2008  012D  0008               	return
  2009  012E                     l1092:	
  2010                           ;buton.c: 135: }
  2011                           ;buton.c: 136: }
  2012                           
  2013                           
  2014                           ;buton.c: 137: else
  2015                           ;buton.c: 138: {
  2016                           ;buton.c: 139: butonDurumu=BASILI_TUTULUYOR;
  2017  012E  3003               	movlw	3
  2018  012F                     L2:	
  2019  012F  00F5               	movwf	??_buton_kontrol
  2020  0130  0875               	movf	??_buton_kontrol,w
  2021  0131  00AB               	movwf	_butonDurumu
  2022                           
  2023                           ;buton.c: 140: }
  2024                           ;buton.c: 141: break;
  2025  0132  2941               	goto	l1106
  2026  0133                     l1094:	
  2027                           ;buton.c: 143: case BIRAKILDI:
  2028                           
  2029                           
  2030                           ;buton.c: 144: butonDurumu=SERBEST;
  2031  0133  01AB               	clrf	_butonDurumu
  2032                           
  2033                           ;buton.c: 145: return oncekiButon;
  2034  0134  082A               	movf	_oncekiButon,w
  2035  0135  0008               	return
  2036  0136                     l1104:	
  2037                           ;buton.c: 148: }
  2038                           
  2039                           ;buton.c: 146: break;
  2040                           
  2041  0136  0020               	movlb	0	; select bank0
  2042  0137  082B               	movf	_butonDurumu,w
  2043                           
  2044                           ; Switch size 1, requested type "space"
  2045                           ; Number of cases is 7, Range of values is 0 to 6
  2046                           ; switch strategies available:
  2047                           ; Name         Instructions Cycles
  2048                           ; direct_byte           20     6 (fixed)
  2049                           ; simple_byte           22    12 (average)
  2050                           ; jumptable            260     6 (fixed)
  2051                           ;	Chosen strategy is direct_byte
  2052  0138  0084               	movwf	4
  2053  0139  3007               	movlw	7
  2054  013A  0204               	subwf	4,w
  2055  013B  1803               	skipnc
  2056  013C  2941               	goto	l1106
  2057  013D  3182               	movlp	high S1308
  2058  013E  3504               	lslf	4,w
  2059  013F  3E0D               	addlw	low S1308
  2060  0140  0082               	movwf	2
  2061  0141                     l1106:	
  2062                           
  2063                           ;buton.c: 150: return 0x00;
  2064  0141  3000               	movlw	0
  2065  0142  0008               	return
  2066  0143                     __end_of_buton_kontrol:	
  2067                           
  2068                           	psect	swtext1
  2069  020D                     __pswtext1:	
  2070  020D                     S1308:	
  2071  020D  3180  282E         	ljmp	l1014
  2072  020F  3180  2849         	ljmp	l1030
  2073  0211  3180  289C         	ljmp	l1050
  2074  0213  3180  28B0         	ljmp	l1060
  2075  0215  3180  28F4         	ljmp	l1078
  2076  0217  3180  28FD         	ljmp	l1084
  2077  0219  3181  2933         	ljmp	l1094
  2078                           
  2079                           	psect	text3
  2080  0233                     __ptext3:	
  2081 ;; *************** function _miliSaniye *****************
  2082 ;; Defined at:
  2083 ;;		line 22 in file "zaman.c"
  2084 ;; Parameters:    Size  Location     Type
  2085 ;;		None
  2086 ;; Auto vars:     Size  Location     Type
  2087 ;;		None
  2088 ;; Return value:  Size  Location     Type
  2089 ;;                  4    1[COMMON] unsigned long 
  2090 ;; Registers used:
  2091 ;;		wreg
  2092 ;; Tracked objects:
  2093 ;;		On entry : 0/0
  2094 ;;		On exit  : 0/0
  2095 ;;		Unchanged: 0/0
  2096 ;; Data sizes:     COMMON   BANK0   BANK1   BANK2   BANK3   BANK4
  2097 ;;      Params:         4       0       0       0       0       0
  2098 ;;      Locals:         0       0       0       0       0       0
  2099 ;;      Temps:          0       0       0       0       0       0
  2100 ;;      Totals:         4       0       0       0       0       0
  2101 ;;Total ram usage:        4 bytes
  2102 ;; Hardware stack levels used:    1
  2103 ;; Hardware stack levels required when called:    3
  2104 ;; This function calls:
  2105 ;;		Nothing
  2106 ;; This function is called by:
  2107 ;;		_buton_kontrol
  2108 ;; This function uses a non-reentrant model
  2109 ;;
  2110                           
  2111                           
  2112                           ;psect for function _miliSaniye
  2113  0233                     _miliSaniye:	
  2114                           
  2115                           ;zaman.c: 24: return _msaniye;
  2116                           
  2117                           ;incstack = 0
  2118                           ; Regs used in _miliSaniye: [wreg]
  2119  0233  0020               	movlb	0	; select bank0
  2120  0234  0827               	movf	__msaniye+3,w
  2121  0235  00F4               	movwf	?_miliSaniye+3
  2122  0236  0826               	movf	__msaniye+2,w
  2123  0237  00F3               	movwf	?_miliSaniye+2
  2124  0238  0825               	movf	__msaniye+1,w
  2125  0239  00F2               	movwf	?_miliSaniye+1
  2126  023A  0824               	movf	__msaniye,w
  2127  023B  00F1               	movwf	?_miliSaniye
  2128  023C  0008               	return
  2129  023D                     __end_of_miliSaniye:	
  2130                           
  2131                           	psect	text4
  2132  021B                     __ptext4:	
  2133 ;; *************** function _SYSTEM_Initialize *****************
  2134 ;; Defined at:
  2135 ;;		line 69 in file "mcc_generated_files/mcc.c"
  2136 ;; Parameters:    Size  Location     Type
  2137 ;;		None
  2138 ;; Auto vars:     Size  Location     Type
  2139 ;;		None
  2140 ;; Return value:  Size  Location     Type
  2141 ;;                  1    wreg      void 
  2142 ;; Registers used:
  2143 ;;		wreg, status,2, status,0, pclath, cstack
  2144 ;; Tracked objects:
  2145 ;;		On entry : 0/0
  2146 ;;		On exit  : 0/0
  2147 ;;		Unchanged: 0/0
  2148 ;; Data sizes:     COMMON   BANK0   BANK1   BANK2   BANK3   BANK4
  2149 ;;      Params:         0       0       0       0       0       0
  2150 ;;      Locals:         0       0       0       0       0       0
  2151 ;;      Temps:          0       0       0       0       0       0
  2152 ;;      Totals:         0       0       0       0       0       0
  2153 ;;Total ram usage:        0 bytes
  2154 ;; Hardware stack levels used:    1
  2155 ;; Hardware stack levels required when called:    5
  2156 ;; This function calls:
  2157 ;;		_OSCILLATOR_Initialize
  2158 ;;		_PIN_MANAGER_Initialize
  2159 ;;		_TMR6_Initialize
  2160 ;;		_WDT_Initialize
  2161 ;; This function is called by:
  2162 ;;		_main
  2163 ;; This function uses a non-reentrant model
  2164 ;;
  2165                           
  2166                           
  2167                           ;psect for function _SYSTEM_Initialize
  2168  021B                     _SYSTEM_Initialize:	
  2169                           
  2170                           ;mcc.c: 72: PIN_MANAGER_Initialize();
  2171                           
  2172                           ;incstack = 0
  2173                           ; Regs used in _SYSTEM_Initialize: [wreg+status,2+status,0+pclath+cstack]
  2174  021B  3181  21D1  3182   	fcall	_PIN_MANAGER_Initialize
  2175                           
  2176                           ;mcc.c: 73: OSCILLATOR_Initialize();
  2177  021E  3182  2247  3182   	fcall	_OSCILLATOR_Initialize
  2178                           
  2179                           ;mcc.c: 74: WDT_Initialize();
  2180  0221  3182  2254  3182   	fcall	_WDT_Initialize
  2181                           
  2182                           ;mcc.c: 75: TMR6_Initialize();
  2183  0224  3181  21E9         	fcall	_TMR6_Initialize
  2184  0226  0008               	return
  2185  0227                     __end_of_SYSTEM_Initialize:	
  2186                           
  2187                           	psect	text5
  2188  0254                     __ptext5:	
  2189 ;; *************** function _WDT_Initialize *****************
  2190 ;; Defined at:
  2191 ;;		line 90 in file "mcc_generated_files/mcc.c"
  2192 ;; Parameters:    Size  Location     Type
  2193 ;;		None
  2194 ;; Auto vars:     Size  Location     Type
  2195 ;;		None
  2196 ;; Return value:  Size  Location     Type
  2197 ;;                  1    wreg      void 
  2198 ;; Registers used:
  2199 ;;		wreg
  2200 ;; Tracked objects:
  2201 ;;		On entry : 0/0
  2202 ;;		On exit  : 0/0
  2203 ;;		Unchanged: 0/0
  2204 ;; Data sizes:     COMMON   BANK0   BANK1   BANK2   BANK3   BANK4
  2205 ;;      Params:         0       0       0       0       0       0
  2206 ;;      Locals:         0       0       0       0       0       0
  2207 ;;      Temps:          0       0       0       0       0       0
  2208 ;;      Totals:         0       0       0       0       0       0
  2209 ;;Total ram usage:        0 bytes
  2210 ;; Hardware stack levels used:    1
  2211 ;; Hardware stack levels required when called:    3
  2212 ;; This function calls:
  2213 ;;		Nothing
  2214 ;; This function is called by:
  2215 ;;		_SYSTEM_Initialize
  2216 ;; This function uses a non-reentrant model
  2217 ;;
  2218                           
  2219                           
  2220                           ;psect for function _WDT_Initialize
  2221  0254                     _WDT_Initialize:	
  2222                           
  2223                           ;mcc.c: 93: WDTCON = 0x16;
  2224                           
  2225                           ;incstack = 0
  2226                           ; Regs used in _WDT_Initialize: [wreg]
  2227  0254  3016               	movlw	22
  2228  0255  0021               	movlb	1	; select bank1
  2229  0256  0097               	movwf	23	;volatile
  2230  0257  0008               	return
  2231  0258                     __end_of_WDT_Initialize:	
  2232                           
  2233                           	psect	text6
  2234  01E9                     __ptext6:	
  2235 ;; *************** function _TMR6_Initialize *****************
  2236 ;; Defined at:
  2237 ;;		line 63 in file "mcc_generated_files/tmr6.c"
  2238 ;; Parameters:    Size  Location     Type
  2239 ;;		None
  2240 ;; Auto vars:     Size  Location     Type
  2241 ;;		None
  2242 ;; Return value:  Size  Location     Type
  2243 ;;                  1    wreg      void 
  2244 ;; Registers used:
  2245 ;;		wreg, status,2, status,0, pclath, cstack
  2246 ;; Tracked objects:
  2247 ;;		On entry : 0/0
  2248 ;;		On exit  : 0/0
  2249 ;;		Unchanged: 0/0
  2250 ;; Data sizes:     COMMON   BANK0   BANK1   BANK2   BANK3   BANK4
  2251 ;;      Params:         0       0       0       0       0       0
  2252 ;;      Locals:         0       0       0       0       0       0
  2253 ;;      Temps:          0       0       0       0       0       0
  2254 ;;      Totals:         0       0       0       0       0       0
  2255 ;;Total ram usage:        0 bytes
  2256 ;; Hardware stack levels used:    1
  2257 ;; Hardware stack levels required when called:    4
  2258 ;; This function calls:
  2259 ;;		_TMR6_SetInterruptHandler
  2260 ;;		_TMR6_StartTimer
  2261 ;; This function is called by:
  2262 ;;		_SYSTEM_Initialize
  2263 ;; This function uses a non-reentrant model
  2264 ;;
  2265                           
  2266                           
  2267                           ;psect for function _TMR6_Initialize
  2268  01E9                     _TMR6_Initialize:	
  2269                           
  2270                           ;tmr6.c: 68: T6CON = 0x0A;
  2271                           
  2272                           ;incstack = 0
  2273                           ; Regs used in _TMR6_Initialize: [wreg+status,2+status,0+pclath+cstack]
  2274  01E9  300A               	movlw	10
  2275  01EA  0028               	movlb	8	; select bank8
  2276  01EB  009E               	movwf	30	;volatile
  2277                           
  2278                           ;tmr6.c: 71: PR6 = 0xF9;
  2279  01EC  30F9               	movlw	249
  2280  01ED  009D               	movwf	29	;volatile
  2281                           
  2282                           ;tmr6.c: 74: TMR6 = 0x00;
  2283  01EE  019C               	clrf	28	;volatile
  2284                           
  2285                           ;tmr6.c: 77: PIR3bits.TMR6IF = 0;
  2286  01EF  0020               	movlb	0	; select bank0
  2287  01F0  1193               	bcf	19,3	;volatile
  2288                           
  2289                           ;tmr6.c: 80: PIE3bits.TMR6IE = 1;
  2290  01F1  0021               	movlb	1	; select bank1
  2291  01F2  1593               	bsf	19,3	;volatile
  2292                           
  2293                           ;tmr6.c: 83: TMR6_SetInterruptHandler(TMR6_DefaultInterruptHandler);
  2294  01F3  305B               	movlw	low _TMR6_DefaultInterruptHandler
  2295  01F4  00F1               	movwf	TMR6_SetInterruptHandler@InterruptHandler
  2296  01F5  3002               	movlw	high _TMR6_DefaultInterruptHandler
  2297  01F6  00F2               	movwf	TMR6_SetInterruptHandler@InterruptHandler+1
  2298  01F7  3182  224E  3181   	fcall	_TMR6_SetInterruptHandler
  2299                           
  2300                           ;tmr6.c: 86: TMR6_StartTimer();
  2301  01FA  3182  2258         	fcall	_TMR6_StartTimer
  2302  01FC  0008               	return
  2303  01FD                     __end_of_TMR6_Initialize:	
  2304                           
  2305                           	psect	text7
  2306  0258                     __ptext7:	
  2307 ;; *************** function _TMR6_StartTimer *****************
  2308 ;; Defined at:
  2309 ;;		line 89 in file "mcc_generated_files/tmr6.c"
  2310 ;; Parameters:    Size  Location     Type
  2311 ;;		None
  2312 ;; Auto vars:     Size  Location     Type
  2313 ;;		None
  2314 ;; Return value:  Size  Location     Type
  2315 ;;                  1    wreg      void 
  2316 ;; Registers used:
  2317 ;;		None
  2318 ;; Tracked objects:
  2319 ;;		On entry : 0/0
  2320 ;;		On exit  : 0/0
  2321 ;;		Unchanged: 0/0
  2322 ;; Data sizes:     COMMON   BANK0   BANK1   BANK2   BANK3   BANK4
  2323 ;;      Params:         0       0       0       0       0       0
  2324 ;;      Locals:         0       0       0       0       0       0
  2325 ;;      Temps:          0       0       0       0       0       0
  2326 ;;      Totals:         0       0       0       0       0       0
  2327 ;;Total ram usage:        0 bytes
  2328 ;; Hardware stack levels used:    1
  2329 ;; Hardware stack levels required when called:    3
  2330 ;; This function calls:
  2331 ;;		Nothing
  2332 ;; This function is called by:
  2333 ;;		_TMR6_Initialize
  2334 ;; This function uses a non-reentrant model
  2335 ;;
  2336                           
  2337                           
  2338                           ;psect for function _TMR6_StartTimer
  2339  0258                     _TMR6_StartTimer:	
  2340                           
  2341                           ;tmr6.c: 92: T6CONbits.TMR6ON = 1;
  2342                           
  2343                           ;incstack = 0
  2344                           ; Regs used in _TMR6_StartTimer: []
  2345  0258  0028               	movlb	8	; select bank8
  2346  0259  151E               	bsf	30,2	;volatile
  2347  025A  0008               	return
  2348  025B                     __end_of_TMR6_StartTimer:	
  2349                           
  2350                           	psect	text8
  2351  024E                     __ptext8:	
  2352 ;; *************** function _TMR6_SetInterruptHandler *****************
  2353 ;; Defined at:
  2354 ;;		line 134 in file "mcc_generated_files/tmr6.c"
  2355 ;; Parameters:    Size  Location     Type
  2356 ;;  InterruptHan    2    1[COMMON] PTR void 
  2357 ;;		 -> _miliSaat(1), TMR6_DefaultInterruptHandler(1), 
  2358 ;; Auto vars:     Size  Location     Type
  2359 ;;		None
  2360 ;; Return value:  Size  Location     Type
  2361 ;;                  1    wreg      void 
  2362 ;; Registers used:
  2363 ;;		wreg
  2364 ;; Tracked objects:
  2365 ;;		On entry : 0/0
  2366 ;;		On exit  : 0/0
  2367 ;;		Unchanged: 0/0
  2368 ;; Data sizes:     COMMON   BANK0   BANK1   BANK2   BANK3   BANK4
  2369 ;;      Params:         2       0       0       0       0       0
  2370 ;;      Locals:         0       0       0       0       0       0
  2371 ;;      Temps:          0       0       0       0       0       0
  2372 ;;      Totals:         2       0       0       0       0       0
  2373 ;;Total ram usage:        2 bytes
  2374 ;; Hardware stack levels used:    1
  2375 ;; Hardware stack levels required when called:    3
  2376 ;; This function calls:
  2377 ;;		Nothing
  2378 ;; This function is called by:
  2379 ;;		_TMR6_Initialize
  2380 ;;		_main
  2381 ;; This function uses a non-reentrant model
  2382 ;;
  2383                           
  2384                           
  2385                           ;psect for function _TMR6_SetInterruptHandler
  2386  024E                     _TMR6_SetInterruptHandler:	
  2387                           
  2388                           ;tmr6.c: 135: TMR6_InterruptHandler = InterruptHandler;
  2389                           
  2390                           ;incstack = 0
  2391                           ; Regs used in _TMR6_SetInterruptHandler: [wreg]
  2392  024E  0872               	movf	TMR6_SetInterruptHandler@InterruptHandler+1,w
  2393  024F  0020               	movlb	0	; select bank0
  2394  0250  00A9               	movwf	_TMR6_InterruptHandler+1
  2395  0251  0871               	movf	TMR6_SetInterruptHandler@InterruptHandler,w
  2396  0252  00A8               	movwf	_TMR6_InterruptHandler
  2397  0253  0008               	return
  2398  0254                     __end_of_TMR6_SetInterruptHandler:	
  2399                           
  2400                           	psect	text9
  2401  01D1                     __ptext9:	
  2402 ;; *************** function _PIN_MANAGER_Initialize *****************
  2403 ;; Defined at:
  2404 ;;		line 51 in file "mcc_generated_files/pin_manager.c"
  2405 ;; Parameters:    Size  Location     Type
  2406 ;;		None
  2407 ;; Auto vars:     Size  Location     Type
  2408 ;;		None
  2409 ;; Return value:  Size  Location     Type
  2410 ;;                  1    wreg      void 
  2411 ;; Registers used:
  2412 ;;		wreg, status,2
  2413 ;; Tracked objects:
  2414 ;;		On entry : 0/0
  2415 ;;		On exit  : 0/0
  2416 ;;		Unchanged: 0/0
  2417 ;; Data sizes:     COMMON   BANK0   BANK1   BANK2   BANK3   BANK4
  2418 ;;      Params:         0       0       0       0       0       0
  2419 ;;      Locals:         0       0       0       0       0       0
  2420 ;;      Temps:          0       0       0       0       0       0
  2421 ;;      Totals:         0       0       0       0       0       0
  2422 ;;Total ram usage:        0 bytes
  2423 ;; Hardware stack levels used:    1
  2424 ;; Hardware stack levels required when called:    3
  2425 ;; This function calls:
  2426 ;;		Nothing
  2427 ;; This function is called by:
  2428 ;;		_SYSTEM_Initialize
  2429 ;; This function uses a non-reentrant model
  2430 ;;
  2431                           
  2432                           
  2433                           ;psect for function _PIN_MANAGER_Initialize
  2434  01D1                     _PIN_MANAGER_Initialize:	
  2435                           
  2436                           ;pin_manager.c: 56: LATA = 0x00;
  2437                           
  2438                           ;incstack = 0
  2439                           ; Regs used in _PIN_MANAGER_Initialize: [wreg+status,2]
  2440  01D1  0022               	movlb	2	; select bank2
  2441  01D2  018C               	clrf	12	;volatile
  2442                           
  2443                           ;pin_manager.c: 57: LATB = 0x00;
  2444  01D3  018D               	clrf	13	;volatile
  2445                           
  2446                           ;pin_manager.c: 62: TRISA = 0xFF;
  2447  01D4  30FF               	movlw	255
  2448  01D5  0021               	movlb	1	; select bank1
  2449  01D6  008C               	movwf	12	;volatile
  2450                           
  2451                           ;pin_manager.c: 63: TRISB = 0x0F;
  2452  01D7  300F               	movlw	15
  2453  01D8  008D               	movwf	13	;volatile
  2454                           
  2455                           ;pin_manager.c: 68: ANSELB = 0x0C;
  2456  01D9  300C               	movlw	12
  2457  01DA  0023               	movlb	3	; select bank3
  2458  01DB  008D               	movwf	13	;volatile
  2459                           
  2460                           ;pin_manager.c: 69: ANSELA = 0x1F;
  2461  01DC  301F               	movlw	31
  2462  01DD  008C               	movwf	12	;volatile
  2463                           
  2464                           ;pin_manager.c: 74: WPUB = 0x0F;
  2465  01DE  300F               	movlw	15
  2466  01DF  0024               	movlb	4	; select bank4
  2467  01E0  008D               	movwf	13	;volatile
  2468                           
  2469                           ;pin_manager.c: 75: WPUA = 0x20;
  2470  01E1  3020               	movlw	32
  2471  01E2  008C               	movwf	12	;volatile
  2472                           
  2473                           ;pin_manager.c: 76: OPTION_REGbits.nWPUEN = 0;
  2474  01E3  0021               	movlb	1	; select bank1
  2475  01E4  1395               	bcf	21,7	;volatile
  2476                           
  2477                           ;pin_manager.c: 82: APFCON1 = 0x00;
  2478  01E5  0022               	movlb	2	; select bank2
  2479  01E6  019E               	clrf	30	;volatile
  2480                           
  2481                           ;pin_manager.c: 83: APFCON0 = 0x00;
  2482  01E7  019D               	clrf	29	;volatile
  2483  01E8  0008               	return
  2484  01E9                     __end_of_PIN_MANAGER_Initialize:	
  2485                           
  2486                           	psect	text10
  2487  0247                     __ptext10:	
  2488 ;; *************** function _OSCILLATOR_Initialize *****************
  2489 ;; Defined at:
  2490 ;;		line 78 in file "mcc_generated_files/mcc.c"
  2491 ;; Parameters:    Size  Location     Type
  2492 ;;		None
  2493 ;; Auto vars:     Size  Location     Type
  2494 ;;		None
  2495 ;; Return value:  Size  Location     Type
  2496 ;;                  1    wreg      void 
  2497 ;; Registers used:
  2498 ;;		wreg, status,2
  2499 ;; Tracked objects:
  2500 ;;		On entry : 0/0
  2501 ;;		On exit  : 0/0
  2502 ;;		Unchanged: 0/0
  2503 ;; Data sizes:     COMMON   BANK0   BANK1   BANK2   BANK3   BANK4
  2504 ;;      Params:         0       0       0       0       0       0
  2505 ;;      Locals:         0       0       0       0       0       0
  2506 ;;      Temps:          0       0       0       0       0       0
  2507 ;;      Totals:         0       0       0       0       0       0
  2508 ;;Total ram usage:        0 bytes
  2509 ;; Hardware stack levels used:    1
  2510 ;; Hardware stack levels required when called:    3
  2511 ;; This function calls:
  2512 ;;		Nothing
  2513 ;; This function is called by:
  2514 ;;		_SYSTEM_Initialize
  2515 ;; This function uses a non-reentrant model
  2516 ;;
  2517                           
  2518                           
  2519                           ;psect for function _OSCILLATOR_Initialize
  2520  0247                     _OSCILLATOR_Initialize:	
  2521                           
  2522                           ;mcc.c: 81: OSCCON = 0x70;
  2523                           
  2524                           ;incstack = 0
  2525                           ; Regs used in _OSCILLATOR_Initialize: [wreg+status,2]
  2526  0247  3070               	movlw	112
  2527  0248  0021               	movlb	1	; select bank1
  2528  0249  0099               	movwf	25	;volatile
  2529                           
  2530                           ;mcc.c: 83: OSCTUNE = 0x00;
  2531  024A  0198               	clrf	24	;volatile
  2532  024B                     l113:	
  2533                           ;mcc.c: 86: {
  2534                           
  2535                           ;mcc.c: 85: while(PLLR == 0)
  2536                           
  2537  024B  1B1A               	btfsc	26,6	;volatile
  2538  024C  0008               	return
  2539  024D  2A4B               	goto	l113
  2540  024E                     __end_of_OSCILLATOR_Initialize:	
  2541                           
  2542                           	psect	intentry
  2543  0004                     __pintentry:	
  2544 ;; *************** function _INTERRUPT_InterruptManager *****************
  2545 ;; Defined at:
  2546 ;;		line 51 in file "mcc_generated_files/interrupt_manager.c"
  2547 ;; Parameters:    Size  Location     Type
  2548 ;;		None
  2549 ;; Auto vars:     Size  Location     Type
  2550 ;;		None
  2551 ;; Return value:  Size  Location     Type
  2552 ;;                  1    wreg      void 
  2553 ;; Registers used:
  2554 ;;		wreg, status,2, status,0, pclath, cstack
  2555 ;; Tracked objects:
  2556 ;;		On entry : 0/0
  2557 ;;		On exit  : 0/0
  2558 ;;		Unchanged: 0/0
  2559 ;; Data sizes:     COMMON   BANK0   BANK1   BANK2   BANK3   BANK4
  2560 ;;      Params:         0       0       0       0       0       0
  2561 ;;      Locals:         0       0       0       0       0       0
  2562 ;;      Temps:          1       0       0       0       0       0
  2563 ;;      Totals:         1       0       0       0       0       0
  2564 ;;Total ram usage:        1 bytes
  2565 ;; Hardware stack levels used:    1
  2566 ;; Hardware stack levels required when called:    2
  2567 ;; This function calls:
  2568 ;;		_TMR6_ISR
  2569 ;; This function is called by:
  2570 ;;		Interrupt level 1
  2571 ;; This function uses a non-reentrant model
  2572 ;;
  2573                           
  2574  0004                     _INTERRUPT_InterruptManager:	
  2575                           
  2576                           ;incstack = 0
  2577  0004  147E               	bsf	126,0	;set compiler interrupt flag (level 1)
  2578                           
  2579                           ; Regs used in _INTERRUPT_InterruptManager: [wreg+status,2+status,0+pclath+cstack]
  2580  0005  3180               	pagesel	$
  2581  0006  0020               	movlb	0	; select bank0
  2582  0007  087F               	movf	127,w
  2583  0008  00F0               	movwf	??_INTERRUPT_InterruptManager
  2584                           
  2585                           ;interrupt_manager.c: 54: if(INTCONbits.PEIE == 1 && PIE3bits.TMR6IE == 1 && PIR3bits.TM
      +                          R6IF == 1)
  2586  0009  1F0B               	btfss	11,6	;volatile
  2587  000A  2813               	goto	i1l15
  2588  000B  0021               	movlb	1	; select bank1
  2589  000C  1D93               	btfss	19,3	;volatile
  2590  000D  2813               	goto	i1l15
  2591  000E  0020               	movlb	0	; select bank0
  2592  000F  1D93               	btfss	19,3	;volatile
  2593  0010  2813               	goto	i1l15
  2594                           
  2595                           ;interrupt_manager.c: 55: {
  2596                           ;interrupt_manager.c: 56: TMR6_ISR();
  2597  0011  3182  2227         	fcall	_TMR6_ISR
  2598  0013                     i1l15:	
  2599                           ;interrupt_manager.c: 58: else
  2600                           ;interrupt_manager.c: 59: {
  2601                           
  2602                           ;interrupt_manager.c: 57: }
  2603                           
  2604  0013  0870               	movf	??_INTERRUPT_InterruptManager,w
  2605  0014  0020               	movlb	0	; select bank0
  2606  0015  00FF               	movwf	127
  2607  0016  107E               	bcf	126,0	;clear compiler interrupt flag (level 1)
  2608  0017  0009               	retfie
  2609  0018                     __end_of_INTERRUPT_InterruptManager:	
  2610                           
  2611                           	psect	text12
  2612  0227                     __ptext12:	
  2613 ;; *************** function _TMR6_ISR *****************
  2614 ;; Defined at:
  2615 ;;		line 121 in file "mcc_generated_files/tmr6.c"
  2616 ;; Parameters:    Size  Location     Type
  2617 ;;		None
  2618 ;; Auto vars:     Size  Location     Type
  2619 ;;		None
  2620 ;; Return value:  Size  Location     Type
  2621 ;;                  1    wreg      void 
  2622 ;; Registers used:
  2623 ;;		wreg, status,2, status,0, pclath, cstack
  2624 ;; Tracked objects:
  2625 ;;		On entry : 0/0
  2626 ;;		On exit  : 0/0
  2627 ;;		Unchanged: 0/0
  2628 ;; Data sizes:     COMMON   BANK0   BANK1   BANK2   BANK3   BANK4
  2629 ;;      Params:         0       0       0       0       0       0
  2630 ;;      Locals:         0       0       0       0       0       0
  2631 ;;      Temps:          0       0       0       0       0       0
  2632 ;;      Totals:         0       0       0       0       0       0
  2633 ;;Total ram usage:        0 bytes
  2634 ;; Hardware stack levels used:    1
  2635 ;; Hardware stack levels required when called:    1
  2636 ;; This function calls:
  2637 ;;		Absolute function
  2638 ;;		_TMR6_DefaultInterruptHandler
  2639 ;;		__miliSaat
  2640 ;; This function is called by:
  2641 ;;		_INTERRUPT_InterruptManager
  2642 ;; This function uses a non-reentrant model
  2643 ;;
  2644                           
  2645                           
  2646                           ;psect for function _TMR6_ISR
  2647  0227                     _TMR6_ISR:	
  2648                           
  2649                           ;tmr6.c: 125: PIR3bits.TMR6IF = 0;
  2650                           
  2651                           ;incstack = 0
  2652                           ; Regs used in _TMR6_ISR: [wreg+status,2+status,0+pclath+cstack]
  2653  0227  0020               	movlb	0	; select bank0
  2654  0228  1193               	bcf	19,3	;volatile
  2655                           
  2656                           ;tmr6.c: 127: if(TMR6_InterruptHandler)
  2657  0229  0828               	movf	_TMR6_InterruptHandler,w
  2658  022A  0429               	iorwf	_TMR6_InterruptHandler+1,w
  2659  022B  1903               	btfsc	3,2
  2660  022C  0008               	return
  2661                           
  2662                           ;tmr6.c: 128: {
  2663                           ;tmr6.c: 129: TMR6_InterruptHandler();
  2664  022D  0829               	movf	_TMR6_InterruptHandler+1,w
  2665  022E  008A               	movwf	10
  2666  022F  0828               	movf	_TMR6_InterruptHandler,w
  2667  0230  000A               	callw
  2668  0231  3182               	pagesel	$
  2669  0232  0008               	return
  2670  0233                     __end_of_TMR6_ISR:	
  2671                           
  2672                           	psect	text13
  2673  025B                     __ptext13:	
  2674 ;; *************** function _TMR6_DefaultInterruptHandler *****************
  2675 ;; Defined at:
  2676 ;;		line 138 in file "mcc_generated_files/tmr6.c"
  2677 ;; Parameters:    Size  Location     Type
  2678 ;;		None
  2679 ;; Auto vars:     Size  Location     Type
  2680 ;;		None
  2681 ;; Return value:  Size  Location     Type
  2682 ;;                  1    wreg      void 
  2683 ;; Registers used:
  2684 ;;		None
  2685 ;; Tracked objects:
  2686 ;;		On entry : 0/0
  2687 ;;		On exit  : 0/0
  2688 ;;		Unchanged: 0/0
  2689 ;; Data sizes:     COMMON   BANK0   BANK1   BANK2   BANK3   BANK4
  2690 ;;      Params:         0       0       0       0       0       0
  2691 ;;      Locals:         0       0       0       0       0       0
  2692 ;;      Temps:          0       0       0       0       0       0
  2693 ;;      Totals:         0       0       0       0       0       0
  2694 ;;Total ram usage:        0 bytes
  2695 ;; Hardware stack levels used:    1
  2696 ;; This function calls:
  2697 ;;		Nothing
  2698 ;; This function is called by:
  2699 ;;		_TMR6_Initialize
  2700 ;;		_TMR6_ISR
  2701 ;; This function uses a non-reentrant model
  2702 ;;
  2703                           
  2704                           
  2705                           ;psect for function _TMR6_DefaultInterruptHandler
  2706  025B                     _TMR6_DefaultInterruptHandler:	
  2707                           
  2708                           ;incstack = 0
  2709                           ; Regs used in _TMR6_DefaultInterruptHandler: []
  2710  025B  0008               	return
  2711  025C                     __end_of_TMR6_DefaultInterruptHandler:	
  2712                           
  2713                           	psect	text14
  2714  023D                     __ptext14:	
  2715 ;; *************** function __miliSaat *****************
  2716 ;; Defined at:
  2717 ;;		line 16 in file "zaman.c"
  2718 ;; Parameters:    Size  Location     Type
  2719 ;;		None
  2720 ;; Auto vars:     Size  Location     Type
  2721 ;;		None
  2722 ;; Return value:  Size  Location     Type
  2723 ;;                  1    wreg      void 
  2724 ;; Registers used:
  2725 ;;		wreg
  2726 ;; Tracked objects:
  2727 ;;		On entry : 0/0
  2728 ;;		On exit  : 0/0
  2729 ;;		Unchanged: 0/0
  2730 ;; Data sizes:     COMMON   BANK0   BANK1   BANK2   BANK3   BANK4
  2731 ;;      Params:         0       0       0       0       0       0
  2732 ;;      Locals:         0       0       0       0       0       0
  2733 ;;      Temps:          0       0       0       0       0       0
  2734 ;;      Totals:         0       0       0       0       0       0
  2735 ;;Total ram usage:        0 bytes
  2736 ;; Hardware stack levels used:    1
  2737 ;; This function calls:
  2738 ;;		Nothing
  2739 ;; This function is called by:
  2740 ;;		_main
  2741 ;;		_TMR6_ISR
  2742 ;; This function uses a non-reentrant model
  2743 ;;
  2744                           
  2745                           
  2746                           ;psect for function __miliSaat
  2747  023D                     __miliSaat:	
  2748                           
  2749                           ;zaman.c: 18: _msaniye++;
  2750                           
  2751                           ;incstack = 0
  2752                           ; Regs used in __miliSaat: [wreg]
  2753  023D  3001               	movlw	1
  2754  023E  0020               	movlb	0	; select bank0
  2755  023F  07A4               	addwf	__msaniye,f
  2756  0240  3000               	movlw	0
  2757  0241  3DA5               	addwfc	__msaniye+1,f
  2758  0242  3000               	movlw	0
  2759  0243  3DA6               	addwfc	__msaniye+2,f
  2760  0244  3000               	movlw	0
  2761  0245  3DA7               	addwfc	__msaniye+3,f
  2762  0246  0008               	return
  2763  0247                     __end_of__miliSaat:	
  2764  007E                     btemp	set	126	;btemp
  2765  007E                     int$flags	set	126
  2766  007E                     wtemp0	set	126


Data Sizes:
    Strings     0
    Constant    0
    Data        0
    BSS         13
    Persistent  0
    Stack       0

Auto Spaces:
    Space          Size  Autos    Used
    COMMON           14     10      12
    BANK0            80      2      14
    BANK1            80      0       0
    BANK2            80      0       0
    BANK3            80      0       0
    BANK4            48      0       0

Pointer List with Targets:

    TMR6_SetInterruptHandler@InterruptHandler	PTR void  size(2) Largest target is 1
		 -> _miliSaat(), TMR6_DefaultInterruptHandler(), 

    TMR6_InterruptHandler	PTR FTN()void  size(2) Largest target is 1
		 -> _miliSaat(), Absolute function(), TMR6_DefaultInterruptHandler(), 


Critical Paths under _main in COMMON

    _main->_buton_oku
    _buton_oku->_buton_kontrol
    _buton_kontrol->_miliSaniye
    _TMR6_Initialize->_TMR6_SetInterruptHandler

Critical Paths under _INTERRUPT_InterruptManager in COMMON

    None.

Critical Paths under _main in BANK0

    None.

Critical Paths under _INTERRUPT_InterruptManager in BANK0

    None.

Critical Paths under _main in BANK1

    None.

Critical Paths under _INTERRUPT_InterruptManager in BANK1

    None.

Critical Paths under _main in BANK2

    None.

Critical Paths under _INTERRUPT_InterruptManager in BANK2

    None.

Critical Paths under _main in BANK3

    None.

Critical Paths under _INTERRUPT_InterruptManager in BANK3

    None.

Critical Paths under _main in BANK4

    None.

Critical Paths under _INTERRUPT_InterruptManager in BANK4

    None.

Call Graph Tables:

 ---------------------------------------------------------------------------------
 (Depth) Function   	        Calls       Base Space   Used Autos Params    Refs
 ---------------------------------------------------------------------------------
 (0) _main                                                 2     2      0     300
                                              0 BANK0      2     2      0
                  _SYSTEM_Initialize
           _TMR6_SetInterruptHandler
                          _buton_oku
 ---------------------------------------------------------------------------------
 (1) _buton_oku                                            1     1      0       0
                                              9 COMMON     1     1      0
                      _buton_kontrol
 ---------------------------------------------------------------------------------
 (2) _buton_kontrol                                        4     4      0       0
                                              5 COMMON     4     4      0
                         _miliSaniye
 ---------------------------------------------------------------------------------
 (3) _miliSaniye                                           4     0      4       0
                                              1 COMMON     4     0      4
 ---------------------------------------------------------------------------------
 (1) _SYSTEM_Initialize                                    0     0      0     150
              _OSCILLATOR_Initialize
             _PIN_MANAGER_Initialize
                    _TMR6_Initialize
                     _WDT_Initialize
 ---------------------------------------------------------------------------------
 (2) _WDT_Initialize                                       0     0      0       0
 ---------------------------------------------------------------------------------
 (2) _TMR6_Initialize                                      0     0      0     150
           _TMR6_SetInterruptHandler
                    _TMR6_StartTimer
 ---------------------------------------------------------------------------------
 (3) _TMR6_StartTimer                                      0     0      0       0
 ---------------------------------------------------------------------------------
 (1) _TMR6_SetInterruptHandler                             2     0      2     150
                                              1 COMMON     2     0      2
 ---------------------------------------------------------------------------------
 (2) _PIN_MANAGER_Initialize                               0     0      0       0
 ---------------------------------------------------------------------------------
 (2) _OSCILLATOR_Initialize                                0     0      0       0
 ---------------------------------------------------------------------------------
 Estimated maximum stack depth 3
 ---------------------------------------------------------------------------------
 (Depth) Function   	        Calls       Base Space   Used Autos Params    Refs
 ---------------------------------------------------------------------------------
 (4) _INTERRUPT_InterruptManager                           1     1      0       0
                                              0 COMMON     1     1      0
                           _TMR6_ISR
 ---------------------------------------------------------------------------------
 (5) _TMR6_ISR                                             0     0      0       0
                   Absolute function *
       _TMR6_DefaultInterruptHandler *
                          __miliSaat *
 ---------------------------------------------------------------------------------
 (6) __miliSaat                                            0     0      0       0
 ---------------------------------------------------------------------------------
 (6) _TMR6_DefaultInterruptHandler                         0     0      0       0
 ---------------------------------------------------------------------------------
 (6) Absolute function(Fake)                               0     0      0       0
 ---------------------------------------------------------------------------------
 Estimated maximum stack depth 6
 ---------------------------------------------------------------------------------

 Call Graph Graphs:

 _main (ROOT)
   _SYSTEM_Initialize
     _OSCILLATOR_Initialize
     _PIN_MANAGER_Initialize
     _TMR6_Initialize
       _TMR6_SetInterruptHandler
       _TMR6_StartTimer
     _WDT_Initialize
   _TMR6_SetInterruptHandler
   _buton_oku
     _buton_kontrol
       _miliSaniye

 _INTERRUPT_InterruptManager (ROOT)
   _TMR6_ISR
     Absolute function(Fake) *
     _TMR6_DefaultInterruptHandler *
     __miliSaat *

 Address spaces:
Name               Size   Autos  Total    Cost      Usage
BIGRAM             170      0       0       0        0.0%
EEDATA             100      0       0       0        0.0%
NULL                 0      0       0       0        0.0%
CODE                 0      0       0       0        0.0%
BITCOMMON            E      0       1       1        7.1%
BITSFR0              0      0       0       1        0.0%
SFR0                 0      0       0       1        0.0%
COMMON               E      A       C       2       85.7%
BITSFR1              0      0       0       2        0.0%
SFR1                 0      0       0       2        0.0%
BITSFR2              0      0       0       3        0.0%
SFR2                 0      0       0       3        0.0%
STACK                0      0       0       3        0.0%
BITSFR3              0      0       0       4        0.0%
SFR3                 0      0       0       4        0.0%
ABS                  0      0      1A       4        0.0%
BITBANK0            50      0       0       5        0.0%
BITSFR4              0      0       0       5        0.0%
SFR4                 0      0       0       5        0.0%
BANK0               50      2       E       6       17.5%
BITSFR5              0      0       0       6        0.0%
SFR5                 0      0       0       6        0.0%
BITBANK1            50      0       0       7        0.0%
BITSFR6              0      0       0       7        0.0%
SFR6                 0      0       0       7        0.0%
BANK1               50      0       0       8        0.0%
BITSFR7              0      0       0       8        0.0%
SFR7                 0      0       0       8        0.0%
BITBANK2            50      0       0       9        0.0%
BITSFR8              0      0       0       9        0.0%
SFR8                 0      0       0       9        0.0%
BANK2               50      0       0      10        0.0%
BITSFR9              0      0       0      10        0.0%
SFR9                 0      0       0      10        0.0%
BITBANK3            50      0       0      11        0.0%
BITSFR10             0      0       0      11        0.0%
SFR10                0      0       0      11        0.0%
BANK3               50      0       0      12        0.0%
BITSFR11             0      0       0      12        0.0%
SFR11                0      0       0      12        0.0%
BITBANK4            30      0       0      13        0.0%
BITSFR12             0      0       0      13        0.0%
SFR12                0      0       0      13        0.0%
BANK4               30      0       0      14        0.0%
BITSFR13             0      0       0      14        0.0%
SFR13                0      0       0      14        0.0%
BITSFR14             0      0       0      15        0.0%
SFR14                0      0       0      15        0.0%
DATA                 0      0      1A      15        0.0%
BITSFR15             0      0       0      16        0.0%
SFR15                0      0       0      16        0.0%
BITSFR16             0      0       0      17        0.0%
SFR16                0      0       0      17        0.0%
BITSFR17             0      0       0      18        0.0%
SFR17                0      0       0      18        0.0%
BITSFR18             0      0       0      19        0.0%
SFR18                0      0       0      19        0.0%
BITSFR19             0      0       0      20        0.0%
SFR19                0      0       0      20        0.0%
BITSFR20             0      0       0      21        0.0%
SFR20                0      0       0      21        0.0%
BITSFR21             0      0       0      22        0.0%
SFR21                0      0       0      22        0.0%
BITSFR22             0      0       0      23        0.0%
SFR22                0      0       0      23        0.0%
BITSFR23             0      0       0      24        0.0%
SFR23                0      0       0      24        0.0%
BITSFR24             0      0       0      25        0.0%
SFR24                0      0       0      25        0.0%
BITSFR25             0      0       0      26        0.0%
SFR25                0      0       0      26        0.0%
BITSFR26             0      0       0      27        0.0%
SFR26                0      0       0      27        0.0%
BITSFR27             0      0       0      28        0.0%
SFR27                0      0       0      28        0.0%
BITSFR28             0      0       0      29        0.0%
SFR28                0      0       0      29        0.0%
BITSFR29             0      0       0      30        0.0%
SFR29                0      0       0      30        0.0%
BITSFR30             0      0       0      31        0.0%
SFR30                0      0       0      31        0.0%
BITSFR31             0      0       0      32        0.0%
SFR31                0      0       0      32        0.0%


Microchip Technology PIC Macro Assembler V1.42 build -159332390 
Symbol Table                                                                                   Tue Jun 20 18:51:29 2017

                                       pc 0002                               __CFG_CP$OFF 0000  
                       ??_TMR6_StartTimer 0071                                       l113 024B  
                                     l216 0204                              __CFG_CPD$OFF 0000  
                                     _PR6 041D                                       u710 01AB  
                                     u630 016E                                       u730 01B6  
                                     u650 017A                                       u670 0185  
                                     u690 019F                                       u757 015A  
                            __CFG_BORV$LO 0000                                       wreg 0009  
                            __CFG_IESO$ON 0000                                      S1308 020D  
                            __CFG_LVP$OFF 0000                                      l1030 0049  
                                    l1014 002E                                      l1024 0045  
                                    l1104 0136                                      l1050 009C  
                                    l1106 0141                                      l1060 00B0  
                                    l1036 0077                                      l1044 0089  
                                    l1132 020A                                      l1048 009A  
                                    l1074 00E6                                      l1250 0165  
                                    l1092 012E                                      l1084 00FD  
                                    l1068 00DE                                      l1252 0171  
                                    l1260 0189                                      l1094 0133  
                                    l1078 00F4                                      l1262 0196  
                                    l1254 017C                                      l1088 0127  
                                    l1264 01A2                                      l1272 01BA  
                                    l1256 0187                                      l1266 01AD  
                                    l1268 01B8                                      l1276 01C6  
                                    _LATA 010C                                      _LATB 010D  
                                    i1l15 0013                                      _PLLR 04D6  
                                    _TMR6 041C                                      _WPUA 020C  
                                    _WPUB 020D                              __CFG_WRT$OFF 0000  
                           __CFG_FCMEN$ON 0000                                      _main 0143  
                                    fsr0l 0004                                      btemp 007E  
                           __CFG_BOREN$ON 0000                                      start 0018  
                           __CFG_MCLRE$ON 0000                             __CFG_PLLEN$ON 0000  
          __size_of_OSCILLATOR_Initialize 0007             __end_of_OSCILLATOR_Initialize 024E  
                                   ?_main 0070                             __CFG_WDTE$OFF 0000  
                                   _T6CON 041E                                     _TRISA 008C  
                                   _TRISB 008D         __size_of_TMR6_SetInterruptHandler 0006  
               ?_TMR6_SetInterruptHandler 0071                          __end_of_TMR6_ISR 0233  
                          _WDT_Initialize 0254                            __pbitbssCOMMON 03D0  
                                   pclath 000A                                     status 0003  
                                   wtemp0 007E            ??_TMR6_DefaultInterruptHandler 0070  
                         __initialization 001A                               _uzunBasildi 03D0  
                            __end_of_main 01D1               ?_INTERRUPT_InterruptManager 0070  
                                  ??_main 002C                    __size_of_buton_kontrol 0116  
                  __end_of_WDT_Initialize 0258                           _TMR6_Initialize 01E9  
                                  _ANSELA 018C                                    _ANSELB 018D  
                                  _OSCCON 0099                                    _WDTCON 0097  
                          __CFG_PWRTE$OFF 0000                            __CFG_STVREN$ON 0000  
                         ?_WDT_Initialize 0070  TMR6_SetInterruptHandler@InterruptHandler 0071  
                       _SYSTEM_Initialize 021B                   __end_of__initialization 0029  
                      ?_SYSTEM_Initialize 0070                           _TMR6_StartTimer 0258  
                           _buton_kontrol 002D                            __pcstackCOMMON 0070  
                     ??_SYSTEM_Initialize 0073                                 ?_TMR6_ISR 0070  
                      __size_of__miliSaat 000A                   __end_of_TMR6_Initialize 01FD  
                          _OPTION_REGbits 0095                 __end_of_SYSTEM_Initialize 0227  
                              __pbssBANK0 0020                        __size_of_buton_oku 0010  
                          ?_buton_kontrol 0070                                __pmaintext 0143  
        __end_of_TMR6_SetInterruptHandler 0254                                ??_TMR6_ISR 0070  
                              __pintentry 0004                                   _APFCON0 011D  
                                 _APFCON1 011E                                   _OSCTUNE 0098  
                 __end_of_TMR6_StartTimer 025B                         __end_of__miliSaat 0247  
                              _miliSaniye 0233                          ?_TMR6_Initialize 0070  
                                 __ptext1 01FD                                   __ptext2 002D  
                                 __ptext3 0233                                   __ptext4 021B  
                                 __ptext5 0254                                   __ptext6 01E9  
                                 __ptext7 0258                                   __ptext8 024E  
                                 __ptext9 01D1                         __end_of_buton_oku 020D  
                                 _butonNo 007B                     _OSCILLATOR_Initialize 0247  
                ??_PIN_MANAGER_Initialize 0071                                 _T6CONbits 041E  
              __size_of_SYSTEM_Initialize 000C                      end_of_initialization 0029  
                         ??_buton_kontrol 0075                          ??_WDT_Initialize 0071  
                               _PORTBbits 000D                  _TMR6_SetInterruptHandler 024E  
                        __CFG_FOSC$INTOSC 0000                          ?_TMR6_StartTimer 0070  
                             ?_miliSaniye 0071                         __size_of_TMR6_ISR 000C  
                  ?_OSCILLATOR_Initialize 0070                       start_initialization 001A  
         __size_of_PIN_MANAGER_Initialize 0018                               __pbssCOMMON 007B  
                               ___latbits 0001                             __pcstackBANK0 002C  
                     __size_of_miliSaniye 000A                                 __miliSaat 023D  
                   _TMR6_InterruptHandler 0028                    _PIN_MANAGER_Initialize 01D1  
            ??_INTERRUPT_InterruptManager 0070                                 __pswtext1 020D  
                               _butonSure 0020                                 _buton_oku 01FD  
                                _LATBbits 010D                                ?__miliSaat 0070  
                                _PIE3bits 0093       __size_of_INTERRUPT_InterruptManager 0014  
                                _PIR3bits 0013                ??_TMR6_SetInterruptHandler 0073  
                                _TMR6_ISR 0227                  __size_of_TMR6_Initialize 0014  
                              ?_buton_oku 0070                     __end_of_buton_kontrol 0143  
                             _butonDurumu 002B                   ??_OSCILLATOR_Initialize 0071  
                            ??_miliSaniye 0075                                  __msaniye 0024  
                                __ptext10 0247                                  __ptext12 0227  
                                __ptext13 025B                                  __ptext14 023D  
                           __size_of_main 008E                        __end_of_miliSaniye 023D  
                             ??__miliSaat 0070                  __size_of_TMR6_StartTimer 0003  
                                int$flags 007E                               _oncekiButon 002A  
      __end_of_INTERRUPT_InterruptManager 0018                _INTERRUPT_InterruptManager 0004  
                              _INTCONbits 000B                               ??_buton_oku 0079  
    __end_of_TMR6_DefaultInterruptHandler 025C     __size_of_TMR6_DefaultInterruptHandler 0001  
            _TMR6_DefaultInterruptHandler 025B                   __size_of_WDT_Initialize 0004  
                                intlevel1 0000                   ?_PIN_MANAGER_Initialize 0070  
                       ??_TMR6_Initialize 0073                         __CFG_CLKOUTEN$OFF 0000  
          __end_of_PIN_MANAGER_Initialize 01E9             ?_TMR6_DefaultInterruptHandler 0070  
