

Microchip Technology PIC LITE Macro Assembler V1.44 build -154322312 
                                                                                               Fri Oct 13 21:08:40 2017

Microchip Technology Omniscient Code Generator v1.44 (Free mode) build 201709140600
     1                           	processor	16F1827
     2                           	opt	pw 120
     3                           	opt	lm
     4                           	psect	idataBANK0,global,class=CODE,delta=2
     5                           	psect	stringtext1,global,class=STRCODE,delta=2
     6                           	psect	stringtext2,global,class=STRCODE,delta=2
     7                           	psect	stringtext3,global,class=STRCODE,delta=2
     8                           	psect	stringtext4,global,class=STRCODE,delta=2
     9                           	psect	stringtext5,global,class=STRCODE,delta=2
    10                           	psect	stringtext6,global,class=STRCODE,delta=2
    11                           	psect	stringtext7,global,class=STRCODE,delta=2
    12                           	psect	cinit,global,class=CODE,merge=1,delta=2
    13                           	psect	dataBANK0,global,class=BANK0,space=1,delta=1
    14                           	psect	cstackCOMMON,global,class=COMMON,space=1,delta=1
    15                           	psect	cstackBANK0,global,class=BANK0,space=1,delta=1
    16                           	psect	maintext,global,class=CODE,merge=1,split=1,delta=2
    17                           	psect	text1,local,class=CODE,merge=1,delta=2
    18                           	psect	text2,local,class=CODE,merge=1,delta=2,group=2
    19                           	psect	text3,local,class=CODE,merge=1,delta=2,group=2
    20                           	psect	text4,local,class=CODE,merge=1,delta=2
    21                           	psect	text5,local,class=CODE,merge=1,delta=2
    22                           	psect	text6,local,class=CODE,merge=1,delta=2
    23                           	psect	text7,local,class=CODE,merge=1,delta=2
    24                           	psect	text8,local,class=CODE,merge=1,delta=2,group=2
    25                           	psect	text9,local,class=CODE,merge=1,delta=2
    26                           	psect	text10,local,class=CODE,merge=1,delta=2,group=2
    27                           	psect	text11,local,class=CODE,merge=1,delta=2
    28                           	psect	text12,local,class=CODE,merge=1,delta=2
    29                           	psect	text13,local,class=CODE,merge=1,delta=2
    30                           	psect	text14,local,class=CODE,merge=1,delta=2
    31                           	psect	text15,local,class=CODE,merge=1,delta=2
    32                           	psect	text16,local,class=CODE,merge=1,delta=2
    33                           	dabs	1,0x7E,2
    34  0000                     
    35                           ; Version 1.44
    36                           ; Generated 14/09/2017 GMT
    37                           ; 
    38                           ; Copyright Â© 2017, Microchip Technology Inc. and its subsidiaries ("Microchip")
    39                           ; All rights reserved.
    40                           ; 
    41                           ; This software is developed by Microchip Technology Inc. and its subsidiaries ("Microch
      +                          ip").
    42                           ; 
    43                           ; Redistribution and use in source and binary forms, with or without modification, are
    44                           ; permitted provided that the following conditions are met:
    45                           ; 
    46                           ;     1. Redistributions of source code must retain the above copyright notice, this lis
      +                          t of
    47                           ;        conditions and the following disclaimer.
    48                           ; 
    49                           ;     2. Redistributions in binary form must reproduce the above copyright notice, this 
      +                          list
    50                           ;        of conditions and the following disclaimer in the documentation and/or other
    51                           ;        materials provided with the distribution.
    52                           ; 
    53                           ;     3. Microchip's name may not be used to endorse or promote products derived from th
      +                          is
    54                           ;        software without specific prior written permission.
    55                           ; 
    56                           ; THIS SOFTWARE IS PROVIDED BY MICROCHIP "AS IS" AND ANY EXPRESS OR IMPLIED WARRANTIES,
    57                           ; INCLUDING, BUT NOT LIMITED TO, THE IMPLIED WARRANTIES OF MERCHANTABILITY AND FITNESS F
      +                          OR
    58                           ; PURPOSE ARE DISCLAIMED.  IN NO EVENT SHALL MICROCHIP BE LIABLE FOR ANY DIRECT, INDIREC
      +                          T,
    59                           ; INCIDENTAL, SPECIAL, EXEMPLARY, OR CONSEQUENTIAL DAMAGES (INCLUDING BUT NOT LIMITED TO
    60                           ; PROCUREMENT OF SUBSTITUTE GOODS OR SERVICES; LOSS OF USE, DATA OR PROFITS; OR BUSINESS
    61                           ; INTERRUPTION) HOWSOEVER CAUSED AND ON ANY THEORY OF LIABILITY, WHETHER IN CONTRACT, ST
      +                          RICT
    62                           ; LIABILITY, OR TORT (INCLUDING NEGLIGENCE OR OTHERWISE) ARISING IN ANY WAY OUT OF THE U
      +                          SE OF
    63                           ; THIS SOFTWARE, EVEN IF ADVISED OF THE POSSIBILITY OF SUCH DAMAGE.
    64                           ; 
    65                           ; 
    66                           ; Code-generator required, PIC16F1827 Definitions
    67                           ; 
    68                           ; SFR Addresses
    69  0000                     	;# 
    70  0001                     	;# 
    71  0002                     	;# 
    72  0003                     	;# 
    73  0004                     	;# 
    74  0005                     	;# 
    75  0006                     	;# 
    76  0007                     	;# 
    77  0008                     	;# 
    78  0009                     	;# 
    79  000A                     	;# 
    80  000B                     	;# 
    81  000C                     	;# 
    82  000D                     	;# 
    83  0011                     	;# 
    84  0012                     	;# 
    85  0013                     	;# 
    86  0014                     	;# 
    87  0015                     	;# 
    88  0016                     	;# 
    89  0016                     	;# 
    90  0017                     	;# 
    91  0018                     	;# 
    92  0019                     	;# 
    93  001A                     	;# 
    94  001B                     	;# 
    95  001C                     	;# 
    96  001E                     	;# 
    97  001F                     	;# 
    98  008C                     	;# 
    99  008D                     	;# 
   100  0091                     	;# 
   101  0092                     	;# 
   102  0093                     	;# 
   103  0094                     	;# 
   104  0095                     	;# 
   105  0096                     	;# 
   106  0097                     	;# 
   107  0098                     	;# 
   108  0099                     	;# 
   109  009A                     	;# 
   110  009B                     	;# 
   111  009B                     	;# 
   112  009C                     	;# 
   113  009D                     	;# 
   114  009E                     	;# 
   115  010C                     	;# 
   116  010D                     	;# 
   117  0111                     	;# 
   118  0112                     	;# 
   119  0113                     	;# 
   120  0114                     	;# 
   121  0115                     	;# 
   122  0116                     	;# 
   123  0117                     	;# 
   124  0118                     	;# 
   125  0119                     	;# 
   126  011A                     	;# 
   127  011B                     	;# 
   128  011D                     	;# 
   129  011E                     	;# 
   130  018C                     	;# 
   131  018D                     	;# 
   132  0191                     	;# 
   133  0191                     	;# 
   134  0192                     	;# 
   135  0193                     	;# 
   136  0193                     	;# 
   137  0193                     	;# 
   138  0194                     	;# 
   139  0195                     	;# 
   140  0196                     	;# 
   141  0199                     	;# 
   142  019A                     	;# 
   143  019B                     	;# 
   144  019B                     	;# 
   145  019B                     	;# 
   146  019B                     	;# 
   147  019C                     	;# 
   148  019C                     	;# 
   149  019D                     	;# 
   150  019E                     	;# 
   151  019F                     	;# 
   152  020C                     	;# 
   153  020D                     	;# 
   154  0211                     	;# 
   155  0211                     	;# 
   156  0212                     	;# 
   157  0212                     	;# 
   158  0213                     	;# 
   159  0213                     	;# 
   160  0214                     	;# 
   161  0214                     	;# 
   162  0215                     	;# 
   163  0215                     	;# 
   164  0215                     	;# 
   165  0216                     	;# 
   166  0216                     	;# 
   167  0217                     	;# 
   168  0217                     	;# 
   169  0219                     	;# 
   170  021A                     	;# 
   171  021B                     	;# 
   172  021C                     	;# 
   173  021D                     	;# 
   174  021E                     	;# 
   175  021F                     	;# 
   176  0291                     	;# 
   177  0291                     	;# 
   178  0292                     	;# 
   179  0293                     	;# 
   180  0294                     	;# 
   181  0295                     	;# 
   182  0295                     	;# 
   183  0296                     	;# 
   184  0298                     	;# 
   185  0298                     	;# 
   186  0299                     	;# 
   187  029A                     	;# 
   188  029B                     	;# 
   189  029C                     	;# 
   190  029C                     	;# 
   191  029D                     	;# 
   192  029E                     	;# 
   193  029E                     	;# 
   194  0311                     	;# 
   195  0311                     	;# 
   196  0312                     	;# 
   197  0313                     	;# 
   198  0318                     	;# 
   199  0318                     	;# 
   200  0319                     	;# 
   201  031A                     	;# 
   202  0394                     	;# 
   203  0395                     	;# 
   204  0396                     	;# 
   205  039A                     	;# 
   206  039C                     	;# 
   207  039D                     	;# 
   208  039E                     	;# 
   209  039F                     	;# 
   210  0415                     	;# 
   211  0416                     	;# 
   212  0417                     	;# 
   213  041C                     	;# 
   214  041D                     	;# 
   215  041E                     	;# 
   216  0FE4                     	;# 
   217  0FE5                     	;# 
   218  0FE6                     	;# 
   219  0FE7                     	;# 
   220  0FE8                     	;# 
   221  0FE9                     	;# 
   222  0FEA                     	;# 
   223  0FEB                     	;# 
   224  0FED                     	;# 
   225  0FEE                     	;# 
   226  0FEF                     	;# 
   227  0000                     	;# 
   228  0001                     	;# 
   229  0002                     	;# 
   230  0003                     	;# 
   231  0004                     	;# 
   232  0005                     	;# 
   233  0006                     	;# 
   234  0007                     	;# 
   235  0008                     	;# 
   236  0009                     	;# 
   237  000A                     	;# 
   238  000B                     	;# 
   239  000C                     	;# 
   240  000D                     	;# 
   241  0011                     	;# 
   242  0012                     	;# 
   243  0013                     	;# 
   244  0014                     	;# 
   245  0015                     	;# 
   246  0016                     	;# 
   247  0016                     	;# 
   248  0017                     	;# 
   249  0018                     	;# 
   250  0019                     	;# 
   251  001A                     	;# 
   252  001B                     	;# 
   253  001C                     	;# 
   254  001E                     	;# 
   255  001F                     	;# 
   256  008C                     	;# 
   257  008D                     	;# 
   258  0091                     	;# 
   259  0092                     	;# 
   260  0093                     	;# 
   261  0094                     	;# 
   262  0095                     	;# 
   263  0096                     	;# 
   264  0097                     	;# 
   265  0098                     	;# 
   266  0099                     	;# 
   267  009A                     	;# 
   268  009B                     	;# 
   269  009B                     	;# 
   270  009C                     	;# 
   271  009D                     	;# 
   272  009E                     	;# 
   273  010C                     	;# 
   274  010D                     	;# 
   275  0111                     	;# 
   276  0112                     	;# 
   277  0113                     	;# 
   278  0114                     	;# 
   279  0115                     	;# 
   280  0116                     	;# 
   281  0117                     	;# 
   282  0118                     	;# 
   283  0119                     	;# 
   284  011A                     	;# 
   285  011B                     	;# 
   286  011D                     	;# 
   287  011E                     	;# 
   288  018C                     	;# 
   289  018D                     	;# 
   290  0191                     	;# 
   291  0191                     	;# 
   292  0192                     	;# 
   293  0193                     	;# 
   294  0193                     	;# 
   295  0193                     	;# 
   296  0194                     	;# 
   297  0195                     	;# 
   298  0196                     	;# 
   299  0199                     	;# 
   300  019A                     	;# 
   301  019B                     	;# 
   302  019B                     	;# 
   303  019B                     	;# 
   304  019B                     	;# 
   305  019C                     	;# 
   306  019C                     	;# 
   307  019D                     	;# 
   308  019E                     	;# 
   309  019F                     	;# 
   310  020C                     	;# 
   311  020D                     	;# 
   312  0211                     	;# 
   313  0211                     	;# 
   314  0212                     	;# 
   315  0212                     	;# 
   316  0213                     	;# 
   317  0213                     	;# 
   318  0214                     	;# 
   319  0214                     	;# 
   320  0215                     	;# 
   321  0215                     	;# 
   322  0215                     	;# 
   323  0216                     	;# 
   324  0216                     	;# 
   325  0217                     	;# 
   326  0217                     	;# 
   327  0219                     	;# 
   328  021A                     	;# 
   329  021B                     	;# 
   330  021C                     	;# 
   331  021D                     	;# 
   332  021E                     	;# 
   333  021F                     	;# 
   334  0291                     	;# 
   335  0291                     	;# 
   336  0292                     	;# 
   337  0293                     	;# 
   338  0294                     	;# 
   339  0295                     	;# 
   340  0295                     	;# 
   341  0296                     	;# 
   342  0298                     	;# 
   343  0298                     	;# 
   344  0299                     	;# 
   345  029A                     	;# 
   346  029B                     	;# 
   347  029C                     	;# 
   348  029C                     	;# 
   349  029D                     	;# 
   350  029E                     	;# 
   351  029E                     	;# 
   352  0311                     	;# 
   353  0311                     	;# 
   354  0312                     	;# 
   355  0313                     	;# 
   356  0318                     	;# 
   357  0318                     	;# 
   358  0319                     	;# 
   359  031A                     	;# 
   360  0394                     	;# 
   361  0395                     	;# 
   362  0396                     	;# 
   363  039A                     	;# 
   364  039C                     	;# 
   365  039D                     	;# 
   366  039E                     	;# 
   367  039F                     	;# 
   368  0415                     	;# 
   369  0416                     	;# 
   370  0417                     	;# 
   371  041C                     	;# 
   372  041D                     	;# 
   373  041E                     	;# 
   374  0FE4                     	;# 
   375  0FE5                     	;# 
   376  0FE6                     	;# 
   377  0FE7                     	;# 
   378  0FE8                     	;# 
   379  0FE9                     	;# 
   380  0FEA                     	;# 
   381  0FEB                     	;# 
   382  0FED                     	;# 
   383  0FEE                     	;# 
   384  0FEF                     	;# 
   385  0000                     	;# 
   386  0001                     	;# 
   387  0002                     	;# 
   388  0003                     	;# 
   389  0004                     	;# 
   390  0005                     	;# 
   391  0006                     	;# 
   392  0007                     	;# 
   393  0008                     	;# 
   394  0009                     	;# 
   395  000A                     	;# 
   396  000B                     	;# 
   397  000C                     	;# 
   398  000D                     	;# 
   399  0011                     	;# 
   400  0012                     	;# 
   401  0013                     	;# 
   402  0014                     	;# 
   403  0015                     	;# 
   404  0016                     	;# 
   405  0016                     	;# 
   406  0017                     	;# 
   407  0018                     	;# 
   408  0019                     	;# 
   409  001A                     	;# 
   410  001B                     	;# 
   411  001C                     	;# 
   412  001E                     	;# 
   413  001F                     	;# 
   414  008C                     	;# 
   415  008D                     	;# 
   416  0091                     	;# 
   417  0092                     	;# 
   418  0093                     	;# 
   419  0094                     	;# 
   420  0095                     	;# 
   421  0096                     	;# 
   422  0097                     	;# 
   423  0098                     	;# 
   424  0099                     	;# 
   425  009A                     	;# 
   426  009B                     	;# 
   427  009B                     	;# 
   428  009C                     	;# 
   429  009D                     	;# 
   430  009E                     	;# 
   431  010C                     	;# 
   432  010D                     	;# 
   433  0111                     	;# 
   434  0112                     	;# 
   435  0113                     	;# 
   436  0114                     	;# 
   437  0115                     	;# 
   438  0116                     	;# 
   439  0117                     	;# 
   440  0118                     	;# 
   441  0119                     	;# 
   442  011A                     	;# 
   443  011B                     	;# 
   444  011D                     	;# 
   445  011E                     	;# 
   446  018C                     	;# 
   447  018D                     	;# 
   448  0191                     	;# 
   449  0191                     	;# 
   450  0192                     	;# 
   451  0193                     	;# 
   452  0193                     	;# 
   453  0193                     	;# 
   454  0194                     	;# 
   455  0195                     	;# 
   456  0196                     	;# 
   457  0199                     	;# 
   458  019A                     	;# 
   459  019B                     	;# 
   460  019B                     	;# 
   461  019B                     	;# 
   462  019B                     	;# 
   463  019C                     	;# 
   464  019C                     	;# 
   465  019D                     	;# 
   466  019E                     	;# 
   467  019F                     	;# 
   468  020C                     	;# 
   469  020D                     	;# 
   470  0211                     	;# 
   471  0211                     	;# 
   472  0212                     	;# 
   473  0212                     	;# 
   474  0213                     	;# 
   475  0213                     	;# 
   476  0214                     	;# 
   477  0214                     	;# 
   478  0215                     	;# 
   479  0215                     	;# 
   480  0215                     	;# 
   481  0216                     	;# 
   482  0216                     	;# 
   483  0217                     	;# 
   484  0217                     	;# 
   485  0219                     	;# 
   486  021A                     	;# 
   487  021B                     	;# 
   488  021C                     	;# 
   489  021D                     	;# 
   490  021E                     	;# 
   491  021F                     	;# 
   492  0291                     	;# 
   493  0291                     	;# 
   494  0292                     	;# 
   495  0293                     	;# 
   496  0294                     	;# 
   497  0295                     	;# 
   498  0295                     	;# 
   499  0296                     	;# 
   500  0298                     	;# 
   501  0298                     	;# 
   502  0299                     	;# 
   503  029A                     	;# 
   504  029B                     	;# 
   505  029C                     	;# 
   506  029C                     	;# 
   507  029D                     	;# 
   508  029E                     	;# 
   509  029E                     	;# 
   510  0311                     	;# 
   511  0311                     	;# 
   512  0312                     	;# 
   513  0313                     	;# 
   514  0318                     	;# 
   515  0318                     	;# 
   516  0319                     	;# 
   517  031A                     	;# 
   518  0394                     	;# 
   519  0395                     	;# 
   520  0396                     	;# 
   521  039A                     	;# 
   522  039C                     	;# 
   523  039D                     	;# 
   524  039E                     	;# 
   525  039F                     	;# 
   526  0415                     	;# 
   527  0416                     	;# 
   528  0417                     	;# 
   529  041C                     	;# 
   530  041D                     	;# 
   531  041E                     	;# 
   532  0FE4                     	;# 
   533  0FE5                     	;# 
   534  0FE6                     	;# 
   535  0FE7                     	;# 
   536  0FE8                     	;# 
   537  0FE9                     	;# 
   538  0FEA                     	;# 
   539  0FEB                     	;# 
   540  0FED                     	;# 
   541  0FEE                     	;# 
   542  0FEF                     	;# 
   543  0000                     	;# 
   544  0001                     	;# 
   545  0002                     	;# 
   546  0003                     	;# 
   547  0004                     	;# 
   548  0005                     	;# 
   549  0006                     	;# 
   550  0007                     	;# 
   551  0008                     	;# 
   552  0009                     	;# 
   553  000A                     	;# 
   554  000B                     	;# 
   555  000C                     	;# 
   556  000D                     	;# 
   557  0011                     	;# 
   558  0012                     	;# 
   559  0013                     	;# 
   560  0014                     	;# 
   561  0015                     	;# 
   562  0016                     	;# 
   563  0016                     	;# 
   564  0017                     	;# 
   565  0018                     	;# 
   566  0019                     	;# 
   567  001A                     	;# 
   568  001B                     	;# 
   569  001C                     	;# 
   570  001E                     	;# 
   571  001F                     	;# 
   572  008C                     	;# 
   573  008D                     	;# 
   574  0091                     	;# 
   575  0092                     	;# 
   576  0093                     	;# 
   577  0094                     	;# 
   578  0095                     	;# 
   579  0096                     	;# 
   580  0097                     	;# 
   581  0098                     	;# 
   582  0099                     	;# 
   583  009A                     	;# 
   584  009B                     	;# 
   585  009B                     	;# 
   586  009C                     	;# 
   587  009D                     	;# 
   588  009E                     	;# 
   589  010C                     	;# 
   590  010D                     	;# 
   591  0111                     	;# 
   592  0112                     	;# 
   593  0113                     	;# 
   594  0114                     	;# 
   595  0115                     	;# 
   596  0116                     	;# 
   597  0117                     	;# 
   598  0118                     	;# 
   599  0119                     	;# 
   600  011A                     	;# 
   601  011B                     	;# 
   602  011D                     	;# 
   603  011E                     	;# 
   604  018C                     	;# 
   605  018D                     	;# 
   606  0191                     	;# 
   607  0191                     	;# 
   608  0192                     	;# 
   609  0193                     	;# 
   610  0193                     	;# 
   611  0193                     	;# 
   612  0194                     	;# 
   613  0195                     	;# 
   614  0196                     	;# 
   615  0199                     	;# 
   616  019A                     	;# 
   617  019B                     	;# 
   618  019B                     	;# 
   619  019B                     	;# 
   620  019B                     	;# 
   621  019C                     	;# 
   622  019C                     	;# 
   623  019D                     	;# 
   624  019E                     	;# 
   625  019F                     	;# 
   626  020C                     	;# 
   627  020D                     	;# 
   628  0211                     	;# 
   629  0211                     	;# 
   630  0212                     	;# 
   631  0212                     	;# 
   632  0213                     	;# 
   633  0213                     	;# 
   634  0214                     	;# 
   635  0214                     	;# 
   636  0215                     	;# 
   637  0215                     	;# 
   638  0215                     	;# 
   639  0216                     	;# 
   640  0216                     	;# 
   641  0217                     	;# 
   642  0217                     	;# 
   643  0219                     	;# 
   644  021A                     	;# 
   645  021B                     	;# 
   646  021C                     	;# 
   647  021D                     	;# 
   648  021E                     	;# 
   649  021F                     	;# 
   650  0291                     	;# 
   651  0291                     	;# 
   652  0292                     	;# 
   653  0293                     	;# 
   654  0294                     	;# 
   655  0295                     	;# 
   656  0295                     	;# 
   657  0296                     	;# 
   658  0298                     	;# 
   659  0298                     	;# 
   660  0299                     	;# 
   661  029A                     	;# 
   662  029B                     	;# 
   663  029C                     	;# 
   664  029C                     	;# 
   665  029D                     	;# 
   666  029E                     	;# 
   667  029E                     	;# 
   668  0311                     	;# 
   669  0311                     	;# 
   670  0312                     	;# 
   671  0313                     	;# 
   672  0318                     	;# 
   673  0318                     	;# 
   674  0319                     	;# 
   675  031A                     	;# 
   676  0394                     	;# 
   677  0395                     	;# 
   678  0396                     	;# 
   679  039A                     	;# 
   680  039C                     	;# 
   681  039D                     	;# 
   682  039E                     	;# 
   683  039F                     	;# 
   684  0415                     	;# 
   685  0416                     	;# 
   686  0417                     	;# 
   687  041C                     	;# 
   688  041D                     	;# 
   689  041E                     	;# 
   690  0FE4                     	;# 
   691  0FE5                     	;# 
   692  0FE6                     	;# 
   693  0FE7                     	;# 
   694  0FE8                     	;# 
   695  0FE9                     	;# 
   696  0FEA                     	;# 
   697  0FEB                     	;# 
   698  0FED                     	;# 
   699  0FEE                     	;# 
   700  0FEF                     	;# 
   701                           
   702                           	psect	idataBANK0
   703  03D8                     __pidataBANK0:	
   704                           
   705                           ;initializer for _lcd_kontrast
   706  03D8  34B1               	retlw	177
   707                           
   708                           	psect	stringtext1
   709  0800                     __pstringtext1:	
   710  0800                     _rakamtablo2:	
   711  0800  3400               	retlw	0
   712  0801  3400               	retlw	0
   713  0802  3400               	retlw	0
   714  0803  3400               	retlw	0
   715  0804  3400               	retlw	0
   716  0805  3400               	retlw	0
   717  0806  3400               	retlw	0
   718  0807  3400               	retlw	0
   719  0808  3400               	retlw	0
   720  0809  3400               	retlw	0
   721  080A  3400               	retlw	0
   722  080B  3400               	retlw	0
   723  080C  3400               	retlw	0
   724  080D  3400               	retlw	0
   725  080E  3400               	retlw	0
   726  080F  3400               	retlw	0
   727  0810  3410               	retlw	16
   728  0811  3438               	retlw	56
   729  0812  3438               	retlw	56
   730  0813  3438               	retlw	56
   731  0814  3438               	retlw	56
   732  0815  3438               	retlw	56
   733  0816  3438               	retlw	56
   734  0817  3438               	retlw	56
   735  0818  3438               	retlw	56
   736  0819  3410               	retlw	16
   737  081A  3400               	retlw	0
   738  081B  3400               	retlw	0
   739  081C  3400               	retlw	0
   740  081D  3400               	retlw	0
   741  081E  3400               	retlw	0
   742  081F  3400               	retlw	0
   743  0820  3400               	retlw	0
   744  0821  3400               	retlw	0
   745  0822  3400               	retlw	0
   746  0823  3400               	retlw	0
   747  0824  3400               	retlw	0
   748  0825  3400               	retlw	0
   749  0826  3400               	retlw	0
   750  0827  3400               	retlw	0
   751  0828  3400               	retlw	0
   752  0829  3400               	retlw	0
   753  082A  3400               	retlw	0
   754  082B  3400               	retlw	0
   755  082C  3400               	retlw	0
   756  082D  3400               	retlw	0
   757  082E  3400               	retlw	0
   758  082F  3400               	retlw	0
   759  0830  3400               	retlw	0
   760  0831  3400               	retlw	0
   761  0832  3400               	retlw	0
   762  0833  3400               	retlw	0
   763  0834  3400               	retlw	0
   764  0835  3400               	retlw	0
   765  0836  3400               	retlw	0
   766  0837  3400               	retlw	0
   767  0838  3400               	retlw	0
   768  0839  3400               	retlw	0
   769  083A  3400               	retlw	0
   770  083B  3400               	retlw	0
   771  083C  3400               	retlw	0
   772  083D  3400               	retlw	0
   773  083E  3400               	retlw	0
   774  083F  3400               	retlw	0
   775  0840  3400               	retlw	0
   776  0841  3400               	retlw	0
   777  0842  3400               	retlw	0
   778  0843  3400               	retlw	0
   779  0844  3400               	retlw	0
   780  0845  3400               	retlw	0
   781  0846  3400               	retlw	0
   782  0847  3400               	retlw	0
   783  0848  3400               	retlw	0
   784  0849  3400               	retlw	0
   785  084A  3400               	retlw	0
   786  084B  3440               	retlw	64
   787  084C  34E0               	retlw	224
   788  084D  34E0               	retlw	224
   789  084E  3440               	retlw	64
   790  084F  3400               	retlw	0
   791  0850  3400               	retlw	0
   792  0851  3400               	retlw	0
   793  0852  3400               	retlw	0
   794  0853  3400               	retlw	0
   795  0854  3400               	retlw	0
   796  0855  3400               	retlw	0
   797  0856  3402               	retlw	2
   798  0857  3406               	retlw	6
   799  0858  340E               	retlw	14
   800  0859  340E               	retlw	14
   801  085A  340E               	retlw	14
   802  085B  340E               	retlw	14
   803  085C  340E               	retlw	14
   804  085D  340E               	retlw	14
   805  085E  3406               	retlw	6
   806  085F  3402               	retlw	2
   807  0860  3400               	retlw	0
   808  0861  3400               	retlw	0
   809  0862  3400               	retlw	0
   810  0863  3400               	retlw	0
   811  0864  3410               	retlw	16
   812  0865  3438               	retlw	56
   813  0866  3438               	retlw	56
   814  0867  3438               	retlw	56
   815  0868  3438               	retlw	56
   816  0869  3438               	retlw	56
   817  086A  3438               	retlw	56
   818  086B  3438               	retlw	56
   819  086C  3438               	retlw	56
   820  086D  3410               	retlw	16
   821  086E  3400               	retlw	0
   822  086F  3400               	retlw	0
   823  0870  3400               	retlw	0
   824  0871  3400               	retlw	0
   825  0872  3480               	retlw	128
   826  0873  34C0               	retlw	192
   827  0874  34E0               	retlw	224
   828  0875  34E0               	retlw	224
   829  0876  34E0               	retlw	224
   830  0877  34E0               	retlw	224
   831  0878  34E0               	retlw	224
   832  0879  34E0               	retlw	224
   833  087A  34C0               	retlw	192
   834  087B  3480               	retlw	128
   835  087C  3400               	retlw	0
   836  087D  3400               	retlw	0
   837  087E  3400               	retlw	0
   838  087F  34FC               	retlw	252
   839  0880  34FA               	retlw	250
   840  0881  34F6               	retlw	246
   841  0882  340E               	retlw	14
   842  0883  340E               	retlw	14
   843  0884  340E               	retlw	14
   844  0885  340E               	retlw	14
   845  0886  340E               	retlw	14
   846  0887  340E               	retlw	14
   847  0888  34F6               	retlw	246
   848  0889  34FA               	retlw	250
   849  088A  34FC               	retlw	252
   850  088B  3400               	retlw	0
   851  088C  3400               	retlw	0
   852  088D  34EF               	retlw	239
   853  088E  34C7               	retlw	199
   854  088F  3483               	retlw	131
   855  0890  3400               	retlw	0
   856  0891  3400               	retlw	0
   857  0892  3400               	retlw	0
   858  0893  3400               	retlw	0
   859  0894  3400               	retlw	0
   860  0895  3400               	retlw	0
   861  0896  3483               	retlw	131
   862  0897  34C7               	retlw	199
   863  0898  34EF               	retlw	239
   864  0899  3400               	retlw	0
   865  089A  3400               	retlw	0
   866  089B  347F               	retlw	127
   867  089C  34BF               	retlw	191
   868  089D  34DF               	retlw	223
   869  089E  34E0               	retlw	224
   870  089F  34E0               	retlw	224
   871  08A0  34E0               	retlw	224
   872  08A1  34E0               	retlw	224
   873  08A2  34E0               	retlw	224
   874  08A3  34E0               	retlw	224
   875  08A4  34DF               	retlw	223
   876  08A5  34BF               	retlw	191
   877  08A6  347F               	retlw	127
   878  08A7  3400               	retlw	0
   879  08A8  3400               	retlw	0
   880  08A9  3400               	retlw	0
   881  08AA  3400               	retlw	0
   882  08AB  3400               	retlw	0
   883  08AC  3400               	retlw	0
   884  08AD  3400               	retlw	0
   885  08AE  3400               	retlw	0
   886  08AF  3400               	retlw	0
   887  08B0  3400               	retlw	0
   888  08B1  3400               	retlw	0
   889  08B2  34F0               	retlw	240
   890  08B3  34F8               	retlw	248
   891  08B4  34FC               	retlw	252
   892  08B5  3400               	retlw	0
   893  08B6  3400               	retlw	0
   894  08B7  3400               	retlw	0
   895  08B8  3400               	retlw	0
   896  08B9  3400               	retlw	0
   897  08BA  3400               	retlw	0
   898  08BB  3400               	retlw	0
   899  08BC  3400               	retlw	0
   900  08BD  3400               	retlw	0
   901  08BE  3400               	retlw	0
   902  08BF  3400               	retlw	0
   903  08C0  3483               	retlw	131
   904  08C1  34C7               	retlw	199
   905  08C2  34EF               	retlw	239
   906  08C3  3400               	retlw	0
   907  08C4  3400               	retlw	0
   908  08C5  3400               	retlw	0
   909  08C6  3400               	retlw	0
   910  08C7  3400               	retlw	0
   911  08C8  3400               	retlw	0
   912  08C9  3400               	retlw	0
   913  08CA  3400               	retlw	0
   914  08CB  3400               	retlw	0
   915  08CC  3400               	retlw	0
   916  08CD  3400               	retlw	0
   917  08CE  341F               	retlw	31
   918  08CF  343F               	retlw	63
   919  08D0  347F               	retlw	127
   920  08D1  3400               	retlw	0
   921  08D2  3400               	retlw	0
   922  08D3  3400               	retlw	0
   923  08D4  3402               	retlw	2
   924  08D5  3406               	retlw	6
   925  08D6  340E               	retlw	14
   926  08D7  340E               	retlw	14
   927  08D8  340E               	retlw	14
   928  08D9  340E               	retlw	14
   929  08DA  340E               	retlw	14
   930  08DB  340E               	retlw	14
   931  08DC  34F6               	retlw	246
   932  08DD  34FA               	retlw	250
   933  08DE  34FC               	retlw	252
   934  08DF  3400               	retlw	0
   935  08E0  3400               	retlw	0
   936  08E1  34E0               	retlw	224
   937  08E2  34D0               	retlw	208
   938  08E3  34B8               	retlw	184
   939  08E4  3438               	retlw	56
   940  08E5  3438               	retlw	56
   941  08E6  3438               	retlw	56
   942  08E7  3438               	retlw	56
   943  08E8  3438               	retlw	56
   944  08E9  3438               	retlw	56
   945  08EA  343B               	retlw	59
   946  08EB  3417               	retlw	23
   947  08EC  340F               	retlw	15
   948  08ED  3400               	retlw	0
   949  08EE  3400               	retlw	0
   950  08EF  347F               	retlw	127
   951  08F0  34BF               	retlw	191
   952  08F1  34DF               	retlw	223
   953  08F2  34E0               	retlw	224
   954  08F3  34E0               	retlw	224
   955  08F4  34E0               	retlw	224
   956  08F5  34E0               	retlw	224
   957  08F6  34E0               	retlw	224
   958  08F7  34E0               	retlw	224
   959  08F8  34C0               	retlw	192
   960  08F9  3480               	retlw	128
   961  08FA  3400               	retlw	0
   962  08FB  3400               	retlw	0
   963  08FC  3400               	retlw	0
   964  08FD  3400               	retlw	0
   965  08FE  3402               	retlw	2
   966  08FF  3406               	retlw	6
   967  0900  340E               	retlw	14
   968  0901  340E               	retlw	14
   969  0902  340E               	retlw	14
   970  0903  340E               	retlw	14
   971  0904  340E               	retlw	14
   972  0905  340E               	retlw	14
   973  0906  34F6               	retlw	246
   974  0907  34FA               	retlw	250
   975  0908  34FC               	retlw	252
   976  0909  3400               	retlw	0
   977  090A  3400               	retlw	0
   978  090B  3400               	retlw	0
   979  090C  3410               	retlw	16
   980  090D  3438               	retlw	56
   981  090E  3438               	retlw	56
   982  090F  3438               	retlw	56
   983  0910  3438               	retlw	56
   984  0911  3438               	retlw	56
   985  0912  3438               	retlw	56
   986  0913  3438               	retlw	56
   987  0914  34BB               	retlw	187
   988  0915  34D7               	retlw	215
   989  0916  34EF               	retlw	239
   990  0917  3400               	retlw	0
   991  0918  3400               	retlw	0
   992  0919  3400               	retlw	0
   993  091A  3480               	retlw	128
   994  091B  34C0               	retlw	192
   995  091C  34E0               	retlw	224
   996  091D  34E0               	retlw	224
   997  091E  34E0               	retlw	224
   998  091F  34E0               	retlw	224
   999  0920  34E0               	retlw	224
  1000  0921  34E0               	retlw	224
  1001  0922  34DF               	retlw	223
  1002  0923  34BF               	retlw	191
  1003  0924  347F               	retlw	127
  1004  0925  3400               	retlw	0
  1005  0926  3400               	retlw	0
  1006  0927  34FC               	retlw	252
  1007  0928  34F8               	retlw	248
  1008  0929  34F0               	retlw	240
  1009  092A  3400               	retlw	0
  1010  092B  3400               	retlw	0
  1011  092C  3400               	retlw	0
  1012  092D  3400               	retlw	0
  1013  092E  3400               	retlw	0
  1014  092F  3400               	retlw	0
  1015  0930  34F0               	retlw	240
  1016  0931  34F8               	retlw	248
  1017  0932  34FC               	retlw	252
  1018  0933  3400               	retlw	0
  1019  0934  3400               	retlw	0
  1020  0935  340F               	retlw	15
  1021  0936  3417               	retlw	23
  1022  0937  343B               	retlw	59
  1023  0938  3438               	retlw	56
  1024  0939  3438               	retlw	56
  1025  093A  3438               	retlw	56
  1026  093B  3438               	retlw	56
  1027  093C  3438               	retlw	56
  1028  093D  3438               	retlw	56
  1029  093E  34BB               	retlw	187
  1030  093F  34D7               	retlw	215
  1031  0940  34EF               	retlw	239
  1032  0941  3400               	retlw	0
  1033  0942  3400               	retlw	0
  1034  0943  3400               	retlw	0
  1035  0944  3400               	retlw	0
  1036  0945  3400               	retlw	0
  1037  0946  3400               	retlw	0
  1038  0947  3400               	retlw	0
  1039  0948  3400               	retlw	0
  1040  0949  3400               	retlw	0
  1041  094A  3400               	retlw	0
  1042  094B  3400               	retlw	0
  1043  094C  341F               	retlw	31
  1044  094D  343F               	retlw	63
  1045  094E  347F               	retlw	127
  1046  094F  3400               	retlw	0
  1047  0950  3400               	retlw	0
  1048  0951  34FC               	retlw	252
  1049  0952  34FA               	retlw	250
  1050  0953  34F6               	retlw	246
  1051  0954  340E               	retlw	14
  1052  0955  340E               	retlw	14
  1053  0956  340E               	retlw	14
  1054  0957  340E               	retlw	14
  1055  0958  340E               	retlw	14
  1056  0959  340E               	retlw	14
  1057  095A  3406               	retlw	6
  1058  095B  3402               	retlw	2
  1059  095C  3400               	retlw	0
  1060  095D  3400               	retlw	0
  1061  095E  3400               	retlw	0
  1062  095F  340F               	retlw	15
  1063  0960  3417               	retlw	23
  1064  0961  343B               	retlw	59
  1065  0962  3438               	retlw	56
  1066  0963  3438               	retlw	56
  1067  0964  3438               	retlw	56
  1068  0965  3438               	retlw	56
  1069  0966  3438               	retlw	56
  1070  0967  3438               	retlw	56
  1071  0968  34B8               	retlw	184
  1072  0969  34D0               	retlw	208
  1073  096A  34E0               	retlw	224
  1074  096B  3400               	retlw	0
  1075  096C  3400               	retlw	0
  1076  096D  3400               	retlw	0
  1077  096E  3480               	retlw	128
  1078  096F  34C0               	retlw	192
  1079  0970  34E0               	retlw	224
  1080  0971  34E0               	retlw	224
  1081  0972  34E0               	retlw	224
  1082  0973  34E0               	retlw	224
  1083  0974  34E0               	retlw	224
  1084  0975  34E0               	retlw	224
  1085  0976  34DF               	retlw	223
  1086  0977  34BF               	retlw	191
  1087  0978  347F               	retlw	127
  1088  0979  3400               	retlw	0
  1089  097A  3400               	retlw	0
  1090  097B  34FC               	retlw	252
  1091  097C  34FA               	retlw	250
  1092  097D  34F6               	retlw	246
  1093  097E  340E               	retlw	14
  1094  097F  340E               	retlw	14
  1095  0980  340E               	retlw	14
  1096  0981  340E               	retlw	14
  1097  0982  340E               	retlw	14
  1098  0983  340E               	retlw	14
  1099  0984  3406               	retlw	6
  1100  0985  3402               	retlw	2
  1101  0986  3400               	retlw	0
  1102  0987  3400               	retlw	0
  1103  0988  3400               	retlw	0
  1104  0989  34EF               	retlw	239
  1105  098A  34D7               	retlw	215
  1106  098B  34BB               	retlw	187
  1107  098C  3438               	retlw	56
  1108  098D  3438               	retlw	56
  1109  098E  3438               	retlw	56
  1110  098F  3438               	retlw	56
  1111  0990  3438               	retlw	56
  1112  0991  3438               	retlw	56
  1113  0992  34B8               	retlw	184
  1114  0993  34D0               	retlw	208
  1115  0994  34E0               	retlw	224
  1116  0995  3400               	retlw	0
  1117  0996  3400               	retlw	0
  1118  0997  347F               	retlw	127
  1119  0998  34BF               	retlw	191
  1120  0999  34DF               	retlw	223
  1121  099A  34E0               	retlw	224
  1122  099B  34E0               	retlw	224
  1123  099C  34E0               	retlw	224
  1124  099D  34E0               	retlw	224
  1125  099E  34E0               	retlw	224
  1126  099F  34E0               	retlw	224
  1127  09A0  34DF               	retlw	223
  1128  09A1  34BF               	retlw	191
  1129  09A2  347F               	retlw	127
  1130  09A3  3400               	retlw	0
  1131  09A4  3400               	retlw	0
  1132  09A5  3400               	retlw	0
  1133  09A6  3402               	retlw	2
  1134  09A7  3406               	retlw	6
  1135  09A8  340E               	retlw	14
  1136  09A9  340E               	retlw	14
  1137  09AA  340E               	retlw	14
  1138  09AB  340E               	retlw	14
  1139  09AC  340E               	retlw	14
  1140  09AD  340E               	retlw	14
  1141  09AE  34F6               	retlw	246
  1142  09AF  34FA               	retlw	250
  1143  09B0  34FC               	retlw	252
  1144  09B1  3400               	retlw	0
  1145  09B2  3400               	retlw	0
  1146  09B3  3400               	retlw	0
  1147  09B4  3400               	retlw	0
  1148  09B5  3400               	retlw	0
  1149  09B6  3400               	retlw	0
  1150  09B7  3400               	retlw	0
  1151  09B8  3400               	retlw	0
  1152  09B9  3400               	retlw	0
  1153  09BA  3400               	retlw	0
  1154  09BB  3400               	retlw	0
  1155  09BC  3483               	retlw	131
  1156  09BD  34C7               	retlw	199
  1157  09BE  34EF               	retlw	239
  1158  09BF  3400               	retlw	0
  1159  09C0  3400               	retlw	0
  1160  09C1  3400               	retlw	0
  1161  09C2  3400               	retlw	0
  1162  09C3  3400               	retlw	0
  1163  09C4  3400               	retlw	0
  1164  09C5  3400               	retlw	0
  1165  09C6  3400               	retlw	0
  1166  09C7  3400               	retlw	0
  1167  09C8  3400               	retlw	0
  1168  09C9  3400               	retlw	0
  1169  09CA  341F               	retlw	31
  1170  09CB  343F               	retlw	63
  1171  09CC  347F               	retlw	127
  1172  09CD  3400               	retlw	0
  1173  09CE  3400               	retlw	0
  1174  09CF  34FC               	retlw	252
  1175  09D0  34FA               	retlw	250
  1176  09D1  34F6               	retlw	246
  1177  09D2  340E               	retlw	14
  1178  09D3  340E               	retlw	14
  1179  09D4  340E               	retlw	14
  1180  09D5  340E               	retlw	14
  1181  09D6  340E               	retlw	14
  1182  09D7  340E               	retlw	14
  1183  09D8  34F6               	retlw	246
  1184  09D9  34FA               	retlw	250
  1185  09DA  34FC               	retlw	252
  1186  09DB  3400               	retlw	0
  1187  09DC  3400               	retlw	0
  1188  09DD  34EF               	retlw	239
  1189  09DE  34D7               	retlw	215
  1190  09DF  34BB               	retlw	187
  1191  09E0  3438               	retlw	56
  1192  09E1  3438               	retlw	56
  1193  09E2  3438               	retlw	56
  1194  09E3  3438               	retlw	56
  1195  09E4  3438               	retlw	56
  1196  09E5  3438               	retlw	56
  1197  09E6  34BB               	retlw	187
  1198  09E7  34D7               	retlw	215
  1199  09E8  34EF               	retlw	239
  1200  09E9  3400               	retlw	0
  1201  09EA  3400               	retlw	0
  1202  09EB  347F               	retlw	127
  1203  09EC  34BF               	retlw	191
  1204  09ED  34DF               	retlw	223
  1205  09EE  34E0               	retlw	224
  1206  09EF  34E0               	retlw	224
  1207  09F0  34E0               	retlw	224
  1208  09F1  34E0               	retlw	224
  1209  09F2  34E0               	retlw	224
  1210  09F3  34E0               	retlw	224
  1211  09F4  34DF               	retlw	223
  1212  09F5  34BF               	retlw	191
  1213  09F6  347F               	retlw	127
  1214  09F7  3400               	retlw	0
  1215  09F8  3400               	retlw	0
  1216  09F9  34FC               	retlw	252
  1217  09FA  34FA               	retlw	250
  1218  09FB  34F6               	retlw	246
  1219  09FC  340E               	retlw	14
  1220  09FD  340E               	retlw	14
  1221  09FE  340E               	retlw	14
  1222  09FF  340E               	retlw	14
  1223  0A00  340E               	retlw	14
  1224  0A01  340E               	retlw	14
  1225  0A02  34F6               	retlw	246
  1226  0A03  34FA               	retlw	250
  1227  0A04  34FC               	retlw	252
  1228  0A05  3400               	retlw	0
  1229  0A06  3400               	retlw	0
  1230  0A07  340F               	retlw	15
  1231  0A08  3417               	retlw	23
  1232  0A09  343B               	retlw	59
  1233  0A0A  3438               	retlw	56
  1234  0A0B  3438               	retlw	56
  1235  0A0C  3438               	retlw	56
  1236  0A0D  3438               	retlw	56
  1237  0A0E  3438               	retlw	56
  1238  0A0F  3438               	retlw	56
  1239  0A10  34BB               	retlw	187
  1240  0A11  34D7               	retlw	215
  1241  0A12  34EF               	retlw	239
  1242  0A13  3400               	retlw	0
  1243  0A14  3400               	retlw	0
  1244  0A15  3400               	retlw	0
  1245  0A16  3480               	retlw	128
  1246  0A17  34C0               	retlw	192
  1247  0A18  34E0               	retlw	224
  1248  0A19  34E0               	retlw	224
  1249  0A1A  34E0               	retlw	224
  1250  0A1B  34E0               	retlw	224
  1251  0A1C  34E0               	retlw	224
  1252  0A1D  34E0               	retlw	224
  1253  0A1E  34DF               	retlw	223
  1254  0A1F  34BF               	retlw	191
  1255  0A20  347F               	retlw	127
  1256  0A21  3400               	retlw	0
  1257  0A22                     __end_of_rakamtablo2:	
  1258                           
  1259                           	psect	stringtext2
  1260  0A22                     __pstringtext2:	
  1261  0A22                     _harftablo:	
  1262  0A22  3400               	retlw	0
  1263  0A23  3400               	retlw	0
  1264  0A24  3400               	retlw	0
  1265  0A25  3400               	retlw	0
  1266  0A26  3400               	retlw	0
  1267  0A27  3400               	retlw	0
  1268  0A28  3400               	retlw	0
  1269  0A29  345F               	retlw	95
  1270  0A2A  3400               	retlw	0
  1271  0A2B  3400               	retlw	0
  1272  0A2C  3400               	retlw	0
  1273  0A2D  3403               	retlw	3
  1274  0A2E  3400               	retlw	0
  1275  0A2F  3403               	retlw	3
  1276  0A30  3400               	retlw	0
  1277  0A31  3414               	retlw	20
  1278  0A32  343E               	retlw	62
  1279  0A33  3414               	retlw	20
  1280  0A34  343E               	retlw	62
  1281  0A35  3414               	retlw	20
  1282  0A36  3424               	retlw	36
  1283  0A37  342A               	retlw	42
  1284  0A38  347F               	retlw	127
  1285  0A39  342A               	retlw	42
  1286  0A3A  3412               	retlw	18
  1287  0A3B  3443               	retlw	67
  1288  0A3C  3433               	retlw	51
  1289  0A3D  3408               	retlw	8
  1290  0A3E  3466               	retlw	102
  1291  0A3F  3461               	retlw	97
  1292  0A40  3436               	retlw	54
  1293  0A41  3449               	retlw	73
  1294  0A42  3455               	retlw	85
  1295  0A43  3422               	retlw	34
  1296  0A44  3450               	retlw	80
  1297  0A45  3400               	retlw	0
  1298  0A46  3405               	retlw	5
  1299  0A47  3403               	retlw	3
  1300  0A48  3400               	retlw	0
  1301  0A49  3400               	retlw	0
  1302  0A4A  3400               	retlw	0
  1303  0A4B  341C               	retlw	28
  1304  0A4C  3422               	retlw	34
  1305  0A4D  3441               	retlw	65
  1306  0A4E  3400               	retlw	0
  1307  0A4F  3400               	retlw	0
  1308  0A50  3441               	retlw	65
  1309  0A51  3422               	retlw	34
  1310  0A52  341C               	retlw	28
  1311  0A53  3400               	retlw	0
  1312  0A54  3414               	retlw	20
  1313  0A55  3408               	retlw	8
  1314  0A56  343E               	retlw	62
  1315  0A57  3408               	retlw	8
  1316  0A58  3414               	retlw	20
  1317  0A59  3408               	retlw	8
  1318  0A5A  3408               	retlw	8
  1319  0A5B  343E               	retlw	62
  1320  0A5C  3408               	retlw	8
  1321  0A5D  3408               	retlw	8
  1322  0A5E  3400               	retlw	0
  1323  0A5F  3450               	retlw	80
  1324  0A60  3430               	retlw	48
  1325  0A61  3400               	retlw	0
  1326  0A62  3400               	retlw	0
  1327  0A63  3408               	retlw	8
  1328  0A64  3408               	retlw	8
  1329  0A65  3408               	retlw	8
  1330  0A66  3408               	retlw	8
  1331  0A67  3408               	retlw	8
  1332  0A68  3400               	retlw	0
  1333  0A69  3460               	retlw	96
  1334  0A6A  3460               	retlw	96
  1335  0A6B  3400               	retlw	0
  1336  0A6C  3400               	retlw	0
  1337  0A6D  3420               	retlw	32
  1338  0A6E  3410               	retlw	16
  1339  0A6F  3408               	retlw	8
  1340  0A70  3404               	retlw	4
  1341  0A71  3402               	retlw	2
  1342  0A72  343E               	retlw	62
  1343  0A73  3451               	retlw	81
  1344  0A74  3449               	retlw	73
  1345  0A75  3445               	retlw	69
  1346  0A76  343E               	retlw	62
  1347  0A77  3404               	retlw	4
  1348  0A78  3402               	retlw	2
  1349  0A79  347F               	retlw	127
  1350  0A7A  3400               	retlw	0
  1351  0A7B  3400               	retlw	0
  1352  0A7C  3442               	retlw	66
  1353  0A7D  3461               	retlw	97
  1354  0A7E  3451               	retlw	81
  1355  0A7F  3449               	retlw	73
  1356  0A80  3446               	retlw	70
  1357  0A81  3422               	retlw	34
  1358  0A82  3441               	retlw	65
  1359  0A83  3449               	retlw	73
  1360  0A84  3449               	retlw	73
  1361  0A85  3436               	retlw	54
  1362  0A86  3418               	retlw	24
  1363  0A87  3414               	retlw	20
  1364  0A88  3412               	retlw	18
  1365  0A89  347F               	retlw	127
  1366  0A8A  3410               	retlw	16
  1367  0A8B  3427               	retlw	39
  1368  0A8C  3445               	retlw	69
  1369  0A8D  3445               	retlw	69
  1370  0A8E  3445               	retlw	69
  1371  0A8F  3439               	retlw	57
  1372  0A90  343E               	retlw	62
  1373  0A91  3449               	retlw	73
  1374  0A92  3449               	retlw	73
  1375  0A93  3449               	retlw	73
  1376  0A94  3432               	retlw	50
  1377  0A95  3401               	retlw	1
  1378  0A96  3401               	retlw	1
  1379  0A97  3471               	retlw	113
  1380  0A98  3409               	retlw	9
  1381  0A99  3407               	retlw	7
  1382  0A9A  3436               	retlw	54
  1383  0A9B  3449               	retlw	73
  1384  0A9C  3449               	retlw	73
  1385  0A9D  3449               	retlw	73
  1386  0A9E  3436               	retlw	54
  1387  0A9F  3426               	retlw	38
  1388  0AA0  3449               	retlw	73
  1389  0AA1  3449               	retlw	73
  1390  0AA2  3449               	retlw	73
  1391  0AA3  343E               	retlw	62
  1392  0AA4  3400               	retlw	0
  1393  0AA5  3436               	retlw	54
  1394  0AA6  3436               	retlw	54
  1395  0AA7  3400               	retlw	0
  1396  0AA8  3400               	retlw	0
  1397  0AA9  3400               	retlw	0
  1398  0AAA  3456               	retlw	86
  1399  0AAB  3436               	retlw	54
  1400  0AAC  3400               	retlw	0
  1401  0AAD  3400               	retlw	0
  1402  0AAE  3408               	retlw	8
  1403  0AAF  3414               	retlw	20
  1404  0AB0  3422               	retlw	34
  1405  0AB1  3441               	retlw	65
  1406  0AB2  3400               	retlw	0
  1407  0AB3  3414               	retlw	20
  1408  0AB4  3414               	retlw	20
  1409  0AB5  3414               	retlw	20
  1410  0AB6  3414               	retlw	20
  1411  0AB7  3414               	retlw	20
  1412  0AB8  3400               	retlw	0
  1413  0AB9  3441               	retlw	65
  1414  0ABA  3422               	retlw	34
  1415  0ABB  3414               	retlw	20
  1416  0ABC  3408               	retlw	8
  1417  0ABD  3402               	retlw	2
  1418  0ABE  3401               	retlw	1
  1419  0ABF  3451               	retlw	81
  1420  0AC0  3409               	retlw	9
  1421  0AC1  3406               	retlw	6
  1422  0AC2  343E               	retlw	62
  1423  0AC3  3441               	retlw	65
  1424  0AC4  3459               	retlw	89
  1425  0AC5  3455               	retlw	85
  1426  0AC6  345E               	retlw	94
  1427  0AC7  347E               	retlw	126
  1428  0AC8  3409               	retlw	9
  1429  0AC9  3409               	retlw	9
  1430  0ACA  3409               	retlw	9
  1431  0ACB  347E               	retlw	126
  1432  0ACC  347F               	retlw	127
  1433  0ACD  3449               	retlw	73
  1434  0ACE  3449               	retlw	73
  1435  0ACF  3449               	retlw	73
  1436  0AD0  3436               	retlw	54
  1437  0AD1  343E               	retlw	62
  1438  0AD2  3441               	retlw	65
  1439  0AD3  3441               	retlw	65
  1440  0AD4  3441               	retlw	65
  1441  0AD5  3422               	retlw	34
  1442  0AD6  347F               	retlw	127
  1443  0AD7  3441               	retlw	65
  1444  0AD8  3441               	retlw	65
  1445  0AD9  3441               	retlw	65
  1446  0ADA  343E               	retlw	62
  1447  0ADB  347F               	retlw	127
  1448  0ADC  3449               	retlw	73
  1449  0ADD  3449               	retlw	73
  1450  0ADE  3449               	retlw	73
  1451  0ADF  3441               	retlw	65
  1452  0AE0  347F               	retlw	127
  1453  0AE1  3409               	retlw	9
  1454  0AE2  3409               	retlw	9
  1455  0AE3  3409               	retlw	9
  1456  0AE4  3401               	retlw	1
  1457  0AE5  343E               	retlw	62
  1458  0AE6  3441               	retlw	65
  1459  0AE7  3441               	retlw	65
  1460  0AE8  3449               	retlw	73
  1461  0AE9  343A               	retlw	58
  1462  0AEA  347F               	retlw	127
  1463  0AEB  3408               	retlw	8
  1464  0AEC  3408               	retlw	8
  1465  0AED  3408               	retlw	8
  1466  0AEE  347F               	retlw	127
  1467  0AEF  3400               	retlw	0
  1468  0AF0  3441               	retlw	65
  1469  0AF1  347F               	retlw	127
  1470  0AF2  3441               	retlw	65
  1471  0AF3  3400               	retlw	0
  1472  0AF4  3430               	retlw	48
  1473  0AF5  3440               	retlw	64
  1474  0AF6  3440               	retlw	64
  1475  0AF7  3440               	retlw	64
  1476  0AF8  343F               	retlw	63
  1477  0AF9  347F               	retlw	127
  1478  0AFA  3408               	retlw	8
  1479  0AFB  3414               	retlw	20
  1480  0AFC  3422               	retlw	34
  1481  0AFD  3441               	retlw	65
  1482  0AFE  347F               	retlw	127
  1483  0AFF  3440               	retlw	64
  1484  0B00  3440               	retlw	64
  1485  0B01  3440               	retlw	64
  1486  0B02  3440               	retlw	64
  1487  0B03  347F               	retlw	127
  1488  0B04  3402               	retlw	2
  1489  0B05  340C               	retlw	12
  1490  0B06  3402               	retlw	2
  1491  0B07  347F               	retlw	127
  1492  0B08  347F               	retlw	127
  1493  0B09  3402               	retlw	2
  1494  0B0A  3404               	retlw	4
  1495  0B0B  3408               	retlw	8
  1496  0B0C  347F               	retlw	127
  1497  0B0D  343E               	retlw	62
  1498  0B0E  3441               	retlw	65
  1499  0B0F  3441               	retlw	65
  1500  0B10  3441               	retlw	65
  1501  0B11  343E               	retlw	62
  1502  0B12  347F               	retlw	127
  1503  0B13  3409               	retlw	9
  1504  0B14  3409               	retlw	9
  1505  0B15  3409               	retlw	9
  1506  0B16  3406               	retlw	6
  1507  0B17  341E               	retlw	30
  1508  0B18  3421               	retlw	33
  1509  0B19  3421               	retlw	33
  1510  0B1A  3421               	retlw	33
  1511  0B1B  345E               	retlw	94
  1512  0B1C  347F               	retlw	127
  1513  0B1D  3409               	retlw	9
  1514  0B1E  3409               	retlw	9
  1515  0B1F  3409               	retlw	9
  1516  0B20  3476               	retlw	118
  1517  0B21  3426               	retlw	38
  1518  0B22  3449               	retlw	73
  1519  0B23  3449               	retlw	73
  1520  0B24  3449               	retlw	73
  1521  0B25  3432               	retlw	50
  1522  0B26  3401               	retlw	1
  1523  0B27  3401               	retlw	1
  1524  0B28  347F               	retlw	127
  1525  0B29  3401               	retlw	1
  1526  0B2A  3401               	retlw	1
  1527  0B2B  343F               	retlw	63
  1528  0B2C  3440               	retlw	64
  1529  0B2D  3440               	retlw	64
  1530  0B2E  3440               	retlw	64
  1531  0B2F  343F               	retlw	63
  1532  0B30  341F               	retlw	31
  1533  0B31  3420               	retlw	32
  1534  0B32  3440               	retlw	64
  1535  0B33  3420               	retlw	32
  1536  0B34  341F               	retlw	31
  1537  0B35  347F               	retlw	127
  1538  0B36  3420               	retlw	32
  1539  0B37  3410               	retlw	16
  1540  0B38  3420               	retlw	32
  1541  0B39  347F               	retlw	127
  1542  0B3A  3441               	retlw	65
  1543  0B3B  3422               	retlw	34
  1544  0B3C  341C               	retlw	28
  1545  0B3D  3422               	retlw	34
  1546  0B3E  3441               	retlw	65
  1547  0B3F  3407               	retlw	7
  1548  0B40  3408               	retlw	8
  1549  0B41  3470               	retlw	112
  1550  0B42  3408               	retlw	8
  1551  0B43  3407               	retlw	7
  1552  0B44  3461               	retlw	97
  1553  0B45  3451               	retlw	81
  1554  0B46  3449               	retlw	73
  1555  0B47  3445               	retlw	69
  1556  0B48  3443               	retlw	67
  1557  0B49  3400               	retlw	0
  1558  0B4A  347F               	retlw	127
  1559  0B4B  3441               	retlw	65
  1560  0B4C  3400               	retlw	0
  1561  0B4D  3400               	retlw	0
  1562  0B4E  3402               	retlw	2
  1563  0B4F  3404               	retlw	4
  1564  0B50  3408               	retlw	8
  1565  0B51  3410               	retlw	16
  1566  0B52  3420               	retlw	32
  1567  0B53  3400               	retlw	0
  1568  0B54  3400               	retlw	0
  1569  0B55  3441               	retlw	65
  1570  0B56  347F               	retlw	127
  1571  0B57  3400               	retlw	0
  1572  0B58  3404               	retlw	4
  1573  0B59  3402               	retlw	2
  1574  0B5A  3401               	retlw	1
  1575  0B5B  3402               	retlw	2
  1576  0B5C  3404               	retlw	4
  1577  0B5D  3440               	retlw	64
  1578  0B5E  3440               	retlw	64
  1579  0B5F  3440               	retlw	64
  1580  0B60  3440               	retlw	64
  1581  0B61  3440               	retlw	64
  1582  0B62  3400               	retlw	0
  1583  0B63  3401               	retlw	1
  1584  0B64  3402               	retlw	2
  1585  0B65  3404               	retlw	4
  1586  0B66  3400               	retlw	0
  1587  0B67  3420               	retlw	32
  1588  0B68  3454               	retlw	84
  1589  0B69  3454               	retlw	84
  1590  0B6A  3454               	retlw	84
  1591  0B6B  3478               	retlw	120
  1592  0B6C  347F               	retlw	127
  1593  0B6D  3444               	retlw	68
  1594  0B6E  3444               	retlw	68
  1595  0B6F  3444               	retlw	68
  1596  0B70  3438               	retlw	56
  1597  0B71  3438               	retlw	56
  1598  0B72  3444               	retlw	68
  1599  0B73  3444               	retlw	68
  1600  0B74  3444               	retlw	68
  1601  0B75  3444               	retlw	68
  1602  0B76  3438               	retlw	56
  1603  0B77  3444               	retlw	68
  1604  0B78  3444               	retlw	68
  1605  0B79  3444               	retlw	68
  1606  0B7A  347F               	retlw	127
  1607  0B7B  3438               	retlw	56
  1608  0B7C  3454               	retlw	84
  1609  0B7D  3454               	retlw	84
  1610  0B7E  3454               	retlw	84
  1611  0B7F  3418               	retlw	24
  1612  0B80  3404               	retlw	4
  1613  0B81  3404               	retlw	4
  1614  0B82  347E               	retlw	126
  1615  0B83  3405               	retlw	5
  1616  0B84  3405               	retlw	5
  1617  0B85  3408               	retlw	8
  1618  0B86  3454               	retlw	84
  1619  0B87  3454               	retlw	84
  1620  0B88  3454               	retlw	84
  1621  0B89  343C               	retlw	60
  1622  0B8A  347F               	retlw	127
  1623  0B8B  3408               	retlw	8
  1624  0B8C  3404               	retlw	4
  1625  0B8D  3404               	retlw	4
  1626  0B8E  3478               	retlw	120
  1627  0B8F  3400               	retlw	0
  1628  0B90  3444               	retlw	68
  1629  0B91  347D               	retlw	125
  1630  0B92  3440               	retlw	64
  1631  0B93  3400               	retlw	0
  1632  0B94  3420               	retlw	32
  1633  0B95  3440               	retlw	64
  1634  0B96  3444               	retlw	68
  1635  0B97  343D               	retlw	61
  1636  0B98  3400               	retlw	0
  1637  0B99  347F               	retlw	127
  1638  0B9A  3410               	retlw	16
  1639  0B9B  3428               	retlw	40
  1640  0B9C  3444               	retlw	68
  1641  0B9D  3400               	retlw	0
  1642  0B9E  3400               	retlw	0
  1643  0B9F  3441               	retlw	65
  1644  0BA0  347F               	retlw	127
  1645  0BA1  3440               	retlw	64
  1646  0BA2  3400               	retlw	0
  1647  0BA3  347C               	retlw	124
  1648  0BA4  3404               	retlw	4
  1649  0BA5  3478               	retlw	120
  1650  0BA6  3404               	retlw	4
  1651  0BA7  3478               	retlw	120
  1652  0BA8  347C               	retlw	124
  1653  0BA9  3408               	retlw	8
  1654  0BAA  3404               	retlw	4
  1655  0BAB  3404               	retlw	4
  1656  0BAC  3478               	retlw	120
  1657  0BAD  3438               	retlw	56
  1658  0BAE  3444               	retlw	68
  1659  0BAF  3444               	retlw	68
  1660  0BB0  3444               	retlw	68
  1661  0BB1  3438               	retlw	56
  1662  0BB2  347C               	retlw	124
  1663  0BB3  3414               	retlw	20
  1664  0BB4  3414               	retlw	20
  1665  0BB5  3414               	retlw	20
  1666  0BB6  3408               	retlw	8
  1667  0BB7  3408               	retlw	8
  1668  0BB8  3414               	retlw	20
  1669  0BB9  3414               	retlw	20
  1670  0BBA  3414               	retlw	20
  1671  0BBB  347C               	retlw	124
  1672  0BBC  3400               	retlw	0
  1673  0BBD  347C               	retlw	124
  1674  0BBE  3408               	retlw	8
  1675  0BBF  3404               	retlw	4
  1676  0BC0  3404               	retlw	4
  1677  0BC1  3448               	retlw	72
  1678  0BC2  3454               	retlw	84
  1679  0BC3  3454               	retlw	84
  1680  0BC4  3454               	retlw	84
  1681  0BC5  3420               	retlw	32
  1682  0BC6  3404               	retlw	4
  1683  0BC7  3404               	retlw	4
  1684  0BC8  343F               	retlw	63
  1685  0BC9  3444               	retlw	68
  1686  0BCA  3444               	retlw	68
  1687  0BCB  343C               	retlw	60
  1688  0BCC  3440               	retlw	64
  1689  0BCD  3440               	retlw	64
  1690  0BCE  3420               	retlw	32
  1691  0BCF  347C               	retlw	124
  1692  0BD0  341C               	retlw	28
  1693  0BD1  3420               	retlw	32
  1694  0BD2  3440               	retlw	64
  1695  0BD3  3420               	retlw	32
  1696  0BD4  341C               	retlw	28
  1697  0BD5  343C               	retlw	60
  1698  0BD6  3440               	retlw	64
  1699  0BD7  3430               	retlw	48
  1700  0BD8  3440               	retlw	64
  1701  0BD9  343C               	retlw	60
  1702  0BDA  3444               	retlw	68
  1703  0BDB  3428               	retlw	40
  1704  0BDC  3410               	retlw	16
  1705  0BDD  3428               	retlw	40
  1706  0BDE  3444               	retlw	68
  1707  0BDF  340C               	retlw	12
  1708  0BE0  3450               	retlw	80
  1709  0BE1  3450               	retlw	80
  1710  0BE2  3450               	retlw	80
  1711  0BE3  343C               	retlw	60
  1712  0BE4  3444               	retlw	68
  1713  0BE5  3464               	retlw	100
  1714  0BE6  3454               	retlw	84
  1715  0BE7  344C               	retlw	76
  1716  0BE8  3444               	retlw	68
  1717  0BE9  3400               	retlw	0
  1718  0BEA  3408               	retlw	8
  1719  0BEB  3436               	retlw	54
  1720  0BEC  3441               	retlw	65
  1721  0BED  3441               	retlw	65
  1722  0BEE  3400               	retlw	0
  1723  0BEF  3400               	retlw	0
  1724  0BF0  347F               	retlw	127
  1725  0BF1  3400               	retlw	0
  1726  0BF2  3400               	retlw	0
  1727  0BF3  3441               	retlw	65
  1728  0BF4  3441               	retlw	65
  1729  0BF5  3436               	retlw	54
  1730  0BF6  3408               	retlw	8
  1731  0BF7  3400               	retlw	0
  1732  0BF8  3402               	retlw	2
  1733  0BF9  3401               	retlw	1
  1734  0BFA  3402               	retlw	2
  1735  0BFB  3404               	retlw	4
  1736  0BFC  3402               	retlw	2
  1737  0BFD  341E               	retlw	30
  1738  0BFE  3421               	retlw	33
  1739  0BFF  3461               	retlw	97
  1740  0C00  3421               	retlw	33
  1741  0C01  3412               	retlw	18
  1742  0C02  343D               	retlw	61
  1743  0C03  3442               	retlw	66
  1744  0C04  3452               	retlw	82
  1745  0C05  3452               	retlw	82
  1746  0C06  3475               	retlw	117
  1747  0C07  343C               	retlw	60
  1748  0C08  3443               	retlw	67
  1749  0C09  3442               	retlw	66
  1750  0C0A  3443               	retlw	67
  1751  0C0B  343C               	retlw	60
  1752  0C0C  343C               	retlw	60
  1753  0C0D  3441               	retlw	65
  1754  0C0E  3440               	retlw	64
  1755  0C0F  3441               	retlw	65
  1756  0C10  343C               	retlw	60
  1757  0C11  3400               	retlw	0
  1758  0C12  3442               	retlw	66
  1759  0C13  347F               	retlw	127
  1760  0C14  3442               	retlw	66
  1761  0C15  3400               	retlw	0
  1762  0C16  3446               	retlw	70
  1763  0C17  3449               	retlw	73
  1764  0C18  3469               	retlw	105
  1765  0C19  3449               	retlw	73
  1766  0C1A  3431               	retlw	49
  1767  0C1B  341C               	retlw	28
  1768  0C1C  3422               	retlw	34
  1769  0C1D  3462               	retlw	98
  1770  0C1E  3422               	retlw	34
  1771  0C1F  3410               	retlw	16
  1772  0C20  340D               	retlw	13
  1773  0C21  3452               	retlw	82
  1774  0C22  3452               	retlw	82
  1775  0C23  3452               	retlw	82
  1776  0C24  343D               	retlw	61
  1777  0C25  3438               	retlw	56
  1778  0C26  3446               	retlw	70
  1779  0C27  3444               	retlw	68
  1780  0C28  3446               	retlw	70
  1781  0C29  3438               	retlw	56
  1782  0C2A  343C               	retlw	60
  1783  0C2B  3441               	retlw	65
  1784  0C2C  3440               	retlw	64
  1785  0C2D  3421               	retlw	33
  1786  0C2E  347C               	retlw	124
  1787  0C2F  3400               	retlw	0
  1788  0C30  3444               	retlw	68
  1789  0C31  347C               	retlw	124
  1790  0C32  3440               	retlw	64
  1791  0C33  3400               	retlw	0
  1792  0C34  3424               	retlw	36
  1793  0C35  342A               	retlw	42
  1794  0C36  346A               	retlw	106
  1795  0C37  342A               	retlw	42
  1796  0C38  3410               	retlw	16
  1797  0C39                     __end_of_harftablo:	
  1798                           
  1799                           	psect	stringtext3
  1800  0C39                     __pstringtext3:	
  1801  0C39                     _rakamtablo:	
  1802  0C39  3400               	retlw	0
  1803  0C3A  3400               	retlw	0
  1804  0C3B  3400               	retlw	0
  1805  0C3C  3480               	retlw	128
  1806  0C3D  3480               	retlw	128
  1807  0C3E  3480               	retlw	128
  1808  0C3F  3480               	retlw	128
  1809  0C40  3480               	retlw	128
  1810  0C41  3480               	retlw	128
  1811  0C42  3400               	retlw	0
  1812  0C43  3400               	retlw	0
  1813  0C44  3400               	retlw	0
  1814  0C45  3400               	retlw	0
  1815  0C46  3400               	retlw	0
  1816  0C47  3401               	retlw	1
  1817  0C48  3403               	retlw	3
  1818  0C49  3403               	retlw	3
  1819  0C4A  3403               	retlw	3
  1820  0C4B  3403               	retlw	3
  1821  0C4C  3403               	retlw	3
  1822  0C4D  3403               	retlw	3
  1823  0C4E  3401               	retlw	1
  1824  0C4F  3400               	retlw	0
  1825  0C50  3400               	retlw	0
  1826  0C51  3400               	retlw	0
  1827  0C52  3400               	retlw	0
  1828  0C53  3400               	retlw	0
  1829  0C54  3400               	retlw	0
  1830  0C55  3400               	retlw	0
  1831  0C56  3400               	retlw	0
  1832  0C57  3400               	retlw	0
  1833  0C58  3400               	retlw	0
  1834  0C59  3400               	retlw	0
  1835  0C5A  3400               	retlw	0
  1836  0C5B  3400               	retlw	0
  1837  0C5C  3400               	retlw	0
  1838  0C5D  3400               	retlw	0
  1839  0C5E  3400               	retlw	0
  1840  0C5F  3400               	retlw	0
  1841  0C60  3400               	retlw	0
  1842  0C61  3400               	retlw	0
  1843  0C62  34C0               	retlw	192
  1844  0C63  34C0               	retlw	192
  1845  0C64  3400               	retlw	0
  1846  0C65  3400               	retlw	0
  1847  0C66  3400               	retlw	0
  1848  0C67  3400               	retlw	0
  1849  0C68  3400               	retlw	0
  1850  0C69  3400               	retlw	0
  1851  0C6A  3400               	retlw	0
  1852  0C6B  3402               	retlw	2
  1853  0C6C  3486               	retlw	134
  1854  0C6D  3486               	retlw	134
  1855  0C6E  3486               	retlw	134
  1856  0C6F  3486               	retlw	134
  1857  0C70  3486               	retlw	134
  1858  0C71  3486               	retlw	134
  1859  0C72  3402               	retlw	2
  1860  0C73  3400               	retlw	0
  1861  0C74  3400               	retlw	0
  1862  0C75  3400               	retlw	0
  1863  0C76  3400               	retlw	0
  1864  0C77  3481               	retlw	129
  1865  0C78  34C3               	retlw	195
  1866  0C79  34C3               	retlw	195
  1867  0C7A  34C3               	retlw	195
  1868  0C7B  34C3               	retlw	195
  1869  0C7C  34C3               	retlw	195
  1870  0C7D  34C3               	retlw	195
  1871  0C7E  3481               	retlw	129
  1872  0C7F  3400               	retlw	0
  1873  0C80  3400               	retlw	0
  1874  0C81  3400               	retlw	0
  1875  0C82  34FC               	retlw	252
  1876  0C83  347A               	retlw	122
  1877  0C84  3406               	retlw	6
  1878  0C85  3406               	retlw	6
  1879  0C86  3406               	retlw	6
  1880  0C87  3406               	retlw	6
  1881  0C88  3406               	retlw	6
  1882  0C89  3406               	retlw	6
  1883  0C8A  347A               	retlw	122
  1884  0C8B  34FC               	retlw	252
  1885  0C8C  3400               	retlw	0
  1886  0C8D  3400               	retlw	0
  1887  0C8E  347E               	retlw	126
  1888  0C8F  34BC               	retlw	188
  1889  0C90  34C0               	retlw	192
  1890  0C91  34C0               	retlw	192
  1891  0C92  34C0               	retlw	192
  1892  0C93  34C0               	retlw	192
  1893  0C94  34C0               	retlw	192
  1894  0C95  34C0               	retlw	192
  1895  0C96  34BC               	retlw	188
  1896  0C97  347E               	retlw	126
  1897  0C98  3400               	retlw	0
  1898  0C99  3400               	retlw	0
  1899  0C9A  3400               	retlw	0
  1900  0C9B  3400               	retlw	0
  1901  0C9C  3400               	retlw	0
  1902  0C9D  3400               	retlw	0
  1903  0C9E  3400               	retlw	0
  1904  0C9F  3400               	retlw	0
  1905  0CA0  3400               	retlw	0
  1906  0CA1  3400               	retlw	0
  1907  0CA2  3478               	retlw	120
  1908  0CA3  34FC               	retlw	252
  1909  0CA4  3400               	retlw	0
  1910  0CA5  3400               	retlw	0
  1911  0CA6  3400               	retlw	0
  1912  0CA7  3400               	retlw	0
  1913  0CA8  3400               	retlw	0
  1914  0CA9  3400               	retlw	0
  1915  0CAA  3400               	retlw	0
  1916  0CAB  3400               	retlw	0
  1917  0CAC  3400               	retlw	0
  1918  0CAD  3400               	retlw	0
  1919  0CAE  343C               	retlw	60
  1920  0CAF  347E               	retlw	126
  1921  0CB0  3400               	retlw	0
  1922  0CB1  3400               	retlw	0
  1923  0CB2  3400               	retlw	0
  1924  0CB3  3402               	retlw	2
  1925  0CB4  3486               	retlw	134
  1926  0CB5  3486               	retlw	134
  1927  0CB6  3486               	retlw	134
  1928  0CB7  3486               	retlw	134
  1929  0CB8  3486               	retlw	134
  1930  0CB9  3486               	retlw	134
  1931  0CBA  347A               	retlw	122
  1932  0CBB  34FC               	retlw	252
  1933  0CBC  3400               	retlw	0
  1934  0CBD  3400               	retlw	0
  1935  0CBE  347E               	retlw	126
  1936  0CBF  34BD               	retlw	189
  1937  0CC0  34C3               	retlw	195
  1938  0CC1  34C3               	retlw	195
  1939  0CC2  34C3               	retlw	195
  1940  0CC3  34C3               	retlw	195
  1941  0CC4  34C3               	retlw	195
  1942  0CC5  34C3               	retlw	195
  1943  0CC6  3481               	retlw	129
  1944  0CC7  3400               	retlw	0
  1945  0CC8  3400               	retlw	0
  1946  0CC9  3400               	retlw	0
  1947  0CCA  3400               	retlw	0
  1948  0CCB  3402               	retlw	2
  1949  0CCC  3486               	retlw	134
  1950  0CCD  3486               	retlw	134
  1951  0CCE  3486               	retlw	134
  1952  0CCF  3486               	retlw	134
  1953  0CD0  3486               	retlw	134
  1954  0CD1  3486               	retlw	134
  1955  0CD2  347A               	retlw	122
  1956  0CD3  34FC               	retlw	252
  1957  0CD4  3400               	retlw	0
  1958  0CD5  3400               	retlw	0
  1959  0CD6  3400               	retlw	0
  1960  0CD7  3481               	retlw	129
  1961  0CD8  34C3               	retlw	195
  1962  0CD9  34C3               	retlw	195
  1963  0CDA  34C3               	retlw	195
  1964  0CDB  34C3               	retlw	195
  1965  0CDC  34C3               	retlw	195
  1966  0CDD  34C3               	retlw	195
  1967  0CDE  34BD               	retlw	189
  1968  0CDF  347E               	retlw	126
  1969  0CE0  3400               	retlw	0
  1970  0CE1  3400               	retlw	0
  1971  0CE2  34FC               	retlw	252
  1972  0CE3  3478               	retlw	120
  1973  0CE4  3480               	retlw	128
  1974  0CE5  3480               	retlw	128
  1975  0CE6  3480               	retlw	128
  1976  0CE7  3480               	retlw	128
  1977  0CE8  3480               	retlw	128
  1978  0CE9  3480               	retlw	128
  1979  0CEA  3478               	retlw	120
  1980  0CEB  34FC               	retlw	252
  1981  0CEC  3400               	retlw	0
  1982  0CED  3400               	retlw	0
  1983  0CEE  3400               	retlw	0
  1984  0CEF  3401               	retlw	1
  1985  0CF0  3403               	retlw	3
  1986  0CF1  3403               	retlw	3
  1987  0CF2  3403               	retlw	3
  1988  0CF3  3403               	retlw	3
  1989  0CF4  3403               	retlw	3
  1990  0CF5  3403               	retlw	3
  1991  0CF6  343D               	retlw	61
  1992  0CF7  347E               	retlw	126
  1993  0CF8  3400               	retlw	0
  1994  0CF9  3400               	retlw	0
  1995  0CFA  34FC               	retlw	252
  1996  0CFB  347A               	retlw	122
  1997  0CFC  3486               	retlw	134
  1998  0CFD  3486               	retlw	134
  1999  0CFE  3486               	retlw	134
  2000  0CFF  3486               	retlw	134
  2001  0D00  3486               	retlw	134
  2002  0D01  3486               	retlw	134
  2003  0D02  3402               	retlw	2
  2004  0D03  3400               	retlw	0
  2005  0D04  3400               	retlw	0
  2006  0D05  3400               	retlw	0
  2007  0D06  3400               	retlw	0
  2008  0D07  3481               	retlw	129
  2009  0D08  34C3               	retlw	195
  2010  0D09  34C3               	retlw	195
  2011  0D0A  34C3               	retlw	195
  2012  0D0B  34C3               	retlw	195
  2013  0D0C  34C3               	retlw	195
  2014  0D0D  34C3               	retlw	195
  2015  0D0E  34BD               	retlw	189
  2016  0D0F  347E               	retlw	126
  2017  0D10  3400               	retlw	0
  2018  0D11  3400               	retlw	0
  2019  0D12  34FC               	retlw	252
  2020  0D13  347A               	retlw	122
  2021  0D14  3486               	retlw	134
  2022  0D15  3486               	retlw	134
  2023  0D16  3486               	retlw	134
  2024  0D17  3486               	retlw	134
  2025  0D18  3486               	retlw	134
  2026  0D19  3486               	retlw	134
  2027  0D1A  3402               	retlw	2
  2028  0D1B  3400               	retlw	0
  2029  0D1C  3400               	retlw	0
  2030  0D1D  3400               	retlw	0
  2031  0D1E  347E               	retlw	126
  2032  0D1F  34BD               	retlw	189
  2033  0D20  34C3               	retlw	195
  2034  0D21  34C3               	retlw	195
  2035  0D22  34C3               	retlw	195
  2036  0D23  34C3               	retlw	195
  2037  0D24  34C3               	retlw	195
  2038  0D25  34C3               	retlw	195
  2039  0D26  34BD               	retlw	189
  2040  0D27  347E               	retlw	126
  2041  0D28  3400               	retlw	0
  2042  0D29  3400               	retlw	0
  2043  0D2A  3400               	retlw	0
  2044  0D2B  3402               	retlw	2
  2045  0D2C  3406               	retlw	6
  2046  0D2D  3406               	retlw	6
  2047  0D2E  3406               	retlw	6
  2048  0D2F  3406               	retlw	6
  2049  0D30  3406               	retlw	6
  2050  0D31  3406               	retlw	6
  2051  0D32  347A               	retlw	122
  2052  0D33  34FC               	retlw	252
  2053  0D34  3400               	retlw	0
  2054  0D35  3400               	retlw	0
  2055  0D36  3400               	retlw	0
  2056  0D37  3400               	retlw	0
  2057  0D38  3400               	retlw	0
  2058  0D39  3400               	retlw	0
  2059  0D3A  3400               	retlw	0
  2060  0D3B  3400               	retlw	0
  2061  0D3C  3400               	retlw	0
  2062  0D3D  3400               	retlw	0
  2063  0D3E  343C               	retlw	60
  2064  0D3F  347E               	retlw	126
  2065  0D40  3400               	retlw	0
  2066  0D41  3400               	retlw	0
  2067  0D42  34FC               	retlw	252
  2068  0D43  347A               	retlw	122
  2069  0D44  3486               	retlw	134
  2070  0D45  3486               	retlw	134
  2071  0D46  3486               	retlw	134
  2072  0D47  3486               	retlw	134
  2073  0D48  3486               	retlw	134
  2074  0D49  3486               	retlw	134
  2075  0D4A  347A               	retlw	122
  2076  0D4B  34FC               	retlw	252
  2077  0D4C  3400               	retlw	0
  2078  0D4D  3400               	retlw	0
  2079  0D4E  347E               	retlw	126
  2080  0D4F  34BD               	retlw	189
  2081  0D50  34C3               	retlw	195
  2082  0D51  34C3               	retlw	195
  2083  0D52  34C3               	retlw	195
  2084  0D53  34C3               	retlw	195
  2085  0D54  34C3               	retlw	195
  2086  0D55  34C3               	retlw	195
  2087  0D56  34BD               	retlw	189
  2088  0D57  347E               	retlw	126
  2089  0D58  3400               	retlw	0
  2090  0D59  3400               	retlw	0
  2091  0D5A  34FC               	retlw	252
  2092  0D5B  347A               	retlw	122
  2093  0D5C  3486               	retlw	134
  2094  0D5D  3486               	retlw	134
  2095  0D5E  3486               	retlw	134
  2096  0D5F  3486               	retlw	134
  2097  0D60  3486               	retlw	134
  2098  0D61  3486               	retlw	134
  2099  0D62  347A               	retlw	122
  2100  0D63  34FC               	retlw	252
  2101  0D64  3400               	retlw	0
  2102  0D65  3400               	retlw	0
  2103  0D66  3400               	retlw	0
  2104  0D67  3481               	retlw	129
  2105  0D68  34C3               	retlw	195
  2106  0D69  34C3               	retlw	195
  2107  0D6A  34C3               	retlw	195
  2108  0D6B  34C3               	retlw	195
  2109  0D6C  34C3               	retlw	195
  2110  0D6D  34C3               	retlw	195
  2111  0D6E  34BD               	retlw	189
  2112  0D6F  347E               	retlw	126
  2113  0D70  3400               	retlw	0
  2114  0D71                     __end_of_rakamtablo:	
  2115                           
  2116                           	psect	stringtext4
  2117  0D71                     __pstringtext4:	
  2118  0D71                     _dpowers:	
  2119  0D71  3401               	retlw	1
  2120  0D72  3400               	retlw	0
  2121  0D73  340A               	retlw	10
  2122  0D74  3400               	retlw	0
  2123  0D75  3464               	retlw	100
  2124  0D76  3400               	retlw	0
  2125  0D77  34E8               	retlw	232
  2126  0D78  3403               	retlw	3
  2127  0D79  3410               	retlw	16
  2128  0D7A  3427               	retlw	39
  2129  0D7B                     __end_of_dpowers:	
  2130  0018                     _CARRY	set	24
  2131  0095                     _OPTION_REGbits	set	149
  2132  008D                     _TRISB	set	141
  2133  008C                     _TRISA	set	140
  2134  0097                     _WDTCON	set	151
  2135  0098                     _OSCTUNE	set	152
  2136  0099                     _OSCCON	set	153
  2137  046F                     _TRISB7	set	1135
  2138  046B                     _TRISB3	set	1131
  2139  046C                     _TRISB4	set	1132
  2140  046D                     _TRISB5	set	1133
  2141  046E                     _TRISB6	set	1134
  2142  04D6                     _PLLR	set	1238
  2143  011D                     _APFCON0	set	285
  2144  011E                     _APFCON1	set	286
  2145  010D                     _LATB	set	269
  2146  010C                     _LATA	set	268
  2147  086E                     _LATB6	set	2158
  2148  086F                     _LATB7	set	2159
  2149  086B                     _LATB3	set	2155
  2150  086D                     _LATB5	set	2157
  2151  086C                     _LATB4	set	2156
  2152  018C                     _ANSELA	set	396
  2153  018D                     _ANSELB	set	397
  2154  020C                     _WPUA	set	524
  2155  020D                     _WPUB	set	525
  2156  0D7B                     STR_1:	
  2157  0D7B  3447               	retlw	71	;'G'
  2158  0D7C  3445               	retlw	69	;'E'
  2159  0D7D  344E               	retlw	78	;'N'
  2160  0D7E  34C7               	retlw	-57
  2161  0D7F  3420               	retlw	32	;' '
  2162  0D80  344D               	retlw	77	;'M'
  2163  0D81  3455               	retlw	85	;'U'
  2164  0D82  3443               	retlw	67	;'C'
  2165  0D83  34DD               	retlw	-35
  2166  0D84  3454               	retlw	84	;'T'
  2167  0D85  344C               	retlw	76	;'L'
  2168  0D86  3445               	retlw	69	;'E'
  2169  0D87  3452               	retlw	82	;'R'
  2170  0D88  3400               	retlw	0
  2171                           
  2172                           	psect	stringtext5
  2173  0D89                     __pstringtext5:	
  2174  0D89                     STR_2:	
  2175  0D89  3431               	retlw	49	;'1'
  2176  0D8A  3432               	retlw	50	;'2'
  2177  0D8B  3433               	retlw	51	;'3'
  2178  0D8C  3434               	retlw	52	;'4'
  2179  0D8D  3435               	retlw	53	;'5'
  2180  0D8E  3436               	retlw	54	;'6'
  2181  0D8F  3400               	retlw	0
  2182                           
  2183                           	psect	stringtext6
  2184  0D90                     __pstringtext6:	
  2185  0D90                     STR_4:	
  2186  0D90  3425               	retlw	37	;'%'
  2187  0D91  3464               	retlw	100	;'d'
  2188  0D92  3400               	retlw	0
  2189                           
  2190                           	psect	stringtext7
  2191  0000                     __pstringtext7:	
  2192  0D89                     
  2193                           ; #config settings
  2194  0000                     
  2195                           	psect	cinit
  2196  07FA                     start_initialization:	
  2197  07FA                     __initialization:	
  2198                           
  2199                           ; Initialize objects allocated to BANK0
  2200  07FA  3183  23D8         	fcall	__pidataBANK0	;fetch initializer
  2201  07FC  00B9               	movwf	__pdataBANK0& (0+127)
  2202  07FD                     end_of_initialization:	
  2203                           ;End of C runtime variable initialization code
  2204                           
  2205  07FD                     __end_of__initialization:	
  2206  07FD  0020               	movlb	0
  2207  07FE  3185  2D39         	ljmp	_main	;jump to C main() function
  2208                           
  2209                           	psect	dataBANK0
  2210  0039                     __pdataBANK0:	
  2211  0039                     _lcd_kontrast:	
  2212  0039                     	ds	1
  2213                           
  2214                           	psect	cstackCOMMON
  2215  0070                     __pcstackCOMMON:	
  2216  0070                     ?_PIN_MANAGER_Initialize:	
  2217  0070                     ??_PIN_MANAGER_Initialize:	
  2218                           ; 1 bytes @ 0x0
  2219                           
  2220  0070                     ?_OSCILLATOR_Initialize:	
  2221                           ; 1 bytes @ 0x0
  2222                           
  2223  0070                     ??_OSCILLATOR_Initialize:	
  2224                           ; 1 bytes @ 0x0
  2225                           
  2226  0070                     ?_WDT_Initialize:	
  2227                           ; 1 bytes @ 0x0
  2228                           
  2229  0070                     ??_WDT_Initialize:	
  2230                           ; 1 bytes @ 0x0
  2231                           
  2232  0070                     ?_lcd_baslat:	
  2233                           ; 1 bytes @ 0x0
  2234                           
  2235  0070                     ?_lcd_sil:	
  2236                           ; 1 bytes @ 0x0
  2237                           
  2238  0070                     ?_lcd_veriyaz:	
  2239                           ; 1 bytes @ 0x0
  2240                           
  2241  0070                     ??_lcd_veriyaz:	
  2242                           ; 1 bytes @ 0x0
  2243                           
  2244  0070                     ?_lcd_harfyaz:	
  2245                           ; 1 bytes @ 0x0
  2246                           
  2247  0070                     ?_SYSTEM_Initialize:	
  2248                           ; 1 bytes @ 0x0
  2249                           
  2250  0070                     ??_SYSTEM_Initialize:	
  2251                           ; 1 bytes @ 0x0
  2252                           
  2253  0070                     ?_main:	
  2254                           ; 1 bytes @ 0x0
  2255                           
  2256  0070                     ?___bmul:	
  2257                           ; 1 bytes @ 0x0
  2258                           
  2259  0070                     ?___wmul:	
  2260                           ; 1 bytes @ 0x0
  2261                           
  2262  0070                     ?___lwdiv:	
  2263                           ; 2 bytes @ 0x0
  2264                           
  2265  0070                     ___bmul@multiplicand:	
  2266                           ; 2 bytes @ 0x0
  2267                           
  2268  0070                     ___wmul@multiplier:	
  2269                           ; 1 bytes @ 0x0
  2270                           
  2271  0070                     ___lwdiv@divisor:	
  2272                           ; 2 bytes @ 0x0
  2273                           
  2274                           
  2275                           ; 2 bytes @ 0x0
  2276  0070                     	ds	1
  2277  0071                     ??___bmul:	
  2278  0071                     lcd_veriyaz@veri:	
  2279                           ; 1 bytes @ 0x1
  2280                           
  2281                           
  2282                           ; 1 bytes @ 0x1
  2283  0071                     	ds	1
  2284  0072                     lcd_veriyaz@i:	
  2285  0072                     ___bmul@product:	
  2286                           ; 1 bytes @ 0x2
  2287                           
  2288  0072                     ___wmul@multiplicand:	
  2289                           ; 1 bytes @ 0x2
  2290                           
  2291  0072                     ___lwdiv@dividend:	
  2292                           ; 2 bytes @ 0x2
  2293                           
  2294                           
  2295                           ; 2 bytes @ 0x2
  2296  0072                     	ds	1
  2297  0073                     ??_lcd_baslat:	
  2298  0073                     ___bmul@multiplier:	
  2299                           ; 1 bytes @ 0x3
  2300                           
  2301                           
  2302                           ; 1 bytes @ 0x3
  2303  0073                     	ds	1
  2304  0074                     ?_lcd_git:	
  2305  0074                     ??___wmul:	
  2306                           ; 1 bytes @ 0x4
  2307                           
  2308  0074                     ??___lwdiv:	
  2309                           ; 1 bytes @ 0x4
  2310                           
  2311  0074                     lcd_git@sutun:	
  2312                           ; 1 bytes @ 0x4
  2313                           
  2314  0074                     ___wmul@product:	
  2315                           ; 1 bytes @ 0x4
  2316                           
  2317                           
  2318                           ; 2 bytes @ 0x4
  2319  0074                     	ds	1
  2320  0075                     ??_lcd_git:	
  2321  0075                     ___lwdiv@quotient:	
  2322                           ; 1 bytes @ 0x5
  2323                           
  2324                           
  2325                           ; 2 bytes @ 0x5
  2326  0075                     	ds	1
  2327  0076                     ??_lcd_harfyaz:	
  2328  0076                     lcd_git@satir:	
  2329                           ; 1 bytes @ 0x6
  2330                           
  2331  0076                     lcd_harfyaz@harf:	
  2332                           ; 1 bytes @ 0x6
  2333                           
  2334                           
  2335                           ; 1 bytes @ 0x6
  2336  0076                     	ds	1
  2337  0077                     ??_lcd_sil:	
  2338  0077                     ?_lcd_sayiyaz:	
  2339                           ; 1 bytes @ 0x7
  2340                           
  2341  0077                     lcd_sayiyaz@sutun:	
  2342                           ; 1 bytes @ 0x7
  2343                           
  2344  0077                     ___lwdiv@counter:	
  2345                           ; 1 bytes @ 0x7
  2346                           
  2347  0077                     lcd_harfyaz@adres:	
  2348                           ; 1 bytes @ 0x7
  2349                           
  2350                           
  2351                           ; 2 bytes @ 0x7
  2352  0077                     	ds	1
  2353  0078                     ?___lwmod:	
  2354  0078                     lcd_sil@i:	
  2355                           ; 2 bytes @ 0x8
  2356                           
  2357  0078                     lcd_sayiyaz@sayi:	
  2358                           ; 2 bytes @ 0x8
  2359                           
  2360  0078                     ___lwmod@divisor:	
  2361                           ; 2 bytes @ 0x8
  2362                           
  2363                           
  2364                           ; 2 bytes @ 0x8
  2365  0078                     	ds	1
  2366  0079                     ?_lcd_mesajyaz:	
  2367  0079                     lcd_mesajyaz@sutun:	
  2368                           ; 1 bytes @ 0x9
  2369                           
  2370                           
  2371                           ; 1 bytes @ 0x9
  2372  0079                     	ds	1
  2373  007A                     lcd_sayiyaz@font:	
  2374  007A                     lcd_mesajyaz@mesaj:	
  2375                           ; 1 bytes @ 0xA
  2376                           
  2377  007A                     ___lwmod@dividend:	
  2378                           ; 2 bytes @ 0xA
  2379                           
  2380                           
  2381                           ; 2 bytes @ 0xA
  2382  007A                     	ds	1
  2383  007B                     ??_lcd_sayiyaz:	
  2384                           
  2385                           ; 1 bytes @ 0xB
  2386  007B                     	ds	1
  2387  007C                     ??_lcd_mesajyaz:	
  2388  007C                     ??___lwmod:	
  2389                           ; 1 bytes @ 0xC
  2390                           
  2391                           
  2392                           ; 1 bytes @ 0xC
  2393  007C                     	ds	1
  2394  007D                     lcd_mesajyaz@satir:	
  2395  007D                     ___lwmod@counter:	
  2396                           ; 1 bytes @ 0xD
  2397                           
  2398                           
  2399                           ; 1 bytes @ 0xD
  2400  007D                     	ds	1
  2401                           
  2402                           	psect	cstackBANK0
  2403  0020                     __pcstackBANK0:	
  2404  0020                     ?_sprintf:	
  2405  0020                     lcd_sayiyaz@satir:	
  2406                           ; 2 bytes @ 0x0
  2407                           
  2408  0020                     sprintf@f:	
  2409                           ; 1 bytes @ 0x0
  2410                           
  2411                           
  2412                           ; 2 bytes @ 0x0
  2413  0020                     	ds	1
  2414  0021                     lcd_sayiyaz@siramax:	
  2415                           
  2416                           ; 1 bytes @ 0x1
  2417  0021                     	ds	1
  2418  0022                     lcd_sayiyaz@sayi_t:	
  2419                           
  2420                           ; 2 bytes @ 0x2
  2421  0022                     	ds	2
  2422  0024                     ??_sprintf:	
  2423  0024                     lcd_sayiyaz@adres:	
  2424                           ; 1 bytes @ 0x4
  2425                           
  2426                           
  2427                           ; 2 bytes @ 0x4
  2428  0024                     	ds	2
  2429  0026                     lcd_sayiyaz@i:	
  2430                           
  2431                           ; 1 bytes @ 0x6
  2432  0026                     	ds	1
  2433  0027                     lcd_sayiyaz@rakam:	
  2434                           
  2435                           ; 1 bytes @ 0x7
  2436  0027                     	ds	1
  2437  0028                     lcd_sayiyaz@sira:	
  2438  0028                     sprintf@ap:	
  2439                           ; 1 bytes @ 0x8
  2440                           
  2441                           
  2442                           ; 1 bytes @ 0x8
  2443  0028                     	ds	1
  2444  0029                     sprintf@flag:	
  2445                           
  2446                           ; 1 bytes @ 0x9
  2447  0029                     	ds	1
  2448  002A                     sprintf@prec:	
  2449                           
  2450                           ; 1 bytes @ 0xA
  2451  002A                     	ds	1
  2452  002B                     sprintf@val:	
  2453                           
  2454                           ; 2 bytes @ 0xB
  2455  002B                     	ds	2
  2456  002D                     sprintf@sp:	
  2457                           
  2458                           ; 1 bytes @ 0xD
  2459  002D                     	ds	1
  2460  002E                     sprintf@c:	
  2461                           
  2462                           ; 1 bytes @ 0xE
  2463  002E                     	ds	1
  2464  002F                     ??_main:	
  2465                           
  2466                           ; 1 bytes @ 0xF
  2467  002F                     	ds	2
  2468  0031                     main@buf:	
  2469                           
  2470                           ; 6 bytes @ 0x11
  2471  0031                     	ds	6
  2472  0037                     main@sayi:	
  2473                           
  2474                           ; 2 bytes @ 0x17
  2475  0037                     	ds	2
  2476                           
  2477                           	psect	maintext
  2478  0539                     __pmaintext:	
  2479 ;;
  2480 ;;Main: autosize = 0, tempsize = 2, incstack = 0, save=0
  2481 ;;
  2482 ;; *************** function _main *****************
  2483 ;; Defined at:
  2484 ;;		line 53 in file "main.c"
  2485 ;; Parameters:    Size  Location     Type
  2486 ;;		None
  2487 ;; Auto vars:     Size  Location     Type
  2488 ;;  buf             6   17[BANK0 ] unsigned char [6]
  2489 ;;  sayi            2   23[BANK0 ] int 
  2490 ;; Return value:  Size  Location     Type
  2491 ;;                  1    wreg      void 
  2492 ;; Registers used:
  2493 ;;		wreg, fsr0l, fsr0h, fsr1l, fsr1h, status,2, status,0, pclath, cstack
  2494 ;; Tracked objects:
  2495 ;;		On entry : B1F/0
  2496 ;;		On exit  : 0/0
  2497 ;;		Unchanged: 0/0
  2498 ;; Data sizes:     COMMON   BANK0   BANK1   BANK2   BANK3   BANK4
  2499 ;;      Params:         0       0       0       0       0       0
  2500 ;;      Locals:         0       8       0       0       0       0
  2501 ;;      Temps:          0       2       0       0       0       0
  2502 ;;      Totals:         0      10       0       0       0       0
  2503 ;;Total ram usage:       10 bytes
  2504 ;; Hardware stack levels required when called:    3
  2505 ;; This function calls:
  2506 ;;		_SYSTEM_Initialize
  2507 ;;		_lcd_baslat
  2508 ;;		_lcd_mesajyaz
  2509 ;;		_lcd_sayiyaz
  2510 ;;		_lcd_sil
  2511 ;;		_sprintf
  2512 ;; This function is called by:
  2513 ;;		Startup code after reset
  2514 ;; This function uses a non-reentrant model
  2515 ;;
  2516                           
  2517                           
  2518                           ;psect for function _main
  2519  0539                     _main:	
  2520                           
  2521                           ;main.c: 56: int sayi=0;
  2522                           
  2523                           ;incstack = 0
  2524                           ; Regs used in _main: [wreg-fsr1h+status,2+status,0+pclath+cstack]
  2525  0539  0020               	movlb	0	; select bank0
  2526  053A  01B7               	clrf	main@sayi
  2527  053B  01B8               	clrf	main@sayi+1
  2528                           
  2529                           ;main.c: 57: char buf[6];
  2530                           ;main.c: 60: SYSTEM_Initialize();
  2531  053C  3183  23E4  3185   	fcall	_SYSTEM_Initialize
  2532                           
  2533                           ;main.c: 77: lcd_baslat();
  2534  053F  3184  2487  3185   	fcall	_lcd_baslat
  2535                           
  2536                           ;main.c: 78: lcd_sil();
  2537  0542  3184  24AD  3185   	fcall	_lcd_sil
  2538                           
  2539                           ;main.c: 80: lcd_mesajyaz(0,0,"GENÇ MUCÝTLER");
  2540  0545  01F9               	clrf	lcd_mesajyaz@sutun
  2541  0546  307B               	movlw	low (STR_1| (0+32768))
  2542  0547  00FA               	movwf	lcd_mesajyaz@mesaj
  2543  0548  308D               	movlw	high (STR_1| (0+32768))
  2544  0549  00FB               	movwf	lcd_mesajyaz@mesaj+1
  2545  054A  3000               	movlw	0
  2546  054B  3184  2445  3185   	fcall	_lcd_mesajyaz
  2547                           
  2548                           ;main.c: 82: lcd_sayiyaz(1,0,"123456",0);
  2549  054E  01F7               	clrf	lcd_sayiyaz@sutun
  2550  054F  3089               	movlw	low (STR_2| (0+32768))
  2551  0550  00F8               	movwf	lcd_sayiyaz@sayi
  2552  0551  308D               	movlw	high (STR_2| (0+32768))
  2553  0552  00F9               	movwf	lcd_sayiyaz@sayi+1
  2554  0553  01FA               	clrf	lcd_sayiyaz@font
  2555  0554  3001               	movlw	1
  2556  0555  3187  2719  3185   	fcall	_lcd_sayiyaz
  2557                           
  2558                           ;main.c: 83: lcd_sayiyaz(3,0,"123456",1);
  2559  0558  01F7               	clrf	lcd_sayiyaz@sutun
  2560  0559  3089               	movlw	low (STR_2| (0+32768))
  2561  055A  00F8               	movwf	lcd_sayiyaz@sayi
  2562  055B  308D               	movlw	high (STR_2| (0+32768))
  2563  055C  00F9               	movwf	lcd_sayiyaz@sayi+1
  2564  055D  01FA               	clrf	lcd_sayiyaz@font
  2565  055E  0AFA               	incf	lcd_sayiyaz@font,f
  2566  055F  3003               	movlw	3
  2567  0560  3187  2719  3185   	fcall	_lcd_sayiyaz
  2568                           
  2569                           ;main.c: 86: _delay((unsigned long)((2000)*(32000000/4000.0)));
  2570  0563  3052               	movlw	82
  2571  0564  0020               	movlb	0	; select bank0
  2572  0565  00B0               	movwf	??_main+1
  2573  0566  302B               	movlw	43
  2574  0567  00AF               	movwf	??_main
  2575  0568  3000               	movlw	0
  2576  0569                     u997:	
  2577  0569  0B89               	decfsz	9,f
  2578  056A  2D69               	goto	u997
  2579  056B  0BAF               	decfsz	??_main,f
  2580  056C  2D69               	goto	u997
  2581  056D  0BB0               	decfsz	??_main+1,f
  2582  056E  2D69               	goto	u997
  2583  056F  0000               	nop
  2584                           
  2585                           ;main.c: 87: lcd_sil();
  2586  0570  3184  24AD  3185   	fcall	_lcd_sil
  2587  0573                     l1381:	
  2588                           ;main.c: 90: while(1){
  2589                           
  2590                           
  2591                           ;main.c: 91: sprintf(buf,"%d",sayi++);
  2592  0573  3090               	movlw	low (STR_4| (0+32768))
  2593  0574  0020               	movlb	0	; select bank0
  2594  0575  00A0               	movwf	sprintf@f
  2595  0576  308D               	movlw	high (STR_4| (0+32768))
  2596  0577  00A1               	movwf	sprintf@f+1
  2597  0578  0838               	movf	main@sayi+1,w
  2598  0579  00A3               	movwf	?_sprintf+3
  2599  057A  0837               	movf	main@sayi,w
  2600  057B  00A2               	movwf	?_sprintf+2
  2601  057C  3031               	movlw	(low (main@buf| 0))& (0+255)
  2602  057D  3186  264C  3185   	fcall	_sprintf
  2603  0580  3001               	movlw	1
  2604  0581  0020               	movlb	0	; select bank0
  2605  0582  07B7               	addwf	main@sayi,f
  2606  0583  3000               	movlw	0
  2607  0584  3DB8               	addwfc	main@sayi+1,f
  2608                           
  2609                           ;main.c: 92: lcd_sayiyaz(1,0,buf,1);
  2610  0585  01F7               	clrf	lcd_sayiyaz@sutun
  2611  0586  3031               	movlw	low main@buf
  2612  0587  00F8               	movwf	lcd_sayiyaz@sayi
  2613  0588  3000               	movlw	high main@buf
  2614  0589  00F9               	movwf	lcd_sayiyaz@sayi+1
  2615  058A  01FA               	clrf	lcd_sayiyaz@font
  2616  058B  0AFA               	incf	lcd_sayiyaz@font,f
  2617  058C  3001               	movlw	1
  2618  058D  3187  2719  3185   	fcall	_lcd_sayiyaz
  2619                           
  2620                           ;main.c: 93: _delay((unsigned long)((250)*(32000000/4000.0)));
  2621  0590  300B               	movlw	11
  2622  0591  0020               	movlb	0	; select bank0
  2623  0592  00B0               	movwf	??_main+1
  2624  0593  3026               	movlw	38
  2625  0594  00AF               	movwf	??_main
  2626  0595  305D               	movlw	93
  2627  0596                     u1007:	
  2628  0596  0B89               	decfsz	9,f
  2629  0597  2D96               	goto	u1007
  2630  0598  0BAF               	decfsz	??_main,f
  2631  0599  2D96               	goto	u1007
  2632  059A  0BB0               	decfsz	??_main+1,f
  2633  059B  2D96               	goto	u1007
  2634  059C  3200               	nop2
  2635  059D  2D73               	goto	l1381
  2636  059E                     __end_of_main:	
  2637                           
  2638                           	psect	text1
  2639  064C                     __ptext1:	
  2640 ;; *************** function _sprintf *****************
  2641 ;; Defined at:
  2642 ;;		line 492 in file "C:\Program Files (x86)\Microchip\xc8\v1.44\sources\common\doprnt.c"
  2643 ;; Parameters:    Size  Location     Type
  2644 ;;  sp              1    wreg     PTR unsigned char 
  2645 ;;		 -> main@buf(6), 
  2646 ;;  f               2    0[BANK0 ] PTR const unsigned char 
  2647 ;;		 -> STR_4(3), 
  2648 ;; Auto vars:     Size  Location     Type
  2649 ;;  sp              1   13[BANK0 ] PTR unsigned char 
  2650 ;;		 -> main@buf(6), 
  2651 ;;  tmpval          4    0        struct .
  2652 ;;  val             2   11[BANK0 ] unsigned int 
  2653 ;;  cp              2    0        PTR const unsigned char 
  2654 ;;  len             2    0        unsigned int 
  2655 ;;  c               1   14[BANK0 ] char 
  2656 ;;  prec            1   10[BANK0 ] char 
  2657 ;;  flag            1    9[BANK0 ] unsigned char 
  2658 ;;  ap              1    8[BANK0 ] PTR void [1]
  2659 ;;		 -> ?_sprintf(2), 
  2660 ;; Return value:  Size  Location     Type
  2661 ;;                  2    0[BANK0 ] int 
  2662 ;; Registers used:
  2663 ;;		wreg, fsr0l, fsr0h, fsr1l, fsr1h, status,2, status,0, pclath, cstack
  2664 ;; Tracked objects:
  2665 ;;		On entry : 0/0
  2666 ;;		On exit  : 0/0
  2667 ;;		Unchanged: 0/0
  2668 ;; Data sizes:     COMMON   BANK0   BANK1   BANK2   BANK3   BANK4
  2669 ;;      Params:         0       4       0       0       0       0
  2670 ;;      Locals:         0       7       0       0       0       0
  2671 ;;      Temps:          0       4       0       0       0       0
  2672 ;;      Totals:         0      15       0       0       0       0
  2673 ;;Total ram usage:       15 bytes
  2674 ;; Hardware stack levels used:    1
  2675 ;; Hardware stack levels required when called:    1
  2676 ;; This function calls:
  2677 ;;		___lwdiv
  2678 ;;		___lwmod
  2679 ;; This function is called by:
  2680 ;;		_main
  2681 ;; This function uses a non-reentrant model
  2682 ;;
  2683                           
  2684                           
  2685                           ;psect for function _sprintf
  2686  064C                     _sprintf:	
  2687                           
  2688                           ;incstack = 0
  2689                           ; Regs used in _sprintf: [wreg-fsr1h+status,2+status,0+pclath+cstack]
  2690                           ;sprintf@sp stored from wreg
  2691  064C  0020               	movlb	0	; select bank0
  2692  064D  00AD               	movwf	sprintf@sp
  2693                           
  2694                           ;doprnt.c: 494: va_list ap;
  2695                           ;doprnt.c: 499: signed char c;
  2696                           ;doprnt.c: 506: signed char prec;
  2697                           ;doprnt.c: 508: unsigned char flag;
  2698                           ;doprnt.c: 523: union {
  2699                           ;doprnt.c: 524: unsigned long vd;
  2700                           ;doprnt.c: 525: double integ;
  2701                           ;doprnt.c: 526: } tmpval;
  2702                           ;doprnt.c: 528: unsigned int val;
  2703                           ;doprnt.c: 529: unsigned len;
  2704                           ;doprnt.c: 530: const char * cp;
  2705                           ;doprnt.c: 533: *ap = __va_start();
  2706  064E  3022               	movlw	(low ((?_sprintf| 0+2)))& (0+255)
  2707  064F  00A4               	movwf	??_sprintf
  2708  0650  0824               	movf	??_sprintf,w
  2709  0651  00A8               	movwf	sprintf@ap
  2710  0652                     l1357:	
  2711                           ;doprnt.c: 536: while(c = *f++) {
  2712                           
  2713  0652  0821               	movf	sprintf@f+1,w
  2714  0653  00A5               	movwf	??_sprintf+1
  2715  0654  0820               	movf	sprintf@f,w
  2716  0655  00A4               	movwf	??_sprintf
  2717  0656  0AA0               	incf	sprintf@f,f
  2718  0657  1903               	skipnz
  2719  0658  0AA1               	incf	sprintf@f+1,f
  2720  0659  0824               	movf	??_sprintf,w
  2721  065A  0084               	movwf	4
  2722  065B  0825               	movf	??_sprintf+1,w
  2723  065C  0085               	movwf	5
  2724  065D  0800               	movf	0,w	;code access
  2725  065E  00A6               	movwf	??_sprintf+2
  2726  065F  0826               	movf	??_sprintf+2,w
  2727  0660  00AE               	movwf	sprintf@c
  2728  0661  082E               	movf	sprintf@c,w
  2729  0662  1903               	btfsc	3,2
  2730  0663  2F14               	goto	l1359
  2731                           
  2732                           ;doprnt.c: 538: if(c != '%')
  2733  0664  3025               	movlw	37
  2734  0665  062E               	xorwf	sprintf@c,w
  2735  0666  1903               	btfsc	3,2
  2736  0667  2E74               	goto	l1313
  2737                           
  2738                           ;doprnt.c: 540: {
  2739                           ;doprnt.c: 541: ((*sp++ = (c)));
  2740  0668  082E               	movf	sprintf@c,w
  2741  0669  00A4               	movwf	??_sprintf
  2742  066A  082D               	movf	sprintf@sp,w
  2743  066B  0086               	movwf	6
  2744  066C  0187               	clrf	7
  2745  066D  0824               	movf	??_sprintf,w
  2746  066E  0081               	movwf	1
  2747  066F  3001               	movlw	1
  2748  0670  00A4               	movwf	??_sprintf
  2749  0671  0824               	movf	??_sprintf,w
  2750  0672  07AD               	addwf	sprintf@sp,f
  2751                           
  2752                           ;doprnt.c: 542: continue;
  2753  0673  2E52               	goto	l1357
  2754  0674                     l1313:	
  2755                           
  2756                           ;doprnt.c: 543: }
  2757                           ;doprnt.c: 548: flag = 0;
  2758  0674  01A9               	clrf	sprintf@flag
  2759                           
  2760                           ;doprnt.c: 822: }
  2761                           
  2762                           ;doprnt.c: 813: continue;
  2763                           
  2764                           ;doprnt.c: 802: default:
  2765                           
  2766                           ;doprnt.c: 698: case 'i':
  2767                           ;doprnt.c: 699: break;
  2768                           
  2769                           ;doprnt.c: 697: case 'd':
  2770                           
  2771                           ;doprnt.c: 638: goto alldone;
  2772                           
  2773                           ;doprnt.c: 637: case 0:
  2774                           
  2775                           ;doprnt.c: 635: switch(c = *f++) {
  2776  0675  0821               	movf	sprintf@f+1,w
  2777  0676  00A5               	movwf	??_sprintf+1
  2778  0677  0820               	movf	sprintf@f,w
  2779  0678  00A4               	movwf	??_sprintf
  2780  0679  0AA0               	incf	sprintf@f,f
  2781  067A  1903               	skipnz
  2782  067B  0AA1               	incf	sprintf@f+1,f
  2783  067C  0824               	movf	??_sprintf,w
  2784  067D  0084               	movwf	4
  2785  067E  0825               	movf	??_sprintf+1,w
  2786  067F  0085               	movwf	5
  2787  0680  0800               	movf	0,w	;code access
  2788  0681  00AE               	movwf	sprintf@c
  2789                           
  2790                           ; Switch size 1, requested type "space"
  2791                           ; Number of cases is 3, Range of values is 0 to 105
  2792                           ; switch strategies available:
  2793                           ; Name         Instructions Cycles
  2794                           ; simple_byte           10     6 (average)
  2795                           ; direct_byte          218     6 (fixed)
  2796                           ; jumptable            260     6 (fixed)
  2797                           ;	Chosen strategy is simple_byte
  2798  0682  3A00               	xorlw	0	; case 0
  2799  0683  1903               	skipnz
  2800  0684  2F14               	goto	l1359
  2801  0685  3A64               	xorlw	100	; case 100
  2802  0686  1903               	skipnz
  2803  0687  2E8C               	goto	l1319
  2804  0688  3A0D               	xorlw	13	; case 105
  2805  0689  1903               	skipnz
  2806  068A  2E8C               	goto	l1319
  2807  068B  2E52               	goto	l1357
  2808  068C                     l1319:	
  2809                           
  2810                           ;doprnt.c: 1253: {
  2811                           ;doprnt.c: 1259: val = (int)(*(int *)__va_arg((*(int **)ap), (int)0));
  2812  068C  0828               	movf	sprintf@ap,w
  2813  068D  0086               	movwf	6
  2814  068E  0187               	clrf	7
  2815  068F  3F40               	moviw [0]fsr1
  2816  0690  00AB               	movwf	sprintf@val
  2817  0691  3F41               	moviw [1]fsr1
  2818  0692  00AC               	movwf	sprintf@val+1
  2819  0693  3002               	movlw	2
  2820  0694  00A4               	movwf	??_sprintf
  2821  0695  0824               	movf	??_sprintf,w
  2822  0696  07A8               	addwf	sprintf@ap,f
  2823                           
  2824                           ;doprnt.c: 1261: if((int)val < 0) {
  2825  0697  1FAC               	btfss	sprintf@val+1,7
  2826  0698  2EA2               	goto	l1329
  2827                           
  2828                           ;doprnt.c: 1262: flag |= 0x03;
  2829  0699  3003               	movlw	3
  2830  069A  00A4               	movwf	??_sprintf
  2831  069B  0824               	movf	??_sprintf,w
  2832  069C  04A9               	iorwf	sprintf@flag,f
  2833                           
  2834                           ;doprnt.c: 1263: val = -val;
  2835  069D  09AB               	comf	sprintf@val,f
  2836  069E  09AC               	comf	sprintf@val+1,f
  2837  069F  0AAB               	incf	sprintf@val,f
  2838  06A0  1903               	skipnz
  2839  06A1  0AAC               	incf	sprintf@val+1,f
  2840  06A2                     l1329:	
  2841                           
  2842                           ;doprnt.c: 1264: }
  2843                           ;doprnt.c: 1266: }
  2844                           ;doprnt.c: 1305: for(c = 1 ; c != sizeof dpowers/sizeof dpowers[0] ; c++)
  2845  06A2  01AE               	clrf	sprintf@c
  2846  06A3  0AAE               	incf	sprintf@c,f
  2847  06A4  3005               	movlw	5
  2848  06A5  062E               	xorwf	sprintf@c,w
  2849  06A6  1903               	btfsc	3,2
  2850  06A7  2EC7               	goto	l1341
  2851  06A8                     l1335:	
  2852                           
  2853                           ;doprnt.c: 1306: if(val < dpowers[c])
  2854  06A8  082E               	movf	sprintf@c,w
  2855  06A9  00A4               	movwf	??_sprintf
  2856  06AA  01A5               	clrf	??_sprintf+1
  2857  06AB  35A4               	lslf	??_sprintf,f
  2858  06AC  0DA5               	rlf	??_sprintf+1,f
  2859  06AD  3071               	movlw	low (_dpowers| (0+32768))
  2860  06AE  0724               	addwf	??_sprintf,w
  2861  06AF  0084               	movwf	4
  2862  06B0  308D               	movlw	high (_dpowers| (0+32768))
  2863  06B1  3D25               	addwfc	??_sprintf+1,w
  2864  06B2  0085               	movwf	5
  2865  06B3  3F00               	moviw [0]fsr0
  2866  06B4  00A6               	movwf	??_sprintf+2
  2867  06B5  3F01               	moviw [1]fsr0
  2868  06B6  00A7               	movwf	??_sprintf+3
  2869  06B7  0827               	movf	??_sprintf+3,w
  2870  06B8  022C               	subwf	sprintf@val+1,w
  2871  06B9  1D03               	skipz
  2872  06BA  2EBD               	goto	u915
  2873  06BB  0826               	movf	??_sprintf+2,w
  2874  06BC  022B               	subwf	sprintf@val,w
  2875  06BD                     u915:	
  2876  06BD  1C03               	btfss	3,0
  2877  06BE  2EC7               	goto	l1341
  2878                           
  2879                           ;doprnt.c: 1307: break;
  2880  06BF  3001               	movlw	1
  2881  06C0  00A4               	movwf	??_sprintf
  2882  06C1  0824               	movf	??_sprintf,w
  2883  06C2  07AE               	addwf	sprintf@c,f
  2884  06C3  3005               	movlw	5
  2885  06C4  062E               	xorwf	sprintf@c,w
  2886  06C5  1D03               	btfss	3,2
  2887  06C6  2EA8               	goto	l1335
  2888  06C7                     l1341:	
  2889                           
  2890                           ;doprnt.c: 1422: {
  2891                           ;doprnt.c: 1438: if(flag & 0x03)
  2892  06C7  0829               	movf	sprintf@flag,w
  2893  06C8  3903               	andlw	3
  2894  06C9  1903               	btfsc	3,2
  2895  06CA  2ED6               	goto	l1347
  2896                           
  2897                           ;doprnt.c: 1439: ((*sp++ = ('-')));
  2898  06CB  302D               	movlw	45
  2899  06CC  00A4               	movwf	??_sprintf
  2900  06CD  082D               	movf	sprintf@sp,w
  2901  06CE  0086               	movwf	6
  2902  06CF  0187               	clrf	7
  2903  06D0  0824               	movf	??_sprintf,w
  2904  06D1  0081               	movwf	1
  2905  06D2  3001               	movlw	1
  2906  06D3  00A4               	movwf	??_sprintf
  2907  06D4  0824               	movf	??_sprintf,w
  2908  06D5  07AD               	addwf	sprintf@sp,f
  2909  06D6                     l1347:	
  2910                           
  2911                           ;doprnt.c: 1469: }
  2912                           ;doprnt.c: 1472: prec = c;
  2913  06D6  082E               	movf	sprintf@c,w
  2914  06D7  00A4               	movwf	??_sprintf
  2915  06D8  0824               	movf	??_sprintf,w
  2916  06D9  00AA               	movwf	sprintf@prec
  2917  06DA                     l1355:	
  2918                           ;doprnt.c: 1474: while(prec--) {
  2919                           
  2920  06DA  30FF               	movlw	255
  2921  06DB  00A4               	movwf	??_sprintf
  2922  06DC  0824               	movf	??_sprintf,w
  2923  06DD  07AA               	addwf	sprintf@prec,f
  2924  06DE  0A2A               	incf	sprintf@prec,w
  2925  06DF  1903               	btfsc	3,2
  2926  06E0  2E52               	goto	l1357
  2927                           
  2928                           ;doprnt.c: 1478: {
  2929                           ;doprnt.c: 1489: c = (val / dpowers[prec]) % 10 + '0';
  2930  06E1  300A               	movlw	10
  2931  06E2  00F8               	movwf	___lwmod@divisor
  2932  06E3  3000               	movlw	0
  2933  06E4  00F9               	movwf	___lwmod@divisor+1
  2934  06E5  082A               	movf	sprintf@prec,w
  2935  06E6  00A4               	movwf	??_sprintf
  2936  06E7  01A5               	clrf	??_sprintf+1
  2937  06E8  35A4               	lslf	??_sprintf,f
  2938  06E9  0DA5               	rlf	??_sprintf+1,f
  2939  06EA  3071               	movlw	low (_dpowers| (0+32768))
  2940  06EB  0724               	addwf	??_sprintf,w
  2941  06EC  0084               	movwf	4
  2942  06ED  308D               	movlw	high (_dpowers| (0+32768))
  2943  06EE  3D25               	addwfc	??_sprintf+1,w
  2944  06EF  0085               	movwf	5
  2945  06F0  3F00               	moviw [0]fsr0
  2946  06F1  00F0               	movwf	___lwdiv@divisor
  2947  06F2  3F01               	moviw [1]fsr0
  2948  06F3  00F1               	movwf	___lwdiv@divisor+1
  2949  06F4  082C               	movf	sprintf@val+1,w
  2950  06F5  00F3               	movwf	___lwdiv@dividend+1
  2951  06F6  082B               	movf	sprintf@val,w
  2952  06F7  00F2               	movwf	___lwdiv@dividend
  2953  06F8  3185  2505  3186   	fcall	___lwdiv
  2954  06FB  0871               	movf	?___lwdiv+1,w
  2955  06FC  00FB               	movwf	___lwmod@dividend+1
  2956  06FD  0870               	movf	?___lwdiv,w
  2957  06FE  00FA               	movwf	___lwmod@dividend
  2958  06FF  3184  24D9  3186   	fcall	___lwmod
  2959  0702  0878               	movf	?___lwmod,w
  2960  0703  3E30               	addlw	48
  2961  0704  0020               	movlb	0	; select bank0
  2962  0705  00A6               	movwf	??_sprintf+2
  2963  0706  0826               	movf	??_sprintf+2,w
  2964  0707  00AE               	movwf	sprintf@c
  2965                           
  2966                           ;doprnt.c: 1523: }
  2967                           ;doprnt.c: 1524: ((*sp++ = (c)));
  2968  0708  082E               	movf	sprintf@c,w
  2969  0709  00A4               	movwf	??_sprintf
  2970  070A  082D               	movf	sprintf@sp,w
  2971  070B  0086               	movwf	6
  2972  070C  0187               	clrf	7
  2973  070D  0824               	movf	??_sprintf,w
  2974  070E  0081               	movwf	1
  2975  070F  3001               	movlw	1
  2976  0710  00A4               	movwf	??_sprintf
  2977  0711  0824               	movf	??_sprintf,w
  2978  0712  07AD               	addwf	sprintf@sp,f
  2979  0713  2EDA               	goto	l1355
  2980  0714                     l1359:	
  2981                           ;doprnt.c: 1525: }
  2982                           ;doprnt.c: 1533: }
  2983                           ;doprnt.c: 1535: alldone:
  2984                           
  2985                           
  2986                           ;doprnt.c: 1538: *sp = 0;
  2987  0714  082D               	movf	sprintf@sp,w
  2988  0715  0086               	movwf	6
  2989  0716  0187               	clrf	7
  2990  0717  0181               	clrf	1
  2991  0718  0008               	return
  2992  0719                     __end_of_sprintf:	
  2993                           ;doprnt.c: 1540: return 0;
  2994                           ;	Return value of _sprintf is never used
  2995                           
  2996                           
  2997                           	psect	text2
  2998  04D9                     __ptext2:	
  2999 ;; *************** function ___lwmod *****************
  3000 ;; Defined at:
  3001 ;;		line 6 in file "C:\Program Files (x86)\Microchip\xc8\v1.44\sources\common\lwmod.c"
  3002 ;; Parameters:    Size  Location     Type
  3003 ;;  divisor         2    8[COMMON] unsigned int 
  3004 ;;  dividend        2   10[COMMON] unsigned int 
  3005 ;; Auto vars:     Size  Location     Type
  3006 ;;  counter         1   13[COMMON] unsigned char 
  3007 ;; Return value:  Size  Location     Type
  3008 ;;                  2    8[COMMON] unsigned int 
  3009 ;; Registers used:
  3010 ;;		wreg, status,2, status,0
  3011 ;; Tracked objects:
  3012 ;;		On entry : 0/0
  3013 ;;		On exit  : 0/0
  3014 ;;		Unchanged: 0/0
  3015 ;; Data sizes:     COMMON   BANK0   BANK1   BANK2   BANK3   BANK4
  3016 ;;      Params:         4       0       0       0       0       0
  3017 ;;      Locals:         1       0       0       0       0       0
  3018 ;;      Temps:          1       0       0       0       0       0
  3019 ;;      Totals:         6       0       0       0       0       0
  3020 ;;Total ram usage:        6 bytes
  3021 ;; Hardware stack levels used:    1
  3022 ;; This function calls:
  3023 ;;		Nothing
  3024 ;; This function is called by:
  3025 ;;		_sprintf
  3026 ;; This function uses a non-reentrant model
  3027 ;;
  3028                           
  3029                           
  3030                           ;psect for function ___lwmod
  3031  04D9                     ___lwmod:	
  3032                           
  3033                           ;incstack = 0
  3034                           ; Regs used in ___lwmod: [wreg+status,2+status,0]
  3035  04D9  0878               	movf	___lwmod@divisor,w
  3036  04DA  0479               	iorwf	___lwmod@divisor+1,w
  3037  04DB  1903               	btfsc	3,2
  3038  04DC  2D00               	goto	l1199
  3039  04DD  01FD               	clrf	___lwmod@counter
  3040  04DE  0AFD               	incf	___lwmod@counter,f
  3041  04DF                     l1189:	
  3042  04DF  1BF9               	btfsc	___lwmod@divisor+1,7
  3043  04E0  2CEB               	goto	l1191
  3044  04E1  3001               	movlw	1
  3045  04E2                     u695:	
  3046  04E2  35F8               	lslf	___lwmod@divisor,f
  3047  04E3  0DF9               	rlf	___lwmod@divisor+1,f
  3048  04E4  0B89               	decfsz	9,f
  3049  04E5  2CE2               	goto	u695
  3050  04E6  3001               	movlw	1
  3051  04E7  00FC               	movwf	??___lwmod
  3052  04E8  087C               	movf	??___lwmod,w
  3053  04E9  07FD               	addwf	___lwmod@counter,f
  3054  04EA  2CDF               	goto	l1189
  3055  04EB                     l1191:	
  3056  04EB  0879               	movf	___lwmod@divisor+1,w
  3057  04EC  027B               	subwf	___lwmod@dividend+1,w
  3058  04ED  1D03               	skipz
  3059  04EE  2CF1               	goto	u715
  3060  04EF  0878               	movf	___lwmod@divisor,w
  3061  04F0  027A               	subwf	___lwmod@dividend,w
  3062  04F1                     u715:	
  3063  04F1  1C03               	skipc
  3064  04F2  2CF7               	goto	l1195
  3065  04F3  0878               	movf	___lwmod@divisor,w
  3066  04F4  02FA               	subwf	___lwmod@dividend,f
  3067  04F5  0879               	movf	___lwmod@divisor+1,w
  3068  04F6  3BFB               	subwfb	___lwmod@dividend+1,f
  3069  04F7                     l1195:	
  3070  04F7  3001               	movlw	1
  3071  04F8                     u725:	
  3072  04F8  36F9               	lsrf	___lwmod@divisor+1,f
  3073  04F9  0CF8               	rrf	___lwmod@divisor,f
  3074  04FA  0B89               	decfsz	9,f
  3075  04FB  2CF8               	goto	u725
  3076  04FC  3001               	movlw	1
  3077  04FD  02FD               	subwf	___lwmod@counter,f
  3078  04FE  1D03               	btfss	3,2
  3079  04FF  2CEB               	goto	l1191
  3080  0500                     l1199:	
  3081  0500  087B               	movf	___lwmod@dividend+1,w
  3082  0501  00F9               	movwf	?___lwmod+1
  3083  0502  087A               	movf	___lwmod@dividend,w
  3084  0503  00F8               	movwf	?___lwmod
  3085  0504  0008               	return
  3086  0505                     __end_of___lwmod:	
  3087                           
  3088                           	psect	text3
  3089  0505                     __ptext3:	
  3090 ;; *************** function ___lwdiv *****************
  3091 ;; Defined at:
  3092 ;;		line 6 in file "C:\Program Files (x86)\Microchip\xc8\v1.44\sources\common\lwdiv.c"
  3093 ;; Parameters:    Size  Location     Type
  3094 ;;  divisor         2    0[COMMON] unsigned int 
  3095 ;;  dividend        2    2[COMMON] unsigned int 
  3096 ;; Auto vars:     Size  Location     Type
  3097 ;;  quotient        2    5[COMMON] unsigned int 
  3098 ;;  counter         1    7[COMMON] unsigned char 
  3099 ;; Return value:  Size  Location     Type
  3100 ;;                  2    0[COMMON] unsigned int 
  3101 ;; Registers used:
  3102 ;;		wreg, status,2, status,0
  3103 ;; Tracked objects:
  3104 ;;		On entry : 0/0
  3105 ;;		On exit  : 0/0
  3106 ;;		Unchanged: 0/0
  3107 ;; Data sizes:     COMMON   BANK0   BANK1   BANK2   BANK3   BANK4
  3108 ;;      Params:         4       0       0       0       0       0
  3109 ;;      Locals:         3       0       0       0       0       0
  3110 ;;      Temps:          1       0       0       0       0       0
  3111 ;;      Totals:         8       0       0       0       0       0
  3112 ;;Total ram usage:        8 bytes
  3113 ;; Hardware stack levels used:    1
  3114 ;; This function calls:
  3115 ;;		Nothing
  3116 ;; This function is called by:
  3117 ;;		_sprintf
  3118 ;; This function uses a non-reentrant model
  3119 ;;
  3120                           
  3121                           
  3122                           ;psect for function ___lwdiv
  3123  0505                     ___lwdiv:	
  3124                           
  3125                           ;incstack = 0
  3126                           ; Regs used in ___lwdiv: [wreg+status,2+status,0]
  3127  0505  01F5               	clrf	___lwdiv@quotient
  3128  0506  01F6               	clrf	___lwdiv@quotient+1
  3129  0507  0870               	movf	___lwdiv@divisor,w
  3130  0508  0471               	iorwf	___lwdiv@divisor+1,w
  3131  0509  1903               	btfsc	3,2
  3132  050A  2D34               	goto	l1177
  3133  050B  01F7               	clrf	___lwdiv@counter
  3134  050C  0AF7               	incf	___lwdiv@counter,f
  3135  050D                     l1165:	
  3136  050D  1BF1               	btfsc	___lwdiv@divisor+1,7
  3137  050E  2D19               	goto	l1167
  3138  050F  3001               	movlw	1
  3139  0510                     u625:	
  3140  0510  35F0               	lslf	___lwdiv@divisor,f
  3141  0511  0DF1               	rlf	___lwdiv@divisor+1,f
  3142  0512  0B89               	decfsz	9,f
  3143  0513  2D10               	goto	u625
  3144  0514  3001               	movlw	1
  3145  0515  00F4               	movwf	??___lwdiv
  3146  0516  0874               	movf	??___lwdiv,w
  3147  0517  07F7               	addwf	___lwdiv@counter,f
  3148  0518  2D0D               	goto	l1165
  3149  0519                     l1167:	
  3150  0519  3001               	movlw	1
  3151  051A                     u645:	
  3152  051A  35F5               	lslf	___lwdiv@quotient,f
  3153  051B  0DF6               	rlf	___lwdiv@quotient+1,f
  3154  051C  0B89               	decfsz	9,f
  3155  051D  2D1A               	goto	u645
  3156  051E  0871               	movf	___lwdiv@divisor+1,w
  3157  051F  0273               	subwf	___lwdiv@dividend+1,w
  3158  0520  1D03               	skipz
  3159  0521  2D24               	goto	u655
  3160  0522  0870               	movf	___lwdiv@divisor,w
  3161  0523  0272               	subwf	___lwdiv@dividend,w
  3162  0524                     u655:	
  3163  0524  1C03               	skipc
  3164  0525  2D2B               	goto	l1173
  3165  0526  0870               	movf	___lwdiv@divisor,w
  3166  0527  02F2               	subwf	___lwdiv@dividend,f
  3167  0528  0871               	movf	___lwdiv@divisor+1,w
  3168  0529  3BF3               	subwfb	___lwdiv@dividend+1,f
  3169  052A  1475               	bsf	___lwdiv@quotient,0
  3170  052B                     l1173:	
  3171  052B  3001               	movlw	1
  3172  052C                     u665:	
  3173  052C  36F1               	lsrf	___lwdiv@divisor+1,f
  3174  052D  0CF0               	rrf	___lwdiv@divisor,f
  3175  052E  0B89               	decfsz	9,f
  3176  052F  2D2C               	goto	u665
  3177  0530  3001               	movlw	1
  3178  0531  02F7               	subwf	___lwdiv@counter,f
  3179  0532  1D03               	btfss	3,2
  3180  0533  2D19               	goto	l1167
  3181  0534                     l1177:	
  3182  0534  0876               	movf	___lwdiv@quotient+1,w
  3183  0535  00F1               	movwf	?___lwdiv+1
  3184  0536  0875               	movf	___lwdiv@quotient,w
  3185  0537  00F0               	movwf	?___lwdiv
  3186  0538  0008               	return
  3187  0539                     __end_of___lwdiv:	
  3188                           
  3189                           	psect	text4
  3190  04AD                     __ptext4:	
  3191 ;; *************** function _lcd_sil *****************
  3192 ;; Defined at:
  3193 ;;		line 282 in file "nokia5110.c"
  3194 ;; Parameters:    Size  Location     Type
  3195 ;;		None
  3196 ;; Auto vars:     Size  Location     Type
  3197 ;;  i               2    8[COMMON] int 
  3198 ;; Return value:  Size  Location     Type
  3199 ;;                  1    wreg      void 
  3200 ;; Registers used:
  3201 ;;		wreg, status,2, status,0, pclath, cstack
  3202 ;; Tracked objects:
  3203 ;;		On entry : 0/0
  3204 ;;		On exit  : 0/0
  3205 ;;		Unchanged: 0/0
  3206 ;; Data sizes:     COMMON   BANK0   BANK1   BANK2   BANK3   BANK4
  3207 ;;      Params:         0       0       0       0       0       0
  3208 ;;      Locals:         2       0       0       0       0       0
  3209 ;;      Temps:          1       0       0       0       0       0
  3210 ;;      Totals:         3       0       0       0       0       0
  3211 ;;Total ram usage:        3 bytes
  3212 ;; Hardware stack levels used:    1
  3213 ;; Hardware stack levels required when called:    2
  3214 ;; This function calls:
  3215 ;;		_lcd_git
  3216 ;;		_lcd_veriyaz
  3217 ;; This function is called by:
  3218 ;;		_main
  3219 ;; This function uses a non-reentrant model
  3220 ;;
  3221                           
  3222                           
  3223                           ;psect for function _lcd_sil
  3224  04AD                     _lcd_sil:	
  3225                           
  3226                           ;nokia5110.c: 284: int i;
  3227                           ;nokia5110.c: 285: lcd_git(0,0);
  3228                           
  3229                           ;incstack = 0
  3230                           ; Regs used in _lcd_sil: [wreg+status,2+status,0+pclath+cstack]
  3231  04AD  01F4               	clrf	lcd_git@sutun
  3232  04AE  3000               	movlw	0
  3233  04AF  3183  23FE  3184   	fcall	_lcd_git
  3234                           
  3235                           ;nokia5110.c: 287: LATB3=1;
  3236  04B2  0022               	movlb	2	; select bank2
  3237  04B3  158D               	bsf	13,3	;volatile
  3238                           
  3239                           ;nokia5110.c: 288: for(i=0;i<504;i++)
  3240  04B4  01F8               	clrf	lcd_sil@i
  3241  04B5  01F9               	clrf	lcd_sil@i+1
  3242  04B6  0879               	movf	lcd_sil@i+1,w
  3243  04B7  3A80               	xorlw	128
  3244  04B8  00F7               	movwf	??_lcd_sil
  3245  04B9  3081               	movlw	129
  3246  04BA  0277               	subwf	??_lcd_sil,w
  3247  04BB  1D03               	skipz
  3248  04BC  2CBF               	goto	u745
  3249  04BD  30F8               	movlw	248
  3250  04BE  0278               	subwf	lcd_sil@i,w
  3251  04BF                     u745:	
  3252  04BF  1803               	btfsc	3,0
  3253  04C0  2CD4               	goto	l1225
  3254  04C1                     l1219:	
  3255                           
  3256                           ;nokia5110.c: 289: {
  3257                           ;nokia5110.c: 290: lcd_veriyaz(0x00);
  3258  04C1  3000               	movlw	0
  3259  04C2  3184  2462  3184   	fcall	_lcd_veriyaz
  3260  04C5  3001               	movlw	1
  3261  04C6  07F8               	addwf	lcd_sil@i,f
  3262  04C7  3000               	movlw	0
  3263  04C8  3DF9               	addwfc	lcd_sil@i+1,f
  3264  04C9  0879               	movf	lcd_sil@i+1,w
  3265  04CA  3A80               	xorlw	128
  3266  04CB  00F7               	movwf	??_lcd_sil
  3267  04CC  3081               	movlw	129
  3268  04CD  0277               	subwf	??_lcd_sil,w
  3269  04CE  1D03               	skipz
  3270  04CF  2CD2               	goto	u755
  3271  04D0  30F8               	movlw	248
  3272  04D1  0278               	subwf	lcd_sil@i,w
  3273  04D2                     u755:	
  3274  04D2  1C03               	skipc
  3275  04D3  2CC1               	goto	l1219
  3276  04D4                     l1225:	
  3277                           
  3278                           ;nokia5110.c: 291: }
  3279                           ;nokia5110.c: 293: lcd_git(0,0);
  3280  04D4  01F4               	clrf	lcd_git@sutun
  3281  04D5  3000               	movlw	0
  3282  04D6  3183  23FE         	fcall	_lcd_git
  3283  04D8  0008               	return
  3284  04D9                     __end_of_lcd_sil:	
  3285                           
  3286                           	psect	text5
  3287  0719                     __ptext5:	
  3288 ;; *************** function _lcd_sayiyaz *****************
  3289 ;; Defined at:
  3290 ;;		line 389 in file "nokia5110.c"
  3291 ;; Parameters:    Size  Location     Type
  3292 ;;  satir           1    wreg     unsigned char 
  3293 ;;  sutun           1    7[COMMON] unsigned char 
  3294 ;;  sayi            2    8[COMMON] PTR unsigned char 
  3295 ;;		 -> main@buf(6), STR_3(7), STR_2(7), 
  3296 ;;  font            1   10[COMMON] unsigned char 
  3297 ;; Auto vars:     Size  Location     Type
  3298 ;;  satir           1    0[BANK0 ] unsigned char 
  3299 ;;  adres           2    4[BANK0 ] unsigned int 
  3300 ;;  sayi_t          2    2[BANK0 ] PTR unsigned char 
  3301 ;;		 -> main@buf(6), STR_3(7), STR_2(7), 
  3302 ;;  sira            1    8[BANK0 ] unsigned char 
  3303 ;;  rakam           1    7[BANK0 ] unsigned char 
  3304 ;;  i               1    6[BANK0 ] unsigned char 
  3305 ;;  siramax         1    1[BANK0 ] unsigned char 
  3306 ;; Return value:  Size  Location     Type
  3307 ;;                  1    wreg      void 
  3308 ;; Registers used:
  3309 ;;		wreg, fsr0l, fsr0h, status,2, status,0, pclath, cstack
  3310 ;; Tracked objects:
  3311 ;;		On entry : 0/0
  3312 ;;		On exit  : 0/0
  3313 ;;		Unchanged: 0/0
  3314 ;; Data sizes:     COMMON   BANK0   BANK1   BANK2   BANK3   BANK4
  3315 ;;      Params:         4       0       0       0       0       0
  3316 ;;      Locals:         0       9       0       0       0       0
  3317 ;;      Temps:          1       0       0       0       0       0
  3318 ;;      Totals:         5       9       0       0       0       0
  3319 ;;Total ram usage:       14 bytes
  3320 ;; Hardware stack levels used:    1
  3321 ;; Hardware stack levels required when called:    2
  3322 ;; This function calls:
  3323 ;;		___wmul
  3324 ;;		_lcd_git
  3325 ;;		_lcd_veriyaz
  3326 ;; This function is called by:
  3327 ;;		_main
  3328 ;; This function uses a non-reentrant model
  3329 ;;
  3330                           
  3331                           
  3332                           ;psect for function _lcd_sayiyaz
  3333  0719                     _lcd_sayiyaz:	
  3334                           
  3335                           ;incstack = 0
  3336                           ; Regs used in _lcd_sayiyaz: [wreg-fsr0h+status,2+status,0+pclath+cstack]
  3337                           ;lcd_sayiyaz@satir stored from wreg
  3338  0719  0020               	movlb	0	; select bank0
  3339  071A  00A0               	movwf	lcd_sayiyaz@satir
  3340                           
  3341                           ;nokia5110.c: 391: char * sayi_t;
  3342                           ;nokia5110.c: 392: char siramax,sira,i;
  3343                           ;nokia5110.c: 393: char rakam;
  3344                           ;nokia5110.c: 394: unsigned int adres;
  3345                           ;nokia5110.c: 396: if(font==0)
  3346  071B  087A               	movf	lcd_sayiyaz@font,w
  3347  071C  1D03               	btfss	3,2
  3348  071D  2F20               	goto	l1239
  3349                           
  3350                           ;nokia5110.c: 397: siramax=2;
  3351  071E  3002               	movlw	2
  3352  071F  2F21               	goto	L1
  3353  0720                     l1239:	
  3354                           
  3355                           ;nokia5110.c: 398: else
  3356                           ;nokia5110.c: 399: siramax=3;
  3357  0720  3003               	movlw	3
  3358  0721                     L1:	
  3359  0721  00FB               	movwf	??_lcd_sayiyaz
  3360  0722  087B               	movf	??_lcd_sayiyaz,w
  3361  0723  00A1               	movwf	lcd_sayiyaz@siramax
  3362                           
  3363                           ;nokia5110.c: 401: for(sira=0;sira<siramax;sira++)
  3364  0724  01A8               	clrf	lcd_sayiyaz@sira
  3365  0725                     l1303:	
  3366  0725  0821               	movf	lcd_sayiyaz@siramax,w
  3367  0726  0228               	subwf	lcd_sayiyaz@sira,w
  3368  0727  1803               	btfsc	3,0
  3369  0728  0008               	return
  3370                           
  3371                           ;nokia5110.c: 402: {
  3372                           ;nokia5110.c: 404: lcd_git(satir+sira,sutun);
  3373  0729  0877               	movf	lcd_sayiyaz@sutun,w
  3374  072A  00FB               	movwf	??_lcd_sayiyaz
  3375  072B  087B               	movf	??_lcd_sayiyaz,w
  3376  072C  00F4               	movwf	lcd_git@sutun
  3377  072D  0820               	movf	lcd_sayiyaz@satir,w
  3378  072E  0728               	addwf	lcd_sayiyaz@sira,w
  3379  072F  3183  23FE  3187   	fcall	_lcd_git
  3380                           
  3381                           ;nokia5110.c: 405: sayi_t=sayi;
  3382  0732  0879               	movf	lcd_sayiyaz@sayi+1,w
  3383  0733  0020               	movlb	0	; select bank0
  3384  0734  00A3               	movwf	lcd_sayiyaz@sayi_t+1
  3385  0735  0878               	movf	lcd_sayiyaz@sayi,w
  3386  0736  00A2               	movwf	lcd_sayiyaz@sayi_t
  3387  0737                     l1247:	
  3388                           ;nokia5110.c: 407: do {
  3389                           
  3390                           
  3391                           ;nokia5110.c: 409: LATB3 = 1;
  3392  0737  0022               	movlb	2	; select bank2
  3393  0738  158D               	bsf	13,3	;volatile
  3394                           
  3395                           ;nokia5110.c: 410: rakam=*sayi_t++;
  3396  0739  0020               	movlb	0	; select bank0
  3397  073A  0822               	movf	lcd_sayiyaz@sayi_t,w
  3398  073B  0084               	movwf	4
  3399  073C  0823               	movf	lcd_sayiyaz@sayi_t+1,w
  3400  073D  0085               	movwf	5
  3401  073E  0800               	movf	0,w	;code access
  3402  073F  00FB               	movwf	??_lcd_sayiyaz
  3403  0740  087B               	movf	??_lcd_sayiyaz,w
  3404  0741  00A7               	movwf	lcd_sayiyaz@rakam
  3405  0742  3001               	movlw	1
  3406  0743  07A2               	addwf	lcd_sayiyaz@sayi_t,f
  3407  0744  3000               	movlw	0
  3408  0745  3DA3               	addwfc	lcd_sayiyaz@sayi_t+1,f
  3409                           
  3410                           ;nokia5110.c: 412: if (font == 0)
  3411  0746  087A               	movf	lcd_sayiyaz@font,w
  3412  0747  1D03               	btfss	3,2
  3413  0748  2F90               	goto	l1275
  3414                           
  3415                           ;nokia5110.c: 413: {
  3416                           ;nokia5110.c: 414: if (sira == 0)
  3417  0749  0828               	movf	lcd_sayiyaz@sira,w
  3418  074A  1D03               	btfss	3,2
  3419  074B  2F60               	goto	l1259
  3420                           
  3421                           ;nokia5110.c: 415: adres = (rakam - '-')*24;
  3422  074C  0827               	movf	lcd_sayiyaz@rakam,w
  3423  074D  3ED3               	addlw	211
  3424  074E  00F0               	movwf	___wmul@multiplier
  3425  074F  30FF               	movlw	255
  3426  0750  1803               	skipnc
  3427  0751  3000               	movlw	0
  3428  0752  00F1               	movwf	___wmul@multiplier+1
  3429  0753  3018               	movlw	24
  3430  0754  00F2               	movwf	___wmul@multiplicand
  3431  0755  3000               	movlw	0
  3432  0756  00F3               	movwf	___wmul@multiplicand+1
  3433  0757  3184  242A  3187   	fcall	___wmul
  3434  075A  0871               	movf	?___wmul+1,w
  3435  075B  0020               	movlb	0	; select bank0
  3436  075C  00A5               	movwf	lcd_sayiyaz@adres+1
  3437  075D  0870               	movf	?___wmul,w
  3438  075E  00A4               	movwf	lcd_sayiyaz@adres
  3439  075F  2F75               	goto	l1261
  3440  0760                     l1259:	
  3441                           
  3442                           ;nokia5110.c: 416: else
  3443                           ;nokia5110.c: 417: adres = (rakam - '-')*24 + 12;
  3444  0760  0827               	movf	lcd_sayiyaz@rakam,w
  3445  0761  3ED3               	addlw	211
  3446  0762  00F0               	movwf	___wmul@multiplier
  3447  0763  30FF               	movlw	255
  3448  0764  1803               	skipnc
  3449  0765  3000               	movlw	0
  3450  0766  00F1               	movwf	___wmul@multiplier+1
  3451  0767  3018               	movlw	24
  3452  0768  00F2               	movwf	___wmul@multiplicand
  3453  0769  3000               	movlw	0
  3454  076A  00F3               	movwf	___wmul@multiplicand+1
  3455  076B  3184  242A  3187   	fcall	___wmul
  3456  076E  0870               	movf	?___wmul,w
  3457  076F  3E0C               	addlw	12
  3458  0770  0020               	movlb	0	; select bank0
  3459  0771  00A4               	movwf	lcd_sayiyaz@adres
  3460  0772  3000               	movlw	0
  3461  0773  3D71               	addwfc	?___wmul+1,w
  3462  0774  00A5               	movwf	lcd_sayiyaz@adres+1
  3463  0775                     l1261:	
  3464                           
  3465                           ;nokia5110.c: 419: for (i = 0; i < 12; i++) {
  3466  0775  01A6               	clrf	lcd_sayiyaz@i
  3467  0776                     L3:	
  3468  0776  300C               	movlw	12
  3469  0777  0226               	subwf	lcd_sayiyaz@i,w
  3470  0778  1803               	btfsc	3,0
  3471  0779  2FEE               	goto	l1299
  3472                           
  3473                           ;nokia5110.c: 420: lcd_veriyaz(rakamtablo[adres++]);
  3474  077A  0825               	movf	lcd_sayiyaz@adres+1,w
  3475  077B  0085               	movwf	5
  3476  077C  0824               	movf	lcd_sayiyaz@adres,w
  3477  077D  0084               	movwf	4
  3478  077E  3039               	movlw	low (_rakamtablo| (0+32768))
  3479  077F  0784               	addwf	4,f
  3480  0780  308C               	movlw	high (_rakamtablo| (0+32768))
  3481  0781  3D85               	addwfc	5,f
  3482  0782  0800               	movf	0,w	;code access
  3483  0783  3184  2462  3187   	fcall	_lcd_veriyaz
  3484  0786  3001               	movlw	1
  3485  0787  0020               	movlb	0	; select bank0
  3486  0788  07A4               	addwf	lcd_sayiyaz@adres,f
  3487  0789  3000               	movlw	0
  3488  078A  3DA5               	addwfc	lcd_sayiyaz@adres+1,f
  3489  078B  3001               	movlw	1
  3490  078C  00FB               	movwf	??_lcd_sayiyaz
  3491  078D  087B               	movf	??_lcd_sayiyaz,w
  3492  078E  07A6               	addwf	lcd_sayiyaz@i,f
  3493  078F  2F76               	goto	L3
  3494  0790                     l1275:	
  3495                           ;nokia5110.c: 421: }
  3496                           ;nokia5110.c: 422: }
  3497                           
  3498                           
  3499                           ;nokia5110.c: 423: else
  3500                           ;nokia5110.c: 424: {
  3501                           ;nokia5110.c: 425: if (sira == 0)
  3502  0790  0828               	movf	lcd_sayiyaz@sira,w
  3503  0791  1D03               	btfss	3,2
  3504  0792  2FA7               	goto	l1279
  3505                           
  3506                           ;nokia5110.c: 426: adres = (rakam - '-')*42;
  3507  0793  0827               	movf	lcd_sayiyaz@rakam,w
  3508  0794  3ED3               	addlw	211
  3509  0795  00F0               	movwf	___wmul@multiplier
  3510  0796  30FF               	movlw	255
  3511  0797  1803               	skipnc
  3512  0798  3000               	movlw	0
  3513  0799  00F1               	movwf	___wmul@multiplier+1
  3514  079A  302A               	movlw	42
  3515  079B  00F2               	movwf	___wmul@multiplicand
  3516  079C  3000               	movlw	0
  3517  079D  00F3               	movwf	___wmul@multiplicand+1
  3518  079E  3184  242A  3187   	fcall	___wmul
  3519  07A1  0871               	movf	?___wmul+1,w
  3520  07A2  0020               	movlb	0	; select bank0
  3521  07A3  00A5               	movwf	lcd_sayiyaz@adres+1
  3522  07A4  0870               	movf	?___wmul,w
  3523  07A5  00A4               	movwf	lcd_sayiyaz@adres
  3524  07A6  2FD0               	goto	l1285
  3525  07A7                     l1279:	
  3526                           
  3527                           ;nokia5110.c: 427: else if (sira == 1)
  3528  07A7  0328               	decf	lcd_sayiyaz@sira,w
  3529  07A8  1D03               	btfss	3,2
  3530  07A9  2FBB               	goto	l1283
  3531                           
  3532                           ;nokia5110.c: 428: adres = (rakam - '-')*42 + 14;
  3533  07AA  0827               	movf	lcd_sayiyaz@rakam,w
  3534  07AB  3ED3               	addlw	211
  3535  07AC  00F0               	movwf	___wmul@multiplier
  3536  07AD  30FF               	movlw	255
  3537  07AE  1803               	skipnc
  3538  07AF  3000               	movlw	0
  3539  07B0  00F1               	movwf	___wmul@multiplier+1
  3540  07B1  302A               	movlw	42
  3541  07B2  00F2               	movwf	___wmul@multiplicand
  3542  07B3  3000               	movlw	0
  3543  07B4  00F3               	movwf	___wmul@multiplicand+1
  3544  07B5  3184  242A  3187   	fcall	___wmul
  3545  07B8  0870               	movf	?___wmul,w
  3546  07B9  3E0E               	addlw	14
  3547  07BA  2FCB               	goto	L2
  3548  07BB                     l1283:	
  3549                           
  3550                           ;nokia5110.c: 429: else
  3551                           ;nokia5110.c: 430: adres = (rakam - '-')*42 + 28;
  3552  07BB  0827               	movf	lcd_sayiyaz@rakam,w
  3553  07BC  3ED3               	addlw	211
  3554  07BD  00F0               	movwf	___wmul@multiplier
  3555  07BE  30FF               	movlw	255
  3556  07BF  1803               	skipnc
  3557  07C0  3000               	movlw	0
  3558  07C1  00F1               	movwf	___wmul@multiplier+1
  3559  07C2  302A               	movlw	42
  3560  07C3  00F2               	movwf	___wmul@multiplicand
  3561  07C4  3000               	movlw	0
  3562  07C5  00F3               	movwf	___wmul@multiplicand+1
  3563  07C6  3184  242A  3187   	fcall	___wmul
  3564  07C9  0870               	movf	?___wmul,w
  3565  07CA  3E1C               	addlw	28
  3566  07CB                     L2:	
  3567  07CB  0020               	movlb	0	; select bank0
  3568  07CC  00A4               	movwf	lcd_sayiyaz@adres
  3569  07CD  3000               	movlw	0
  3570  07CE  3D71               	addwfc	?___wmul+1,w
  3571  07CF  00A5               	movwf	lcd_sayiyaz@adres+1
  3572  07D0                     l1285:	
  3573                           
  3574                           ;nokia5110.c: 432: for (i = 0; i < 14; i++) {
  3575  07D0  01A6               	clrf	lcd_sayiyaz@i
  3576  07D1  300E               	movlw	14
  3577  07D2  0226               	subwf	lcd_sayiyaz@i,w
  3578  07D3  1803               	btfsc	3,0
  3579  07D4  2FEE               	goto	l1299
  3580  07D5                     l1291:	
  3581                           
  3582                           ;nokia5110.c: 433: lcd_veriyaz(rakamtablo2[adres++]);
  3583  07D5  0825               	movf	lcd_sayiyaz@adres+1,w
  3584  07D6  0085               	movwf	5
  3585  07D7  0824               	movf	lcd_sayiyaz@adres,w
  3586  07D8  0084               	movwf	4
  3587  07D9  3000               	movlw	low (_rakamtablo2| (0+32768))
  3588  07DA  0784               	addwf	4,f
  3589  07DB  3088               	movlw	high (_rakamtablo2| (0+32768))
  3590  07DC  3D85               	addwfc	5,f
  3591  07DD  0800               	movf	0,w	;code access
  3592  07DE  3184  2462  3187   	fcall	_lcd_veriyaz
  3593  07E1  3001               	movlw	1
  3594  07E2  0020               	movlb	0	; select bank0
  3595  07E3  07A4               	addwf	lcd_sayiyaz@adres,f
  3596  07E4  3000               	movlw	0
  3597  07E5  3DA5               	addwfc	lcd_sayiyaz@adres+1,f
  3598  07E6  3001               	movlw	1
  3599  07E7  00FB               	movwf	??_lcd_sayiyaz
  3600  07E8  087B               	movf	??_lcd_sayiyaz,w
  3601  07E9  07A6               	addwf	lcd_sayiyaz@i,f
  3602  07EA  300E               	movlw	14
  3603  07EB  0226               	subwf	lcd_sayiyaz@i,w
  3604  07EC  1C03               	skipc
  3605  07ED  2FD5               	goto	l1291
  3606  07EE                     l1299:	
  3607                           
  3608                           ;nokia5110.c: 434: }
  3609                           ;nokia5110.c: 435: }
  3610                           ;nokia5110.c: 438: } while (*sayi_t);
  3611  07EE  0822               	movf	lcd_sayiyaz@sayi_t,w
  3612  07EF  0084               	movwf	4
  3613  07F0  0823               	movf	lcd_sayiyaz@sayi_t+1,w
  3614  07F1  0085               	movwf	5
  3615  07F2  0012               	moviw fsr0++
  3616  07F3  1D03               	btfss	3,2
  3617  07F4  2F37               	goto	l1247
  3618  07F5  3001               	movlw	1
  3619  07F6  00FB               	movwf	??_lcd_sayiyaz
  3620  07F7  087B               	movf	??_lcd_sayiyaz,w
  3621  07F8  07A8               	addwf	lcd_sayiyaz@sira,f
  3622  07F9  2F25               	goto	l1303
  3623  07FA                     __end_of_lcd_sayiyaz:	
  3624                           
  3625                           	psect	text6
  3626  0445                     __ptext6:	
  3627 ;; *************** function _lcd_mesajyaz *****************
  3628 ;; Defined at:
  3629 ;;		line 200 in file "nokia5110.c"
  3630 ;; Parameters:    Size  Location     Type
  3631 ;;  satir           1    wreg     unsigned char 
  3632 ;;  sutun           1    9[COMMON] unsigned char 
  3633 ;;  mesaj           2   10[COMMON] PTR const unsigned char 
  3634 ;;		 -> STR_1(14), 
  3635 ;; Auto vars:     Size  Location     Type
  3636 ;;  satir           1   13[COMMON] unsigned char 
  3637 ;; Return value:  Size  Location     Type
  3638 ;;                  1    wreg      void 
  3639 ;; Registers used:
  3640 ;;		wreg, fsr0l, fsr0h, status,2, status,0, pclath, cstack
  3641 ;; Tracked objects:
  3642 ;;		On entry : 0/0
  3643 ;;		On exit  : 0/0
  3644 ;;		Unchanged: 0/0
  3645 ;; Data sizes:     COMMON   BANK0   BANK1   BANK2   BANK3   BANK4
  3646 ;;      Params:         3       0       0       0       0       0
  3647 ;;      Locals:         1       0       0       0       0       0
  3648 ;;      Temps:          1       0       0       0       0       0
  3649 ;;      Totals:         5       0       0       0       0       0
  3650 ;;Total ram usage:        5 bytes
  3651 ;; Hardware stack levels used:    1
  3652 ;; Hardware stack levels required when called:    2
  3653 ;; This function calls:
  3654 ;;		_lcd_git
  3655 ;;		_lcd_harfyaz
  3656 ;; This function is called by:
  3657 ;;		_main
  3658 ;; This function uses a non-reentrant model
  3659 ;;
  3660                           
  3661                           
  3662                           ;psect for function _lcd_mesajyaz
  3663  0445                     _lcd_mesajyaz:	
  3664                           
  3665                           ;incstack = 0
  3666                           ; Regs used in _lcd_mesajyaz: [wreg-fsr0h+status,2+status,0+pclath+cstack]
  3667                           ;lcd_mesajyaz@satir stored from wreg
  3668  0445  00FD               	movwf	lcd_mesajyaz@satir
  3669                           
  3670                           ;nokia5110.c: 202: lcd_git(satir, sutun);
  3671  0446  0879               	movf	lcd_mesajyaz@sutun,w
  3672  0447  00FC               	movwf	??_lcd_mesajyaz
  3673  0448  087C               	movf	??_lcd_mesajyaz,w
  3674  0449  00F4               	movwf	lcd_git@sutun
  3675  044A  087D               	movf	lcd_mesajyaz@satir,w
  3676  044B  3183  23FE  3184   	fcall	_lcd_git
  3677  044E                     l1229:	
  3678                           ;nokia5110.c: 203: do {
  3679                           
  3680                           
  3681                           ;nokia5110.c: 204: lcd_harfyaz(*mesaj++);
  3682  044E  087A               	movf	lcd_mesajyaz@mesaj,w
  3683  044F  0084               	movwf	4
  3684  0450  087B               	movf	lcd_mesajyaz@mesaj+1,w
  3685  0451  0085               	movwf	5
  3686  0452  0800               	movf	0,w	;code access
  3687  0453  3185  259E  3184   	fcall	_lcd_harfyaz
  3688  0456  3001               	movlw	1
  3689  0457  07FA               	addwf	lcd_mesajyaz@mesaj,f
  3690  0458  3000               	movlw	0
  3691  0459  3DFB               	addwfc	lcd_mesajyaz@mesaj+1,f
  3692                           
  3693                           ;nokia5110.c: 205: } while (*mesaj);
  3694  045A  087A               	movf	lcd_mesajyaz@mesaj,w
  3695  045B  0084               	movwf	4
  3696  045C  087B               	movf	lcd_mesajyaz@mesaj+1,w
  3697  045D  0085               	movwf	5
  3698  045E  0012               	moviw fsr0++
  3699  045F  1903               	btfsc	3,2
  3700  0460  0008               	return
  3701  0461  2C4E               	goto	l1229
  3702  0462                     __end_of_lcd_mesajyaz:	
  3703                           
  3704                           	psect	text7
  3705  059E                     __ptext7:	
  3706 ;; *************** function _lcd_harfyaz *****************
  3707 ;; Defined at:
  3708 ;;		line 222 in file "nokia5110.c"
  3709 ;; Parameters:    Size  Location     Type
  3710 ;;  harf            1    wreg     unsigned char 
  3711 ;; Auto vars:     Size  Location     Type
  3712 ;;  harf            1    6[COMMON] unsigned char 
  3713 ;;  adres           2    7[COMMON] unsigned int 
  3714 ;; Return value:  Size  Location     Type
  3715 ;;                  1    wreg      void 
  3716 ;; Registers used:
  3717 ;;		wreg, fsr0l, fsr0h, status,2, status,0, pclath, cstack
  3718 ;; Tracked objects:
  3719 ;;		On entry : 0/0
  3720 ;;		On exit  : 0/0
  3721 ;;		Unchanged: 0/0
  3722 ;; Data sizes:     COMMON   BANK0   BANK1   BANK2   BANK3   BANK4
  3723 ;;      Params:         0       0       0       0       0       0
  3724 ;;      Locals:         3       0       0       0       0       0
  3725 ;;      Temps:          0       0       0       0       0       0
  3726 ;;      Totals:         3       0       0       0       0       0
  3727 ;;Total ram usage:        3 bytes
  3728 ;; Hardware stack levels used:    1
  3729 ;; Hardware stack levels required when called:    1
  3730 ;; This function calls:
  3731 ;;		___wmul
  3732 ;;		_lcd_veriyaz
  3733 ;; This function is called by:
  3734 ;;		_lcd_mesajyaz
  3735 ;;		_lcd_mesajyaz_cp
  3736 ;;		_putch
  3737 ;; This function uses a non-reentrant model
  3738 ;;
  3739                           
  3740                           
  3741                           ;psect for function _lcd_harfyaz
  3742  059E                     _lcd_harfyaz:	
  3743                           
  3744                           ;incstack = 0
  3745                           ; Regs used in _lcd_harfyaz: [wreg-fsr0h+status,2+status,0+pclath+cstack]
  3746                           ;lcd_harfyaz@harf stored from wreg
  3747  059E  00F6               	movwf	lcd_harfyaz@harf
  3748                           
  3749                           ;nokia5110.c: 224: unsigned int adres;
  3750                           ;nokia5110.c: 225: LATB3=1;
  3751  059F  0022               	movlb	2	; select bank2
  3752  05A0  158D               	bsf	13,3	;volatile
  3753                           
  3754                           ;nokia5110.c: 227: switch(harf)
  3755  05A1  2DD2               	goto	l1137
  3756  05A2                     l132:	
  3757                           ;nokia5110.c: 228: {
  3758                           ;nokia5110.c: 229: case 'Ç':
  3759                           
  3760                           
  3761                           ;nokia5110.c: 230: adres=475;
  3762  05A2  30DB               	movlw	219
  3763  05A3  2DB1               	goto	L10
  3764  05A4                     l134:	
  3765                           ;nokia5110.c: 232: case 'Ð':
  3766                           
  3767                           ;nokia5110.c: 231: break;
  3768                           
  3769                           
  3770                           ;nokia5110.c: 233: adres=480;
  3771  05A4  30E0               	movlw	224
  3772  05A5  2DB1               	goto	L10
  3773  05A6                     l135:	
  3774                           ;nokia5110.c: 235: case 'Ö':
  3775                           
  3776                           ;nokia5110.c: 234: break;
  3777                           
  3778                           
  3779                           ;nokia5110.c: 236: adres=485;
  3780  05A6  30E5               	movlw	229
  3781  05A7  2DB1               	goto	L10
  3782  05A8                     l136:	
  3783                           ;nokia5110.c: 238: case 'Ü':
  3784                           
  3785                           ;nokia5110.c: 237: break;
  3786                           
  3787                           
  3788                           ;nokia5110.c: 239: adres=490;
  3789  05A8  30EA               	movlw	234
  3790  05A9  2DB1               	goto	L10
  3791  05AA                     l137:	
  3792                           ;nokia5110.c: 241: case 'Ý':
  3793                           
  3794                           ;nokia5110.c: 240: break;
  3795                           
  3796                           
  3797                           ;nokia5110.c: 242: adres=495;
  3798  05AA  30EF               	movlw	239
  3799  05AB  2DB1               	goto	L10
  3800  05AC                     l138:	
  3801                           ;nokia5110.c: 244: case 'Þ':
  3802                           
  3803                           ;nokia5110.c: 243: break;
  3804                           
  3805                           
  3806                           ;nokia5110.c: 245: adres=500;
  3807  05AC  30F4               	movlw	244
  3808  05AD  2DB1               	goto	L10
  3809  05AE                     l139:	
  3810                           ;nokia5110.c: 247: case 'ç':
  3811                           
  3812                           ;nokia5110.c: 246: break;
  3813                           
  3814                           
  3815                           ;nokia5110.c: 248: adres=505;
  3816  05AE  30F9               	movlw	249
  3817  05AF  2DB1               	goto	L10
  3818  05B0                     l140:	
  3819                           ;nokia5110.c: 250: case 'ð':
  3820                           
  3821                           ;nokia5110.c: 249: break;
  3822                           
  3823                           
  3824                           ;nokia5110.c: 251: adres=510;
  3825  05B0  30FE               	movlw	254
  3826  05B1                     L10:	
  3827  05B1  00F7               	movwf	lcd_harfyaz@adres
  3828  05B2  3001               	movlw	1
  3829  05B3  2DBD               	goto	L14
  3830  05B4                     l141:	
  3831                           ;nokia5110.c: 253: case 'ö':
  3832                           
  3833                           ;nokia5110.c: 252: break;
  3834                           
  3835                           
  3836                           ;nokia5110.c: 254: adres=515;
  3837  05B4  3003               	movlw	3
  3838  05B5  2DBB               	goto	L15
  3839  05B6                     l142:	
  3840                           ;nokia5110.c: 256: case 'ü':
  3841                           
  3842                           ;nokia5110.c: 255: break;
  3843                           
  3844                           
  3845                           ;nokia5110.c: 257: adres=520;
  3846  05B6  3008               	movlw	8
  3847  05B7  2DBB               	goto	L15
  3848  05B8                     l143:	
  3849                           ;nokia5110.c: 259: case 'ý':
  3850                           
  3851                           ;nokia5110.c: 258: break;
  3852                           
  3853                           
  3854                           ;nokia5110.c: 260: adres=525;
  3855  05B8  300D               	movlw	13
  3856  05B9  2DBB               	goto	L15
  3857  05BA                     l144:	
  3858                           ;nokia5110.c: 262: case 'þ':
  3859                           
  3860                           ;nokia5110.c: 261: break;
  3861                           
  3862                           
  3863                           ;nokia5110.c: 263: adres=530;
  3864  05BA  3012               	movlw	18
  3865  05BB                     L15:	
  3866  05BB  00F7               	movwf	lcd_harfyaz@adres
  3867  05BC  3002               	movlw	2
  3868  05BD                     L14:	
  3869  05BD  00F8               	movwf	lcd_harfyaz@adres+1
  3870                           
  3871                           ;nokia5110.c: 264: break;
  3872  05BE  2DF8               	goto	l1139
  3873  05BF                     l1133:	
  3874                           ;nokia5110.c: 265: default:
  3875                           
  3876                           
  3877                           ;nokia5110.c: 266: adres=(harf-' ')*5;
  3878  05BF  0876               	movf	lcd_harfyaz@harf,w
  3879  05C0  3EE0               	addlw	224
  3880  05C1  00F0               	movwf	___wmul@multiplier
  3881  05C2  30FF               	movlw	255
  3882  05C3  1803               	skipnc
  3883  05C4  3000               	movlw	0
  3884  05C5  00F1               	movwf	___wmul@multiplier+1
  3885  05C6  3005               	movlw	5
  3886  05C7  00F2               	movwf	___wmul@multiplicand
  3887  05C8  3000               	movlw	0
  3888  05C9  00F3               	movwf	___wmul@multiplicand+1
  3889  05CA  3184  242A  3185   	fcall	___wmul
  3890  05CD  0871               	movf	?___wmul+1,w
  3891  05CE  00F8               	movwf	lcd_harfyaz@adres+1
  3892  05CF  0870               	movf	?___wmul,w
  3893  05D0  00F7               	movwf	lcd_harfyaz@adres
  3894                           
  3895                           ;nokia5110.c: 269: }
  3896                           
  3897                           ;nokia5110.c: 268: break;
  3898  05D1  2DF8               	goto	l1139
  3899  05D2                     l1137:	
  3900  05D2  0876               	movf	lcd_harfyaz@harf,w
  3901                           
  3902                           ; Switch size 1, requested type "space"
  3903                           ; Number of cases is 12, Range of values is 199 to 254
  3904                           ; switch strategies available:
  3905                           ; Name         Instructions Cycles
  3906                           ; simple_byte           37    19 (average)
  3907                           ; direct_byte          121     9 (fixed)
  3908                           ; jumptable            263     9 (fixed)
  3909                           ;	Chosen strategy is simple_byte
  3910  05D3  3AC7               	xorlw	199	; case 199
  3911  05D4  1903               	skipnz
  3912  05D5  2DA2               	goto	l132
  3913  05D6  3A17               	xorlw	23	; case 208
  3914  05D7  1903               	skipnz
  3915  05D8  2DA4               	goto	l134
  3916  05D9  3A06               	xorlw	6	; case 214
  3917  05DA  1903               	skipnz
  3918  05DB  2DA6               	goto	l135
  3919  05DC  3A0A               	xorlw	10	; case 220
  3920  05DD  1903               	skipnz
  3921  05DE  2DA8               	goto	l136
  3922  05DF  3A01               	xorlw	1	; case 221
  3923  05E0  1903               	skipnz
  3924  05E1  2DAA               	goto	l137
  3925  05E2  3A03               	xorlw	3	; case 222
  3926  05E3  1903               	skipnz
  3927  05E4  2DAC               	goto	l138
  3928  05E5  3A39               	xorlw	57	; case 231
  3929  05E6  1903               	skipnz
  3930  05E7  2DAE               	goto	l139
  3931  05E8  3A17               	xorlw	23	; case 240
  3932  05E9  1903               	skipnz
  3933  05EA  2DB0               	goto	l140
  3934  05EB  3A06               	xorlw	6	; case 246
  3935  05EC  1903               	skipnz
  3936  05ED  2DB4               	goto	l141
  3937  05EE  3A0A               	xorlw	10	; case 252
  3938  05EF  1903               	skipnz
  3939  05F0  2DB6               	goto	l142
  3940  05F1  3A01               	xorlw	1	; case 253
  3941  05F2  1903               	skipnz
  3942  05F3  2DB8               	goto	l143
  3943  05F4  3A03               	xorlw	3	; case 254
  3944  05F5  1903               	skipnz
  3945  05F6  2DBA               	goto	l144
  3946  05F7  2DBF               	goto	l1133
  3947  05F8                     l1139:	
  3948                           
  3949                           ;nokia5110.c: 271: lcd_veriyaz(harftablo[adres++]);
  3950  05F8  0878               	movf	lcd_harfyaz@adres+1,w
  3951  05F9  0085               	movwf	5
  3952  05FA  0877               	movf	lcd_harfyaz@adres,w
  3953  05FB  0084               	movwf	4
  3954  05FC  3022               	movlw	low (_harftablo| (0+32768))
  3955  05FD  0784               	addwf	4,f
  3956  05FE  308A               	movlw	high (_harftablo| (0+32768))
  3957  05FF  3D85               	addwfc	5,f
  3958  0600  0800               	movf	0,w	;code access
  3959  0601  3184  2462  3185   	fcall	_lcd_veriyaz
  3960  0604  3001               	movlw	1
  3961  0605  07F7               	addwf	lcd_harfyaz@adres,f
  3962  0606  3000               	movlw	0
  3963  0607  3DF8               	addwfc	lcd_harfyaz@adres+1,f
  3964                           
  3965                           ;nokia5110.c: 272: lcd_veriyaz(harftablo[adres++]);
  3966  0608  0878               	movf	lcd_harfyaz@adres+1,w
  3967  0609  0085               	movwf	5
  3968  060A  0877               	movf	lcd_harfyaz@adres,w
  3969  060B  0084               	movwf	4
  3970  060C  3022               	movlw	low (_harftablo| (0+32768))
  3971  060D  0784               	addwf	4,f
  3972  060E  308A               	movlw	high (_harftablo| (0+32768))
  3973  060F  3D85               	addwfc	5,f
  3974  0610  0800               	movf	0,w	;code access
  3975  0611  3184  2462  3185   	fcall	_lcd_veriyaz
  3976  0614  3001               	movlw	1
  3977  0615  07F7               	addwf	lcd_harfyaz@adres,f
  3978  0616  3000               	movlw	0
  3979  0617  3DF8               	addwfc	lcd_harfyaz@adres+1,f
  3980                           
  3981                           ;nokia5110.c: 273: lcd_veriyaz(harftablo[adres++]);
  3982  0618  0878               	movf	lcd_harfyaz@adres+1,w
  3983  0619  0085               	movwf	5
  3984  061A  0877               	movf	lcd_harfyaz@adres,w
  3985  061B  0084               	movwf	4
  3986  061C  3022               	movlw	low (_harftablo| (0+32768))
  3987  061D  0784               	addwf	4,f
  3988  061E  308A               	movlw	high (_harftablo| (0+32768))
  3989  061F  3D85               	addwfc	5,f
  3990  0620  0800               	movf	0,w	;code access
  3991  0621  3184  2462  3185   	fcall	_lcd_veriyaz
  3992  0624  3001               	movlw	1
  3993  0625  07F7               	addwf	lcd_harfyaz@adres,f
  3994  0626  3000               	movlw	0
  3995  0627  3DF8               	addwfc	lcd_harfyaz@adres+1,f
  3996                           
  3997                           ;nokia5110.c: 274: lcd_veriyaz(harftablo[adres++]);
  3998  0628  0878               	movf	lcd_harfyaz@adres+1,w
  3999  0629  0085               	movwf	5
  4000  062A  0877               	movf	lcd_harfyaz@adres,w
  4001  062B  0084               	movwf	4
  4002  062C  3022               	movlw	low (_harftablo| (0+32768))
  4003  062D  0784               	addwf	4,f
  4004  062E  308A               	movlw	high (_harftablo| (0+32768))
  4005  062F  3D85               	addwfc	5,f
  4006  0630  0800               	movf	0,w	;code access
  4007  0631  3184  2462  3185   	fcall	_lcd_veriyaz
  4008  0634  3001               	movlw	1
  4009  0635  07F7               	addwf	lcd_harfyaz@adres,f
  4010  0636  3000               	movlw	0
  4011  0637  3DF8               	addwfc	lcd_harfyaz@adres+1,f
  4012                           
  4013                           ;nokia5110.c: 275: lcd_veriyaz(harftablo[adres++]);
  4014  0638  0878               	movf	lcd_harfyaz@adres+1,w
  4015  0639  0085               	movwf	5
  4016  063A  0877               	movf	lcd_harfyaz@adres,w
  4017  063B  0084               	movwf	4
  4018  063C  3022               	movlw	low (_harftablo| (0+32768))
  4019  063D  0784               	addwf	4,f
  4020  063E  308A               	movlw	high (_harftablo| (0+32768))
  4021  063F  3D85               	addwfc	5,f
  4022  0640  0800               	movf	0,w	;code access
  4023  0641  3184  2462  3185   	fcall	_lcd_veriyaz
  4024  0644  3001               	movlw	1
  4025  0645  07F7               	addwf	lcd_harfyaz@adres,f
  4026  0646  3000               	movlw	0
  4027  0647  3DF8               	addwfc	lcd_harfyaz@adres+1,f
  4028                           
  4029                           ;nokia5110.c: 276: lcd_veriyaz( 0x00);
  4030  0648  3000               	movlw	0
  4031  0649  3184  2462         	fcall	_lcd_veriyaz
  4032  064B  0008               	return
  4033  064C                     __end_of_lcd_harfyaz:	
  4034                           
  4035                           	psect	text8
  4036  042A                     __ptext8:	
  4037 ;; *************** function ___wmul *****************
  4038 ;; Defined at:
  4039 ;;		line 15 in file "C:\Program Files (x86)\Microchip\xc8\v1.44\sources\common\Umul16.c"
  4040 ;; Parameters:    Size  Location     Type
  4041 ;;  multiplier      2    0[COMMON] unsigned int 
  4042 ;;  multiplicand    2    2[COMMON] unsigned int 
  4043 ;; Auto vars:     Size  Location     Type
  4044 ;;  product         2    4[COMMON] unsigned int 
  4045 ;; Return value:  Size  Location     Type
  4046 ;;                  2    0[COMMON] unsigned int 
  4047 ;; Registers used:
  4048 ;;		wreg, status,2, status,0
  4049 ;; Tracked objects:
  4050 ;;		On entry : 0/0
  4051 ;;		On exit  : 0/0
  4052 ;;		Unchanged: 0/0
  4053 ;; Data sizes:     COMMON   BANK0   BANK1   BANK2   BANK3   BANK4
  4054 ;;      Params:         4       0       0       0       0       0
  4055 ;;      Locals:         2       0       0       0       0       0
  4056 ;;      Temps:          0       0       0       0       0       0
  4057 ;;      Totals:         6       0       0       0       0       0
  4058 ;;Total ram usage:        6 bytes
  4059 ;; Hardware stack levels used:    1
  4060 ;; This function calls:
  4061 ;;		Nothing
  4062 ;; This function is called by:
  4063 ;;		_lcd_harfyaz
  4064 ;;		_lcd_sayiyaz
  4065 ;; This function uses a non-reentrant model
  4066 ;;
  4067                           
  4068                           
  4069                           ;psect for function ___wmul
  4070  042A                     ___wmul:	
  4071                           
  4072                           ;incstack = 0
  4073                           ; Regs used in ___wmul: [wreg+status,2+status,0]
  4074  042A  01F4               	clrf	___wmul@product
  4075  042B  01F5               	clrf	___wmul@product+1
  4076  042C                     l1079:	
  4077  042C  1C70               	btfss	___wmul@multiplier,0
  4078  042D  2C32               	goto	l313
  4079  042E  0872               	movf	___wmul@multiplicand,w
  4080  042F  07F4               	addwf	___wmul@product,f
  4081  0430  0873               	movf	___wmul@multiplicand+1,w
  4082  0431  3DF5               	addwfc	___wmul@product+1,f
  4083  0432                     l313:	
  4084  0432  3001               	movlw	1
  4085  0433                     u555:	
  4086  0433  35F2               	lslf	___wmul@multiplicand,f
  4087  0434  0DF3               	rlf	___wmul@multiplicand+1,f
  4088  0435  0B89               	decfsz	9,f
  4089  0436  2C33               	goto	u555
  4090  0437  3001               	movlw	1
  4091  0438                     u565:	
  4092  0438  36F1               	lsrf	___wmul@multiplier+1,f
  4093  0439  0CF0               	rrf	___wmul@multiplier,f
  4094  043A  0B89               	decfsz	9,f
  4095  043B  2C38               	goto	u565
  4096  043C  0870               	movf	___wmul@multiplier,w
  4097  043D  0471               	iorwf	___wmul@multiplier+1,w
  4098  043E  1D03               	btfss	3,2
  4099  043F  2C2C               	goto	l1079
  4100  0440  0875               	movf	___wmul@product+1,w
  4101  0441  00F1               	movwf	?___wmul+1
  4102  0442  0874               	movf	___wmul@product,w
  4103  0443  00F0               	movwf	?___wmul
  4104  0444  0008               	return
  4105  0445                     __end_of___wmul:	
  4106                           
  4107                           	psect	text9
  4108  03FE                     __ptext9:	
  4109 ;; *************** function _lcd_git *****************
  4110 ;; Defined at:
  4111 ;;		line 189 in file "nokia5110.c"
  4112 ;; Parameters:    Size  Location     Type
  4113 ;;  satir           1    wreg     unsigned char 
  4114 ;;  sutun           1    4[COMMON] unsigned char 
  4115 ;; Auto vars:     Size  Location     Type
  4116 ;;  satir           1    6[COMMON] unsigned char 
  4117 ;; Return value:  Size  Location     Type
  4118 ;;                  1    wreg      void 
  4119 ;; Registers used:
  4120 ;;		wreg, status,2, status,0, pclath, cstack
  4121 ;; Tracked objects:
  4122 ;;		On entry : 0/0
  4123 ;;		On exit  : 0/0
  4124 ;;		Unchanged: 0/0
  4125 ;; Data sizes:     COMMON   BANK0   BANK1   BANK2   BANK3   BANK4
  4126 ;;      Params:         1       0       0       0       0       0
  4127 ;;      Locals:         1       0       0       0       0       0
  4128 ;;      Temps:          1       0       0       0       0       0
  4129 ;;      Totals:         3       0       0       0       0       0
  4130 ;;Total ram usage:        3 bytes
  4131 ;; Hardware stack levels used:    1
  4132 ;; Hardware stack levels required when called:    1
  4133 ;; This function calls:
  4134 ;;		___bmul
  4135 ;;		_lcd_veriyaz
  4136 ;; This function is called by:
  4137 ;;		_lcd_mesajyaz
  4138 ;;		_lcd_sil
  4139 ;;		_lcd_sayiyaz
  4140 ;;		_lcd_satirsil
  4141 ;; This function uses a non-reentrant model
  4142 ;;
  4143                           
  4144                           
  4145                           ;psect for function _lcd_git
  4146  03FE                     _lcd_git:	
  4147                           
  4148                           ;incstack = 0
  4149                           ; Regs used in _lcd_git: [wreg+status,2+status,0+pclath+cstack]
  4150                           ;lcd_git@satir stored from wreg
  4151  03FE  00F6               	movwf	lcd_git@satir
  4152                           
  4153                           ;nokia5110.c: 191: LATB3=0;
  4154  03FF  0022               	movlb	2	; select bank2
  4155  0400  118D               	bcf	13,3	;volatile
  4156                           
  4157                           ;nokia5110.c: 192: lcd_veriyaz(0x40 | satir);
  4158  0401  0876               	movf	lcd_git@satir,w
  4159  0402  3840               	iorlw	64
  4160  0403  3184  2462  3183   	fcall	_lcd_veriyaz
  4161                           
  4162                           ;nokia5110.c: 193: lcd_veriyaz(0x80 | (sutun*6));
  4163  0406  3006               	movlw	6
  4164  0407  00F5               	movwf	??_lcd_git
  4165  0408  0875               	movf	??_lcd_git,w
  4166  0409  00F0               	movwf	___bmul@multiplicand
  4167  040A  0874               	movf	lcd_git@sutun,w
  4168  040B  3183  23ED  3183   	fcall	___bmul
  4169  040E  3880               	iorlw	128
  4170  040F  3184  2462         	fcall	_lcd_veriyaz
  4171  0411  0008               	return
  4172  0412                     __end_of_lcd_git:	
  4173                           
  4174                           	psect	text10
  4175  03ED                     __ptext10:	
  4176 ;; *************** function ___bmul *****************
  4177 ;; Defined at:
  4178 ;;		line 4 in file "C:\Program Files (x86)\Microchip\xc8\v1.44\sources\common\Umul8.c"
  4179 ;; Parameters:    Size  Location     Type
  4180 ;;  multiplier      1    wreg     unsigned char 
  4181 ;;  multiplicand    1    0[COMMON] unsigned char 
  4182 ;; Auto vars:     Size  Location     Type
  4183 ;;  multiplier      1    3[COMMON] unsigned char 
  4184 ;;  product         1    2[COMMON] unsigned char 
  4185 ;; Return value:  Size  Location     Type
  4186 ;;                  1    wreg      unsigned char 
  4187 ;; Registers used:
  4188 ;;		wreg, status,2, status,0
  4189 ;; Tracked objects:
  4190 ;;		On entry : 0/0
  4191 ;;		On exit  : 0/0
  4192 ;;		Unchanged: 0/0
  4193 ;; Data sizes:     COMMON   BANK0   BANK1   BANK2   BANK3   BANK4
  4194 ;;      Params:         1       0       0       0       0       0
  4195 ;;      Locals:         2       0       0       0       0       0
  4196 ;;      Temps:          1       0       0       0       0       0
  4197 ;;      Totals:         4       0       0       0       0       0
  4198 ;;Total ram usage:        4 bytes
  4199 ;; Hardware stack levels used:    1
  4200 ;; This function calls:
  4201 ;;		Nothing
  4202 ;; This function is called by:
  4203 ;;		_lcd_git
  4204 ;; This function uses a non-reentrant model
  4205 ;;
  4206                           
  4207                           
  4208                           ;psect for function ___bmul
  4209  03ED                     ___bmul:	
  4210                           
  4211                           ;incstack = 0
  4212                           ; Regs used in ___bmul: [wreg+status,2+status,0]
  4213                           ;___bmul@multiplier stored from wreg
  4214  03ED  00F3               	movwf	___bmul@multiplier
  4215  03EE  01F2               	clrf	___bmul@product
  4216  03EF                     l1093:	
  4217  03EF  1C73               	btfss	___bmul@multiplier,0
  4218  03F0  2BF5               	goto	l1097
  4219  03F1  0870               	movf	___bmul@multiplicand,w
  4220  03F2  00F1               	movwf	??___bmul
  4221  03F3  0871               	movf	??___bmul,w
  4222  03F4  07F2               	addwf	___bmul@product,f
  4223  03F5                     l1097:	
  4224  03F5  1003               	clrc
  4225  03F6  0DF0               	rlf	___bmul@multiplicand,f
  4226  03F7  1003               	clrc
  4227  03F8  0CF3               	rrf	___bmul@multiplier,f
  4228  03F9  0873               	movf	___bmul@multiplier,w
  4229  03FA  1D03               	btfss	3,2
  4230  03FB  2BEF               	goto	l1093
  4231  03FC  0872               	movf	___bmul@product,w
  4232  03FD  0008               	return
  4233  03FE                     __end_of___bmul:	
  4234                           
  4235                           	psect	text11
  4236  0487                     __ptext11:	
  4237 ;; *************** function _lcd_baslat *****************
  4238 ;; Defined at:
  4239 ;;		line 161 in file "nokia5110.c"
  4240 ;; Parameters:    Size  Location     Type
  4241 ;;		None
  4242 ;; Auto vars:     Size  Location     Type
  4243 ;;		None
  4244 ;; Return value:  Size  Location     Type
  4245 ;;                  1    wreg      void 
  4246 ;; Registers used:
  4247 ;;		wreg, status,2, status,0, pclath, cstack
  4248 ;; Tracked objects:
  4249 ;;		On entry : 0/0
  4250 ;;		On exit  : 0/0
  4251 ;;		Unchanged: 0/0
  4252 ;; Data sizes:     COMMON   BANK0   BANK1   BANK2   BANK3   BANK4
  4253 ;;      Params:         0       0       0       0       0       0
  4254 ;;      Locals:         0       0       0       0       0       0
  4255 ;;      Temps:          0       0       0       0       0       0
  4256 ;;      Totals:         0       0       0       0       0       0
  4257 ;;Total ram usage:        0 bytes
  4258 ;; Hardware stack levels used:    1
  4259 ;; Hardware stack levels required when called:    1
  4260 ;; This function calls:
  4261 ;;		_lcd_veriyaz
  4262 ;; This function is called by:
  4263 ;;		_main
  4264 ;; This function uses a non-reentrant model
  4265 ;;
  4266                           
  4267                           
  4268                           ;psect for function _lcd_baslat
  4269  0487                     _lcd_baslat:	
  4270                           
  4271                           ;nokia5110.c: 162: TRISB6 = 0;
  4272                           
  4273                           ;incstack = 0
  4274                           ; Regs used in _lcd_baslat: [wreg+status,2+status,0+pclath+cstack]
  4275  0487  0021               	movlb	1	; select bank1
  4276  0488  130D               	bcf	13,6	;volatile
  4277                           
  4278                           ;nokia5110.c: 163: TRISB5 = 0;
  4279  0489  128D               	bcf	13,5	;volatile
  4280                           
  4281                           ;nokia5110.c: 164: TRISB4 = 0;
  4282  048A  120D               	bcf	13,4	;volatile
  4283                           
  4284                           ;nokia5110.c: 165: TRISB3 = 0;
  4285  048B  118D               	bcf	13,3	;volatile
  4286                           
  4287                           ;nokia5110.c: 166: TRISB7 = 0;
  4288  048C  138D               	bcf	13,7	;volatile
  4289                           
  4290                           ;nokia5110.c: 168: LATB4=0;
  4291  048D  0022               	movlb	2	; select bank2
  4292  048E  120D               	bcf	13,4	;volatile
  4293                           
  4294                           ;nokia5110.c: 169: LATB5=0;
  4295  048F  128D               	bcf	13,5	;volatile
  4296                           
  4297                           ;nokia5110.c: 170: LATB3=0;
  4298  0490  118D               	bcf	13,3	;volatile
  4299                           
  4300                           ;nokia5110.c: 173: LATB7=0;
  4301  0491  138D               	bcf	13,7	;volatile
  4302                           
  4303                           ;nokia5110.c: 174: LATB7=1;
  4304  0492  178D               	bsf	13,7	;volatile
  4305                           
  4306                           ;nokia5110.c: 176: LATB3=0;
  4307  0493  118D               	bcf	13,3	;volatile
  4308                           
  4309                           ;nokia5110.c: 177: lcd_veriyaz(0x21);
  4310  0494  3021               	movlw	33
  4311  0495  3184  2462  3184   	fcall	_lcd_veriyaz
  4312                           
  4313                           ;nokia5110.c: 178: lcd_veriyaz(lcd_kontrast);
  4314  0498  0020               	movlb	0	; select bank0
  4315  0499  0839               	movf	_lcd_kontrast,w
  4316  049A  3184  2462  3184   	fcall	_lcd_veriyaz
  4317                           
  4318                           ;nokia5110.c: 179: lcd_veriyaz(0x04);
  4319  049D  3004               	movlw	4
  4320  049E  3184  2462  3184   	fcall	_lcd_veriyaz
  4321                           
  4322                           ;nokia5110.c: 180: lcd_veriyaz(0x14);
  4323  04A1  3014               	movlw	20
  4324  04A2  3184  2462  3184   	fcall	_lcd_veriyaz
  4325                           
  4326                           ;nokia5110.c: 181: lcd_veriyaz(0x20);
  4327  04A5  3020               	movlw	32
  4328  04A6  3184  2462  3184   	fcall	_lcd_veriyaz
  4329                           
  4330                           ;nokia5110.c: 182: lcd_veriyaz(0x0C);
  4331  04A9  300C               	movlw	12
  4332  04AA  3184  2462         	fcall	_lcd_veriyaz
  4333  04AC  0008               	return
  4334  04AD                     __end_of_lcd_baslat:	
  4335                           
  4336                           	psect	text12
  4337  0462                     __ptext12:	
  4338 ;; *************** function _lcd_veriyaz *****************
  4339 ;; Defined at:
  4340 ;;		line 360 in file "nokia5110.c"
  4341 ;; Parameters:    Size  Location     Type
  4342 ;;  veri            1    wreg     unsigned char 
  4343 ;; Auto vars:     Size  Location     Type
  4344 ;;  veri            1    1[COMMON] unsigned char 
  4345 ;;  i               1    2[COMMON] unsigned char 
  4346 ;; Return value:  Size  Location     Type
  4347 ;;                  1    wreg      void 
  4348 ;; Registers used:
  4349 ;;		wreg, status,2, status,0
  4350 ;; Tracked objects:
  4351 ;;		On entry : 0/0
  4352 ;;		On exit  : 0/0
  4353 ;;		Unchanged: 0/0
  4354 ;; Data sizes:     COMMON   BANK0   BANK1   BANK2   BANK3   BANK4
  4355 ;;      Params:         0       0       0       0       0       0
  4356 ;;      Locals:         2       0       0       0       0       0
  4357 ;;      Temps:          1       0       0       0       0       0
  4358 ;;      Totals:         3       0       0       0       0       0
  4359 ;;Total ram usage:        3 bytes
  4360 ;; Hardware stack levels used:    1
  4361 ;; This function calls:
  4362 ;;		Nothing
  4363 ;; This function is called by:
  4364 ;;		_lcd_baslat
  4365 ;;		_lcd_git
  4366 ;;		_lcd_harfyaz
  4367 ;;		_lcd_sil
  4368 ;;		_lcd_sayiyaz
  4369 ;;		_lcd_satirsil
  4370 ;;		_lcd_kontrast_artir
  4371 ;;		_lcd_ekrani_tersle
  4372 ;;		_lcd_normalmode
  4373 ;; This function uses a non-reentrant model
  4374 ;;
  4375                           
  4376                           
  4377                           ;psect for function _lcd_veriyaz
  4378  0462                     _lcd_veriyaz:	
  4379                           
  4380                           ;incstack = 0
  4381                           ; Regs used in _lcd_veriyaz: [wreg+status,2+status,0]
  4382                           ;lcd_veriyaz@veri stored from wreg
  4383  0462  00F1               	movwf	lcd_veriyaz@veri
  4384                           
  4385                           ;nokia5110.c: 362: char i;
  4386                           ;nokia5110.c: 364: LATB6=0;
  4387  0463  0022               	movlb	2	; select bank2
  4388  0464  130D               	bcf	13,6	;volatile
  4389                           
  4390                           ;nokia5110.c: 366: for(i=0;i<8;i++)
  4391  0465  01F2               	clrf	lcd_veriyaz@i
  4392  0466  3008               	movlw	8
  4393  0467  0272               	subwf	lcd_veriyaz@i,w
  4394  0468  1803               	btfsc	3,0
  4395  0469  2C85               	goto	l172
  4396  046A                     l1065:	
  4397                           
  4398                           ;nokia5110.c: 367: {
  4399                           ;nokia5110.c: 368: veri=veri<<1;
  4400  046A  3571               	lslf	lcd_veriyaz@veri,w
  4401  046B  00F0               	movwf	??_lcd_veriyaz
  4402  046C  0870               	movf	??_lcd_veriyaz,w
  4403  046D  00F1               	movwf	lcd_veriyaz@veri
  4404                           
  4405                           ;nokia5110.c: 369: LATB4=CARRY;
  4406  046E  0020               	movlb	0	; select bank0
  4407  046F  1C03               	btfss	3,0	;volatile
  4408  0470  2C74               	goto	u510
  4409  0471  0022               	movlb	2	; select bank2
  4410  0472  160D               	bsf	13,4	;volatile
  4411  0473  2C76               	goto	l1069
  4412  0474                     u510:	
  4413  0474  0022               	movlb	2	; select bank2
  4414  0475  120D               	bcf	13,4	;volatile
  4415  0476                     l1069:	
  4416                           
  4417                           ;nokia5110.c: 370: LATB5=1;
  4418  0476  168D               	bsf	13,5	;volatile
  4419                           
  4420                           ;nokia5110.c: 371: _delay((unsigned long)((1)*(32000000/4000000.0)));
  4421  0477  3200               	nop2	;2 cycle nop
  4422  0478  3200               	nop2	;2 cycle nop
  4423  0479  3200               	nop2	;2 cycle nop
  4424  047A  3200               	nop2	;2 cycle nop
  4425                           
  4426                           ;nokia5110.c: 372: LATB5=0;
  4427  047B  0022               	movlb	2	; select bank2
  4428  047C  128D               	bcf	13,5	;volatile
  4429  047D  3001               	movlw	1
  4430  047E  00F0               	movwf	??_lcd_veriyaz
  4431  047F  0870               	movf	??_lcd_veriyaz,w
  4432  0480  07F2               	addwf	lcd_veriyaz@i,f
  4433  0481  3008               	movlw	8
  4434  0482  0272               	subwf	lcd_veriyaz@i,w
  4435  0483  1C03               	skipc
  4436  0484  2C6A               	goto	l1065
  4437  0485                     l172:	
  4438                           
  4439                           ;nokia5110.c: 373: }
  4440                           ;nokia5110.c: 375: LATB6=1;
  4441  0485  170D               	bsf	13,6	;volatile
  4442  0486  0008               	return
  4443  0487                     __end_of_lcd_veriyaz:	
  4444                           
  4445                           	psect	text13
  4446  03E4                     __ptext13:	
  4447 ;; *************** function _SYSTEM_Initialize *****************
  4448 ;; Defined at:
  4449 ;;		line 69 in file "mcc_generated_files/mcc.c"
  4450 ;; Parameters:    Size  Location     Type
  4451 ;;		None
  4452 ;; Auto vars:     Size  Location     Type
  4453 ;;		None
  4454 ;; Return value:  Size  Location     Type
  4455 ;;                  1    wreg      void 
  4456 ;; Registers used:
  4457 ;;		wreg, status,2, status,0, pclath, cstack
  4458 ;; Tracked objects:
  4459 ;;		On entry : 0/0
  4460 ;;		On exit  : 0/0
  4461 ;;		Unchanged: 0/0
  4462 ;; Data sizes:     COMMON   BANK0   BANK1   BANK2   BANK3   BANK4
  4463 ;;      Params:         0       0       0       0       0       0
  4464 ;;      Locals:         0       0       0       0       0       0
  4465 ;;      Temps:          0       0       0       0       0       0
  4466 ;;      Totals:         0       0       0       0       0       0
  4467 ;;Total ram usage:        0 bytes
  4468 ;; Hardware stack levels used:    1
  4469 ;; Hardware stack levels required when called:    1
  4470 ;; This function calls:
  4471 ;;		_OSCILLATOR_Initialize
  4472 ;;		_PIN_MANAGER_Initialize
  4473 ;;		_WDT_Initialize
  4474 ;; This function is called by:
  4475 ;;		_main
  4476 ;; This function uses a non-reentrant model
  4477 ;;
  4478                           
  4479                           
  4480                           ;psect for function _SYSTEM_Initialize
  4481  03E4                     _SYSTEM_Initialize:	
  4482                           
  4483                           ;mcc.c: 72: PIN_MANAGER_Initialize();
  4484                           
  4485                           ;incstack = 0
  4486                           ; Regs used in _SYSTEM_Initialize: [wreg+status,2+status,0+pclath+cstack]
  4487  03E4  3184  2412  3183   	fcall	_PIN_MANAGER_Initialize
  4488                           
  4489                           ;mcc.c: 73: OSCILLATOR_Initialize();
  4490  03E7  3183  23DD  3183   	fcall	_OSCILLATOR_Initialize
  4491                           
  4492                           ;mcc.c: 74: WDT_Initialize();
  4493  03EA  3183  23D9         	fcall	_WDT_Initialize
  4494  03EC  0008               	return
  4495  03ED                     __end_of_SYSTEM_Initialize:	
  4496                           
  4497                           	psect	text14
  4498  03D9                     __ptext14:	
  4499 ;; *************** function _WDT_Initialize *****************
  4500 ;; Defined at:
  4501 ;;		line 89 in file "mcc_generated_files/mcc.c"
  4502 ;; Parameters:    Size  Location     Type
  4503 ;;		None
  4504 ;; Auto vars:     Size  Location     Type
  4505 ;;		None
  4506 ;; Return value:  Size  Location     Type
  4507 ;;                  1    wreg      void 
  4508 ;; Registers used:
  4509 ;;		wreg
  4510 ;; Tracked objects:
  4511 ;;		On entry : 0/0
  4512 ;;		On exit  : 0/0
  4513 ;;		Unchanged: 0/0
  4514 ;; Data sizes:     COMMON   BANK0   BANK1   BANK2   BANK3   BANK4
  4515 ;;      Params:         0       0       0       0       0       0
  4516 ;;      Locals:         0       0       0       0       0       0
  4517 ;;      Temps:          0       0       0       0       0       0
  4518 ;;      Totals:         0       0       0       0       0       0
  4519 ;;Total ram usage:        0 bytes
  4520 ;; Hardware stack levels used:    1
  4521 ;; This function calls:
  4522 ;;		Nothing
  4523 ;; This function is called by:
  4524 ;;		_SYSTEM_Initialize
  4525 ;; This function uses a non-reentrant model
  4526 ;;
  4527                           
  4528                           
  4529                           ;psect for function _WDT_Initialize
  4530  03D9                     _WDT_Initialize:	
  4531                           
  4532                           ;mcc.c: 92: WDTCON = 0x16;
  4533                           
  4534                           ;incstack = 0
  4535                           ; Regs used in _WDT_Initialize: [wreg]
  4536  03D9  3016               	movlw	22
  4537  03DA  0021               	movlb	1	; select bank1
  4538  03DB  0097               	movwf	23	;volatile
  4539  03DC  0008               	return
  4540  03DD                     __end_of_WDT_Initialize:	
  4541                           
  4542                           	psect	text15
  4543  0412                     __ptext15:	
  4544 ;; *************** function _PIN_MANAGER_Initialize *****************
  4545 ;; Defined at:
  4546 ;;		line 52 in file "mcc_generated_files/pin_manager.c"
  4547 ;; Parameters:    Size  Location     Type
  4548 ;;		None
  4549 ;; Auto vars:     Size  Location     Type
  4550 ;;		None
  4551 ;; Return value:  Size  Location     Type
  4552 ;;                  1    wreg      void 
  4553 ;; Registers used:
  4554 ;;		wreg, status,2
  4555 ;; Tracked objects:
  4556 ;;		On entry : 0/0
  4557 ;;		On exit  : 0/0
  4558 ;;		Unchanged: 0/0
  4559 ;; Data sizes:     COMMON   BANK0   BANK1   BANK2   BANK3   BANK4
  4560 ;;      Params:         0       0       0       0       0       0
  4561 ;;      Locals:         0       0       0       0       0       0
  4562 ;;      Temps:          0       0       0       0       0       0
  4563 ;;      Totals:         0       0       0       0       0       0
  4564 ;;Total ram usage:        0 bytes
  4565 ;; Hardware stack levels used:    1
  4566 ;; This function calls:
  4567 ;;		Nothing
  4568 ;; This function is called by:
  4569 ;;		_SYSTEM_Initialize
  4570 ;; This function uses a non-reentrant model
  4571 ;;
  4572                           
  4573                           
  4574                           ;psect for function _PIN_MANAGER_Initialize
  4575  0412                     _PIN_MANAGER_Initialize:	
  4576                           
  4577                           ;pin_manager.c: 57: LATA = 0x00;
  4578                           
  4579                           ;incstack = 0
  4580                           ; Regs used in _PIN_MANAGER_Initialize: [wreg+status,2]
  4581  0412  0022               	movlb	2	; select bank2
  4582  0413  018C               	clrf	12	;volatile
  4583                           
  4584                           ;pin_manager.c: 58: LATB = 0x00;
  4585  0414  018D               	clrf	13	;volatile
  4586                           
  4587                           ;pin_manager.c: 63: TRISA = 0xFF;
  4588  0415  30FF               	movlw	255
  4589  0416  0021               	movlb	1	; select bank1
  4590  0417  008C               	movwf	12	;volatile
  4591                           
  4592                           ;pin_manager.c: 64: TRISB = 0x06;
  4593  0418  3006               	movlw	6
  4594  0419  008D               	movwf	13	;volatile
  4595                           
  4596                           ;pin_manager.c: 69: ANSELB = 0xFE;
  4597  041A  30FE               	movlw	254
  4598  041B  0023               	movlb	3	; select bank3
  4599  041C  008D               	movwf	13	;volatile
  4600                           
  4601                           ;pin_manager.c: 70: ANSELA = 0x1F;
  4602  041D  301F               	movlw	31
  4603  041E  008C               	movwf	12	;volatile
  4604                           
  4605                           ;pin_manager.c: 75: WPUB = 0xFF;
  4606  041F  30FF               	movlw	255
  4607  0420  0024               	movlb	4	; select bank4
  4608  0421  008D               	movwf	13	;volatile
  4609                           
  4610                           ;pin_manager.c: 76: WPUA = 0x20;
  4611  0422  3020               	movlw	32
  4612  0423  008C               	movwf	12	;volatile
  4613                           
  4614                           ;pin_manager.c: 77: OPTION_REGbits.nWPUEN = 0;
  4615  0424  0021               	movlb	1	; select bank1
  4616  0425  1395               	bcf	21,7	;volatile
  4617                           
  4618                           ;pin_manager.c: 83: APFCON1 = 0x00;
  4619  0426  0022               	movlb	2	; select bank2
  4620  0427  019E               	clrf	30	;volatile
  4621                           
  4622                           ;pin_manager.c: 84: APFCON0 = 0x00;
  4623  0428  019D               	clrf	29	;volatile
  4624  0429  0008               	return
  4625  042A                     __end_of_PIN_MANAGER_Initialize:	
  4626                           
  4627                           	psect	text16
  4628  03DD                     __ptext16:	
  4629 ;; *************** function _OSCILLATOR_Initialize *****************
  4630 ;; Defined at:
  4631 ;;		line 77 in file "mcc_generated_files/mcc.c"
  4632 ;; Parameters:    Size  Location     Type
  4633 ;;		None
  4634 ;; Auto vars:     Size  Location     Type
  4635 ;;		None
  4636 ;; Return value:  Size  Location     Type
  4637 ;;                  1    wreg      void 
  4638 ;; Registers used:
  4639 ;;		wreg, status,2
  4640 ;; Tracked objects:
  4641 ;;		On entry : 0/0
  4642 ;;		On exit  : 0/0
  4643 ;;		Unchanged: 0/0
  4644 ;; Data sizes:     COMMON   BANK0   BANK1   BANK2   BANK3   BANK4
  4645 ;;      Params:         0       0       0       0       0       0
  4646 ;;      Locals:         0       0       0       0       0       0
  4647 ;;      Temps:          0       0       0       0       0       0
  4648 ;;      Totals:         0       0       0       0       0       0
  4649 ;;Total ram usage:        0 bytes
  4650 ;; Hardware stack levels used:    1
  4651 ;; This function calls:
  4652 ;;		Nothing
  4653 ;; This function is called by:
  4654 ;;		_SYSTEM_Initialize
  4655 ;; This function uses a non-reentrant model
  4656 ;;
  4657                           
  4658                           
  4659                           ;psect for function _OSCILLATOR_Initialize
  4660  03DD                     _OSCILLATOR_Initialize:	
  4661                           
  4662                           ;mcc.c: 80: OSCCON = 0x38;
  4663                           
  4664                           ;incstack = 0
  4665                           ; Regs used in _OSCILLATOR_Initialize: [wreg+status,2]
  4666  03DD  3038               	movlw	56
  4667  03DE  0021               	movlb	1	; select bank1
  4668  03DF  0099               	movwf	25	;volatile
  4669                           
  4670                           ;mcc.c: 82: OSCTUNE = 0x00;
  4671  03E0  0198               	clrf	24	;volatile
  4672  03E1                     l20:	
  4673                           ;mcc.c: 85: {
  4674                           
  4675                           ;mcc.c: 84: while(PLLR == 0)
  4676                           
  4677  03E1  1B1A               	btfsc	26,6	;volatile
  4678  03E2  0008               	return
  4679  03E3  2BE1               	goto	l20
  4680  03E4                     __end_of_OSCILLATOR_Initialize:	
  4681  007E                     btemp	set	126	;btemp
  4682  007E                     wtemp0	set	126


Data Sizes:
    Strings     24
    Constant    1403
    Data        1
    BSS         0
    Persistent  0
    Stack       0

Auto Spaces:
    Space          Size  Autos    Used
    COMMON           14     14      14
    BANK0            80     25      26
    BANK1            80      0       0
    BANK2            80      0       0
    BANK3            80      0       0
    BANK4            48      0       0

Pointer List with Targets:

    sprintf@f	PTR const unsigned char  size(2) Largest target is 3
		 -> STR_4(CODE[3]), 

    sprintf@sp	PTR unsigned char  size(1) Largest target is 6
		 -> main@buf(BANK0[6]), 

    sprintf@ap	PTR void [1] size(1) Largest target is 2
		 -> ?_sprintf(BANK0[2]), 

    lcd_sayiyaz@sayi	PTR unsigned char  size(2) Largest target is 7
		 -> main@buf(BANK0[6]), STR_3(CODE[7]), STR_2(CODE[7]), 

    lcd_sayiyaz@sayi_t	PTR unsigned char  size(2) Largest target is 7
		 -> main@buf(BANK0[6]), STR_3(CODE[7]), STR_2(CODE[7]), 

    lcd_mesajyaz@mesaj	PTR const unsigned char  size(2) Largest target is 14
		 -> STR_1(CODE[14]), 


Critical Paths under _main in COMMON

    _main->_lcd_mesajyaz
    _sprintf->___lwmod
    ___lwmod->___lwdiv
    _lcd_sil->_lcd_git
    _lcd_sayiyaz->_lcd_git
    _lcd_mesajyaz->_lcd_harfyaz
    _lcd_harfyaz->___wmul
    _lcd_git->___bmul
    _lcd_baslat->_lcd_veriyaz

Critical Paths under _main in BANK0

    _main->_sprintf

Critical Paths under _main in BANK1

    None.

Critical Paths under _main in BANK2

    None.

Critical Paths under _main in BANK3

    None.

Critical Paths under _main in BANK4

    None.

Call Graph Tables:

 ---------------------------------------------------------------------------------
 (Depth) Function   	        Calls       Base Space   Used Autos Params    Refs
 ---------------------------------------------------------------------------------
 (0) _main                                                10    10      0    6064
                                             15 BANK0     10    10      0
                  _SYSTEM_Initialize
                         _lcd_baslat
                       _lcd_mesajyaz
                        _lcd_sayiyaz
                            _lcd_sil
                            _sprintf
 ---------------------------------------------------------------------------------
 (1) _sprintf                                             23    19      4    1090
                                              0 BANK0     15    11      4
                            ___lwdiv
                            ___lwmod
 ---------------------------------------------------------------------------------
 (2) ___lwmod                                              6     2      4     265
                                              8 COMMON     6     2      4
                            ___lwdiv (ARG)
 ---------------------------------------------------------------------------------
 (2) ___lwdiv                                              8     4      4     268
                                              0 COMMON     8     4      4
 ---------------------------------------------------------------------------------
 (1) _lcd_sil                                              3     3      0     691
                                              7 COMMON     3     3      0
                            _lcd_git
                        _lcd_veriyaz
 ---------------------------------------------------------------------------------
 (1) _lcd_sayiyaz                                         14    10      4    2396
                                              7 COMMON     5     1      4
                                              0 BANK0      9     9      0
                             ___wmul
                            _lcd_git
                        _lcd_veriyaz
 ---------------------------------------------------------------------------------
 (1) _lcd_mesajyaz                                         5     2      3    1740
                                              9 COMMON     5     2      3
                            _lcd_git
                        _lcd_harfyaz
 ---------------------------------------------------------------------------------
 (2) _lcd_harfyaz                                          3     3      0     969
                                              6 COMMON     3     3      0
                             ___wmul
                        _lcd_veriyaz
 ---------------------------------------------------------------------------------
 (2) ___wmul                                               6     2      4     728
                                              0 COMMON     6     2      4
 ---------------------------------------------------------------------------------
 (2) _lcd_git                                              3     2      1     576
                                              4 COMMON     3     2      1
                             ___bmul
                        _lcd_veriyaz
 ---------------------------------------------------------------------------------
 (3) ___bmul                                               4     3      1     145
                                              0 COMMON     4     3      1
 ---------------------------------------------------------------------------------
 (1) _lcd_baslat                                           0     0      0      69
                        _lcd_veriyaz
 ---------------------------------------------------------------------------------
 (2) _lcd_veriyaz                                          3     3      0      69
                                              0 COMMON     3     3      0
 ---------------------------------------------------------------------------------
 (1) _SYSTEM_Initialize                                    0     0      0       0
              _OSCILLATOR_Initialize
             _PIN_MANAGER_Initialize
                     _WDT_Initialize
 ---------------------------------------------------------------------------------
 (2) _WDT_Initialize                                       0     0      0       0
 ---------------------------------------------------------------------------------
 (2) _PIN_MANAGER_Initialize                               0     0      0       0
 ---------------------------------------------------------------------------------
 (2) _OSCILLATOR_Initialize                                0     0      0       0
 ---------------------------------------------------------------------------------
 Estimated maximum stack depth 3
 ---------------------------------------------------------------------------------

 Call Graph Graphs:

 _main (ROOT)
   _SYSTEM_Initialize
     _OSCILLATOR_Initialize
     _PIN_MANAGER_Initialize
     _WDT_Initialize
   _lcd_baslat
     _lcd_veriyaz
   _lcd_mesajyaz
     _lcd_git
       ___bmul
       _lcd_veriyaz
     _lcd_harfyaz
       ___wmul
       _lcd_veriyaz
   _lcd_sayiyaz
     ___wmul
     _lcd_git
       ___bmul
       _lcd_veriyaz
     _lcd_veriyaz
   _lcd_sil
     _lcd_git
       ___bmul
       _lcd_veriyaz
     _lcd_veriyaz
   _sprintf
     ___lwdiv
     ___lwmod
       ___lwdiv (ARG)

 Address spaces:
Name               Size   Autos  Total    Cost      Usage
BIGRAM             170      0       0       0        0.0%
EEDATA             100      0       0       0        0.0%
NULL                 0      0       0       0        0.0%
CODE                 0      0       0       0        0.0%
BITCOMMON            E      0       0       1        0.0%
BITSFR0              0      0       0       1        0.0%
SFR0                 0      0       0       1        0.0%
COMMON               E      E       E       2      100.0%
BITSFR1              0      0       0       2        0.0%
SFR1                 0      0       0       2        0.0%
BITSFR2              0      0       0       3        0.0%
SFR2                 0      0       0       3        0.0%
STACK                0      0       0       3        0.0%
BITSFR3              0      0       0       4        0.0%
SFR3                 0      0       0       4        0.0%
ABS                  0      0      28       4        0.0%
BITBANK0            50      0       0       5        0.0%
BITSFR4              0      0       0       5        0.0%
SFR4                 0      0       0       5        0.0%
BANK0               50     19      1A       6       32.5%
BITSFR5              0      0       0       6        0.0%
SFR5                 0      0       0       6        0.0%
BITBANK1            50      0       0       7        0.0%
BITSFR6              0      0       0       7        0.0%
SFR6                 0      0       0       7        0.0%
BANK1               50      0       0       8        0.0%
BITSFR7              0      0       0       8        0.0%
SFR7                 0      0       0       8        0.0%
BITBANK2            50      0       0       9        0.0%
BITSFR8              0      0       0       9        0.0%
SFR8                 0      0       0       9        0.0%
BANK2               50      0       0      10        0.0%
BITSFR9              0      0       0      10        0.0%
SFR9                 0      0       0      10        0.0%
BITBANK3            50      0       0      11        0.0%
BITSFR10             0      0       0      11        0.0%
SFR10                0      0       0      11        0.0%
BANK3               50      0       0      12        0.0%
BITSFR11             0      0       0      12        0.0%
SFR11                0      0       0      12        0.0%
BITBANK4            30      0       0      13        0.0%
BITSFR12             0      0       0      13        0.0%
SFR12                0      0       0      13        0.0%
BANK4               30      0       0      14        0.0%
BITSFR13             0      0       0      14        0.0%
SFR13                0      0       0      14        0.0%
BITSFR14             0      0       0      15        0.0%
SFR14                0      0       0      15        0.0%
DATA                 0      0      28      15        0.0%
BITSFR15             0      0       0      16        0.0%
SFR15                0      0       0      16        0.0%
BITSFR16             0      0       0      17        0.0%
SFR16                0      0       0      17        0.0%
BITSFR17             0      0       0      18        0.0%
SFR17                0      0       0      18        0.0%
BITSFR18             0      0       0      19        0.0%
SFR18                0      0       0      19        0.0%
BITSFR19             0      0       0      20        0.0%
SFR19                0      0       0      20        0.0%
BITSFR20             0      0       0      21        0.0%
SFR20                0      0       0      21        0.0%
BITSFR21             0      0       0      22        0.0%
SFR21                0      0       0      22        0.0%
BITSFR22             0      0       0      23        0.0%
SFR22                0      0       0      23        0.0%
BITSFR23             0      0       0      24        0.0%
SFR23                0      0       0      24        0.0%
BITSFR24             0      0       0      25        0.0%
SFR24                0      0       0      25        0.0%
BITSFR25             0      0       0      26        0.0%
SFR25                0      0       0      26        0.0%
BITSFR26             0      0       0      27        0.0%
SFR26                0      0       0      27        0.0%
BITSFR27             0      0       0      28        0.0%
SFR27                0      0       0      28        0.0%
BITSFR28             0      0       0      29        0.0%
SFR28                0      0       0      29        0.0%
BITSFR29             0      0       0      30        0.0%
SFR29                0      0       0      30        0.0%
BITSFR30             0      0       0      31        0.0%
SFR30                0      0       0      31        0.0%
BITSFR31             0      0       0      32        0.0%
SFR31                0      0       0      32        0.0%


Microchip Technology PIC Macro Assembler V1.44 build -154322312 
Symbol Table                                                                                   Fri Oct 13 21:08:40 2017

                   ?_lcd_sayiyaz 0077                   ___bmul@product 0072                     ?_lcd_veriyaz 0070  
                    __CFG_CP$OFF 0000                               l20 03E1              ___wmul@multiplicand 0072  
                            l140 05B0                              l132 05A2                              l141 05B4  
                            l142 05B6                              l134 05A4                              l143 05B8  
                            l135 05A6                              l144 05BA                              l136 05A8  
                            l313 0432                              l137 05AA                              l138 05AC  
                            l139 05AE                              l172 0485                              u510 0474  
                   __CFG_CPD$OFF 0000                              u625 0510                              u555 0433  
                            u715 04F1                              u565 0438                              u645 051A  
                            u725 04F8                              u655 0524                              u745 04BF  
                            u665 052C                              u755 04D2                              u915 06BD  
                            u695 04E2                              u997 0569                     __CFG_BORV$LO 0000  
                            wreg 0009                     __CFG_IESO$ON 0000                     __CFG_FOSC$HS 0000  
                   lcd_git@satir 0076                     lcd_git@sutun 0074                     __CFG_LVP$OFF 0000  
                           l1133 05BF                             l1303 0725                             l1065 046A  
                           l1137 05D2                             l1225 04D4                             l1313 0674  
                           l1139 05F8                             l1219 04C1                             l1069 0476  
                           l1093 03EF                             l1229 044E                             l1261 0775  
                           l1173 052B                             l1165 050D                             l1341 06C7  
                           l1079 042C                             l1247 0737                             l1239 0720  
                           l1167 0519                             l1191 04EB                             l1335 06A8  
                           l1319 068C                             l1097 03F5                             l1177 0534  
                           l1329 06A2                             l1291 07D5                             l1283 07BB  
                           l1259 0760                             l1275 0790                             l1195 04F7  
                           l1355 06DA                             l1347 06D6                             l1285 07D0  
                           l1189 04DF                             l1357 0652                             l1381 0573  
                           l1279 07A7                             l1199 0500                             l1359 0714  
                           l1299 07EE                             STR_1 0D7B                             STR_2 0D89  
                           STR_3 0D89                             STR_4 0D90                             u1007 0596  
                           _LATA 010C                             _LATB 010D                             _PLLR 04D6  
                           _WPUA 020C                             _WPUB 020D                     __CFG_WRT$OFF 0000  
                  __CFG_FCMEN$ON 0000                lcd_sayiyaz@sayi_t 0022                             _main 0539  
                           fsr0h 0005                             fsr1h 0007                             indf0 0000  
                           fsr0l 0004                             indf1 0001                             fsr1l 0006  
                           btemp 007E                    __CFG_BOREN$ON 0000                             start 0002  
                 ??_lcd_mesajyaz 007C                ___bmul@multiplier 0073                    __CFG_MCLRE$ON 0000  
                  __CFG_PLLEN$ON 0000   __size_of_OSCILLATOR_Initialize 0007    __end_of_OSCILLATOR_Initialize 03E4  
                          ?_main 0070                    __CFG_WDTE$OFF 0000                            _CARRY 0018  
                          _LATB3 086B                            _LATB4 086C                            _LATB5 086D  
                          _LATB6 086E                            _LATB7 086F                  __end_of___lwdiv 0539  
                __end_of___lwmod 0505                            _TRISA 008C                            _TRISB 008D  
                   lcd_sayiyaz@i 0026                  __end_of_lcd_git 0412                  __end_of_lcd_sil 04D9  
             lcd_sayiyaz@siramax 0021                  __end_of_dpowers 0D7B                   _WDT_Initialize 03D9  
                   lcd_veriyaz@i 0072                            status 0003                            wtemp0 007E  
                __end_of_sprintf 0719                lcd_mesajyaz@mesaj 007A                lcd_mesajyaz@satir 007D  
              lcd_mesajyaz@sutun 0079                  __initialization 07FA                     __end_of_main 059E  
                         ??_main 002F           __end_of_WDT_Initialize 03DD                           _ANSELA 018C  
                         _ANSELB 018D                           _OSCCON 0099                           _WDTCON 0097  
                         _TRISB3 046B                           _TRISB4 046C                           _TRISB5 046D  
                         _TRISB6 046E                           _TRISB7 046F                   __CFG_PWRTE$OFF 0000  
           __size_of_lcd_harfyaz 00AE                           ___bmul 03ED                           ___wmul 042A  
                 __CFG_STVREN$ON 0000                        ??___lwdiv 0074                        ??___lwmod 007C  
           __size_of_lcd_sayiyaz 00E1             __size_of_lcd_veriyaz 0025                        ??_lcd_git 0075  
                      ??_lcd_sil 0077             __end_of_lcd_mesajyaz 0462                  ?_WDT_Initialize 0070  
                      ??_sprintf 0024                _SYSTEM_Initialize 03E4          __end_of__initialization 07FD  
             ?_SYSTEM_Initialize 0070              ___bmul@multiplicand 0070                   __pcstackCOMMON 0070  
                   __pidataBANK0 03D8              ??_SYSTEM_Initialize 0070                   _OPTION_REGbits 0095  
      __end_of_SYSTEM_Initialize 03ED                  lcd_harfyaz@harf 0076                       __pmaintext 0539  
                        ?___bmul 0070                          ?___wmul 0070                          _APFCON0 011D  
                        _APFCON1 011E                       _lcd_baslat 0487                          _OSCTUNE 0098  
              __end_of_harftablo 0C39                  __size_of___bmul 0011                  __size_of___wmul 001B  
                        ___lwdiv 0505                          ___lwmod 04D9            __size_of_lcd_mesajyaz 001D  
                        __ptext1 064C                          __ptext2 04D9                          __ptext3 0505  
                        __ptext4 04AD                          __ptext5 0719                          __ptext6 0445  
                        __ptext7 059E                          __ptext8 042A                          __ptext9 03FE  
                        _lcd_git 03FE                          _lcd_sil 04AD                          _dpowers 0D71  
          _OSCILLATOR_Initialize 03DD                       _rakamtablo 0C39         ??_PIN_MANAGER_Initialize 0070  
                        main@buf 0031       __size_of_SYSTEM_Initialize 0009                          _sprintf 064C  
           end_of_initialization 07FD                     _lcd_mesajyaz 0445                     _lcd_kontrast 0039  
               ??_WDT_Initialize 0070                      ?_lcd_baslat 0070                 lcd_sayiyaz@adres 0024  
               lcd_sayiyaz@rakam 0027                    ??_lcd_harfyaz 0076                 lcd_sayiyaz@satir 0020  
               lcd_sayiyaz@sutun 0077                    ??_lcd_sayiyaz 007B                    ??_lcd_veriyaz 0070  
                 __end_of___bmul 03FE                   __end_of___wmul 0445           ?_OSCILLATOR_Initialize 0070  
            start_initialization 07FA  __size_of_PIN_MANAGER_Initialize 0018              __size_of_lcd_baslat 0026  
                       ??___bmul 0071                         ??___wmul 0074              __end_of_lcd_harfyaz 064C  
                    __pdataBANK0 0039              __end_of_lcd_sayiyaz 07FA              __end_of_lcd_veriyaz 0487  
                      ___latbits 0001                 lcd_harfyaz@adres 0077                    __pcstackBANK0 0020  
                    sprintf@flag 0029                      sprintf@prec 002A                 ___lwdiv@dividend 0072  
         _PIN_MANAGER_Initialize 0412                         ?___lwdiv 0070                         ?___lwmod 0078  
                      _harftablo 0A22                         ?_lcd_git 0074                         ?_lcd_sil 0070  
               ___lwdiv@quotient 0075                         ?_sprintf 0020                   ___wmul@product 0074  
                    _lcd_harfyaz 059E              __end_of_rakamtablo2 0A22                      _lcd_sayiyaz 0719  
                    _lcd_veriyaz 0462                ___wmul@multiplier 0070                     ??_lcd_baslat 0073  
                lcd_sayiyaz@font 007A                  lcd_sayiyaz@sayi 0078                  lcd_sayiyaz@sira 0028  
             __end_of_lcd_baslat 04AD          ??_OSCILLATOR_Initialize 0070                 __size_of___lwdiv 0034  
               __size_of___lwmod 002C                 __size_of_lcd_git 0014                 __size_of_lcd_sil 002C  
                     sprintf@val 002B                  ___lwdiv@divisor 0070                  ___lwdiv@counter 0077  
                       __ptext10 03ED                         __ptext11 0487                         __ptext12 0462  
                       __ptext13 03E4                         __ptext14 03D9                         __ptext15 0412  
                       __ptext16 03DD                 __size_of_sprintf 00CD                    __size_of_main 0065  
                    _rakamtablo2 0800               __end_of_rakamtablo 0D71                  lcd_veriyaz@veri 0071  
                       lcd_sil@i 0078                         main@sayi 0037          __size_of_WDT_Initialize 0004  
                      sprintf@ap 0028                        sprintf@sp 002D                 ___lwmod@dividend 007A  
        ?_PIN_MANAGER_Initialize 0070                __CFG_CLKOUTEN$OFF 0000                    __pstringtext1 0800  
                  __pstringtext2 0A22                    __pstringtext3 0C39                    __pstringtext4 0D71  
                  __pstringtext5 0D89                    __pstringtext6 0D90                    __pstringtext7 0000  
                       sprintf@c 002E                         sprintf@f 0020                  ___lwmod@divisor 0078  
                ___lwmod@counter 007D   __end_of_PIN_MANAGER_Initialize 042A                     ?_lcd_harfyaz 0070  
                  ?_lcd_mesajyaz 0079  
