

Microchip Technology PIC LITE Macro Assembler V1.42 build -159332390 
                                                                                               Fri Jul 07 14:13:19 2017

Microchip Technology Omniscient Code Generator v1.42 (Free mode) build 201704130522
     1                           	processor	16F1827
     2                           	opt	pw 120
     3                           	opt	lm
     4                           	psect	stringtext1,global,class=STRCODE,delta=2
     5                           	psect	stringtext2,global,class=STRCODE,delta=2
     6                           	psect	stringtext3,global,class=STRCODE,delta=2
     7                           	psect	stringtext4,global,class=STRCODE,delta=2
     8                           	psect	cinit,global,class=CODE,merge=1,delta=2
     9                           	psect	bssCOMMON,global,class=COMMON,space=1,delta=1
    10                           	psect	bssBANK0,global,class=BANK0,space=1,delta=1
    11                           	psect	clrtext,global,class=CODE,delta=2
    12                           	psect	cstackCOMMON,global,class=COMMON,space=1,delta=1
    13                           	psect	cstackBANK0,global,class=BANK0,space=1,delta=1
    14                           	psect	maintext,global,class=CODE,merge=1,split=1,delta=2
    15                           	psect	text1,local,class=CODE,merge=1,delta=2
    16                           	psect	text2,local,class=CODE,merge=1,delta=2
    17                           	psect	text3,local,class=CODE,merge=1,delta=2,group=2
    18                           	psect	text4,local,class=CODE,merge=1,delta=2,group=2
    19                           	psect	text5,local,class=CODE,merge=1,delta=2
    20                           	psect	text6,local,class=CODE,merge=1,delta=2
    21                           	psect	text7,local,class=CODE,merge=1,delta=2
    22                           	psect	text8,local,class=CODE,merge=1,delta=2
    23                           	psect	text9,local,class=CODE,merge=1,delta=2
    24                           	psect	text10,local,class=CODE,merge=1,delta=2
    25                           	psect	text11,local,class=CODE,merge=1,delta=2
    26                           	psect	text12,local,class=CODE,merge=1,delta=2
    27                           	psect	text13,local,class=CODE,merge=1,delta=2
    28                           	psect	text14,local,class=CODE,merge=1,delta=2
    29                           	psect	text15,local,class=CODE,merge=1,delta=2
    30                           	psect	text16,local,class=CODE,merge=1,delta=2
    31                           	psect	text17,local,class=CODE,merge=1,delta=2
    32                           	psect	text18,local,class=CODE,merge=1,delta=2
    33                           	psect	text19,local,class=CODE,merge=1,delta=2
    34                           	psect	text20,local,class=CODE,merge=1,delta=2
    35                           	psect	text21,local,class=CODE,merge=1,delta=2
    36                           	psect	text22,local,class=CODE,merge=1,delta=2
    37                           	psect	text23,local,class=CODE,merge=1,delta=2
    38                           	psect	intentry,global,class=CODE,delta=2
    39                           	psect	text25,local,class=CODE,merge=1,delta=2
    40                           	psect	swtext1,local,class=CONST,delta=2
    41                           	psect	text26,local,class=CODE,merge=1,delta=2
    42                           	psect	text27,local,class=CODE,merge=1,delta=2
    43                           	psect	text28,local,class=CODE,merge=1,delta=2
    44                           	dabs	1,0x7E,2
    45  0000                     
    46                           ; Version 1.42
    47                           ; Generated 13/04/2017 GMT
    48                           ; 
    49                           ; Copyright © 2017, Microchip Technology Inc. and its subsidiaries ("Microchip")
    50                           ; All rights reserved.
    51                           ; 
    52                           ; This software is developed by Microchip Technology Inc. and its subsidiaries ("Microch
      +                          ip").
    53                           ; 
    54                           ; Redistribution and use in source and binary forms, with or without modification, are
    55                           ; permitted provided that the following conditions are met:
    56                           ; 
    57                           ;     1. Redistributions of source code must retain the above copyright notice, this lis
      +                          t of
    58                           ;        conditions and the following disclaimer.
    59                           ; 
    60                           ;     2. Redistributions in binary form must reproduce the above copyright notice, this 
      +                          list
    61                           ;        of conditions and the following disclaimer in the documentation and/or other
    62                           ;        materials provided with the distribution.
    63                           ; 
    64                           ;     3. Microchip's name may not be used to endorse or promote products derived from th
      +                          is
    65                           ;        software without specific prior written permission.
    66                           ; 
    67                           ; THIS SOFTWARE IS PROVIDED BY MICROCHIP "AS IS" AND ANY EXPRESS OR IMPLIED WARRANTIES,
    68                           ; INCLUDING, BUT NOT LIMITED TO, THE IMPLIED WARRANTIES OF MERCHANTABILITY AND FITNESS F
      +                          OR
    69                           ; PURPOSE ARE DISCLAIMED.  IN NO EVENT SHALL MICROCHIP BE LIABLE FOR ANY DIRECT, INDIREC
      +                          T,
    70                           ; INCIDENTAL, SPECIAL, EXEMPLARY, OR CONSEQUENTIAL DAMAGES (INCLUDING BUT NOT LIMITED TO
    71                           ; PROCUREMENT OF SUBSTITUTE GOODS OR SERVICES; LOSS OF USE, DATA OR PROFITS; OR BUSINESS
    72                           ; INTERRUPTION) HOWSOEVER CAUSED AND ON ANY THEORY OF LIABILITY, WHETHER IN CONTRACT, ST
      +                          RICT
    73                           ; LIABILITY, OR TORT (INCLUDING NEGLIGENCE OR OTHERWISE) ARISING IN ANY WAY OUT OF THE U
      +                          SE OF
    74                           ; THIS SOFTWARE, EVEN IF ADVISED OF THE POSSIBILITY OF SUCH DAMAGE.
    75                           ; 
    76                           ; 
    77                           ; Code-generator required, PIC16F1827 Definitions
    78                           ; 
    79                           ; SFR Addresses
    80  0000                     	;# 
    81  0001                     	;# 
    82  0002                     	;# 
    83  0003                     	;# 
    84  0004                     	;# 
    85  0005                     	;# 
    86  0006                     	;# 
    87  0007                     	;# 
    88  0008                     	;# 
    89  0009                     	;# 
    90  000A                     	;# 
    91  000B                     	;# 
    92  000C                     	;# 
    93  000D                     	;# 
    94  0011                     	;# 
    95  0012                     	;# 
    96  0013                     	;# 
    97  0014                     	;# 
    98  0015                     	;# 
    99  0016                     	;# 
   100  0016                     	;# 
   101  0017                     	;# 
   102  0018                     	;# 
   103  0019                     	;# 
   104  001A                     	;# 
   105  001B                     	;# 
   106  001C                     	;# 
   107  001E                     	;# 
   108  001F                     	;# 
   109  008C                     	;# 
   110  008D                     	;# 
   111  0091                     	;# 
   112  0092                     	;# 
   113  0093                     	;# 
   114  0094                     	;# 
   115  0095                     	;# 
   116  0096                     	;# 
   117  0097                     	;# 
   118  0098                     	;# 
   119  0099                     	;# 
   120  009A                     	;# 
   121  009B                     	;# 
   122  009B                     	;# 
   123  009C                     	;# 
   124  009D                     	;# 
   125  009E                     	;# 
   126  010C                     	;# 
   127  010D                     	;# 
   128  0111                     	;# 
   129  0112                     	;# 
   130  0113                     	;# 
   131  0114                     	;# 
   132  0115                     	;# 
   133  0116                     	;# 
   134  0117                     	;# 
   135  0118                     	;# 
   136  0119                     	;# 
   137  011A                     	;# 
   138  011B                     	;# 
   139  011D                     	;# 
   140  011E                     	;# 
   141  018C                     	;# 
   142  018D                     	;# 
   143  0191                     	;# 
   144  0191                     	;# 
   145  0192                     	;# 
   146  0193                     	;# 
   147  0193                     	;# 
   148  0193                     	;# 
   149  0194                     	;# 
   150  0195                     	;# 
   151  0196                     	;# 
   152  0199                     	;# 
   153  019A                     	;# 
   154  019B                     	;# 
   155  019B                     	;# 
   156  019B                     	;# 
   157  019B                     	;# 
   158  019C                     	;# 
   159  019C                     	;# 
   160  019D                     	;# 
   161  019E                     	;# 
   162  019F                     	;# 
   163  020C                     	;# 
   164  020D                     	;# 
   165  0211                     	;# 
   166  0211                     	;# 
   167  0212                     	;# 
   168  0212                     	;# 
   169  0213                     	;# 
   170  0213                     	;# 
   171  0214                     	;# 
   172  0214                     	;# 
   173  0215                     	;# 
   174  0215                     	;# 
   175  0215                     	;# 
   176  0216                     	;# 
   177  0216                     	;# 
   178  0217                     	;# 
   179  0217                     	;# 
   180  0219                     	;# 
   181  021A                     	;# 
   182  021B                     	;# 
   183  021C                     	;# 
   184  021D                     	;# 
   185  021E                     	;# 
   186  021F                     	;# 
   187  0291                     	;# 
   188  0291                     	;# 
   189  0292                     	;# 
   190  0293                     	;# 
   191  0294                     	;# 
   192  0295                     	;# 
   193  0295                     	;# 
   194  0296                     	;# 
   195  0298                     	;# 
   196  0298                     	;# 
   197  0299                     	;# 
   198  029A                     	;# 
   199  029B                     	;# 
   200  029C                     	;# 
   201  029C                     	;# 
   202  029D                     	;# 
   203  029E                     	;# 
   204  029E                     	;# 
   205  0311                     	;# 
   206  0311                     	;# 
   207  0312                     	;# 
   208  0313                     	;# 
   209  0318                     	;# 
   210  0318                     	;# 
   211  0319                     	;# 
   212  031A                     	;# 
   213  0394                     	;# 
   214  0395                     	;# 
   215  0396                     	;# 
   216  039A                     	;# 
   217  039C                     	;# 
   218  039D                     	;# 
   219  039E                     	;# 
   220  039F                     	;# 
   221  0415                     	;# 
   222  0416                     	;# 
   223  0417                     	;# 
   224  041C                     	;# 
   225  041D                     	;# 
   226  041E                     	;# 
   227  0FE4                     	;# 
   228  0FE5                     	;# 
   229  0FE6                     	;# 
   230  0FE7                     	;# 
   231  0FE8                     	;# 
   232  0FE9                     	;# 
   233  0FEA                     	;# 
   234  0FEB                     	;# 
   235  0FED                     	;# 
   236  0FEE                     	;# 
   237  0FEF                     	;# 
   238  0000                     	;# 
   239  0001                     	;# 
   240  0002                     	;# 
   241  0003                     	;# 
   242  0004                     	;# 
   243  0005                     	;# 
   244  0006                     	;# 
   245  0007                     	;# 
   246  0008                     	;# 
   247  0009                     	;# 
   248  000A                     	;# 
   249  000B                     	;# 
   250  000C                     	;# 
   251  000D                     	;# 
   252  0011                     	;# 
   253  0012                     	;# 
   254  0013                     	;# 
   255  0014                     	;# 
   256  0015                     	;# 
   257  0016                     	;# 
   258  0016                     	;# 
   259  0017                     	;# 
   260  0018                     	;# 
   261  0019                     	;# 
   262  001A                     	;# 
   263  001B                     	;# 
   264  001C                     	;# 
   265  001E                     	;# 
   266  001F                     	;# 
   267  008C                     	;# 
   268  008D                     	;# 
   269  0091                     	;# 
   270  0092                     	;# 
   271  0093                     	;# 
   272  0094                     	;# 
   273  0095                     	;# 
   274  0096                     	;# 
   275  0097                     	;# 
   276  0098                     	;# 
   277  0099                     	;# 
   278  009A                     	;# 
   279  009B                     	;# 
   280  009B                     	;# 
   281  009C                     	;# 
   282  009D                     	;# 
   283  009E                     	;# 
   284  010C                     	;# 
   285  010D                     	;# 
   286  0111                     	;# 
   287  0112                     	;# 
   288  0113                     	;# 
   289  0114                     	;# 
   290  0115                     	;# 
   291  0116                     	;# 
   292  0117                     	;# 
   293  0118                     	;# 
   294  0119                     	;# 
   295  011A                     	;# 
   296  011B                     	;# 
   297  011D                     	;# 
   298  011E                     	;# 
   299  018C                     	;# 
   300  018D                     	;# 
   301  0191                     	;# 
   302  0191                     	;# 
   303  0192                     	;# 
   304  0193                     	;# 
   305  0193                     	;# 
   306  0193                     	;# 
   307  0194                     	;# 
   308  0195                     	;# 
   309  0196                     	;# 
   310  0199                     	;# 
   311  019A                     	;# 
   312  019B                     	;# 
   313  019B                     	;# 
   314  019B                     	;# 
   315  019B                     	;# 
   316  019C                     	;# 
   317  019C                     	;# 
   318  019D                     	;# 
   319  019E                     	;# 
   320  019F                     	;# 
   321  020C                     	;# 
   322  020D                     	;# 
   323  0211                     	;# 
   324  0211                     	;# 
   325  0212                     	;# 
   326  0212                     	;# 
   327  0213                     	;# 
   328  0213                     	;# 
   329  0214                     	;# 
   330  0214                     	;# 
   331  0215                     	;# 
   332  0215                     	;# 
   333  0215                     	;# 
   334  0216                     	;# 
   335  0216                     	;# 
   336  0217                     	;# 
   337  0217                     	;# 
   338  0219                     	;# 
   339  021A                     	;# 
   340  021B                     	;# 
   341  021C                     	;# 
   342  021D                     	;# 
   343  021E                     	;# 
   344  021F                     	;# 
   345  0291                     	;# 
   346  0291                     	;# 
   347  0292                     	;# 
   348  0293                     	;# 
   349  0294                     	;# 
   350  0295                     	;# 
   351  0295                     	;# 
   352  0296                     	;# 
   353  0298                     	;# 
   354  0298                     	;# 
   355  0299                     	;# 
   356  029A                     	;# 
   357  029B                     	;# 
   358  029C                     	;# 
   359  029C                     	;# 
   360  029D                     	;# 
   361  029E                     	;# 
   362  029E                     	;# 
   363  0311                     	;# 
   364  0311                     	;# 
   365  0312                     	;# 
   366  0313                     	;# 
   367  0318                     	;# 
   368  0318                     	;# 
   369  0319                     	;# 
   370  031A                     	;# 
   371  0394                     	;# 
   372  0395                     	;# 
   373  0396                     	;# 
   374  039A                     	;# 
   375  039C                     	;# 
   376  039D                     	;# 
   377  039E                     	;# 
   378  039F                     	;# 
   379  0415                     	;# 
   380  0416                     	;# 
   381  0417                     	;# 
   382  041C                     	;# 
   383  041D                     	;# 
   384  041E                     	;# 
   385  0FE4                     	;# 
   386  0FE5                     	;# 
   387  0FE6                     	;# 
   388  0FE7                     	;# 
   389  0FE8                     	;# 
   390  0FE9                     	;# 
   391  0FEA                     	;# 
   392  0FEB                     	;# 
   393  0FED                     	;# 
   394  0FEE                     	;# 
   395  0FEF                     	;# 
   396  0000                     	;# 
   397  0001                     	;# 
   398  0002                     	;# 
   399  0003                     	;# 
   400  0004                     	;# 
   401  0005                     	;# 
   402  0006                     	;# 
   403  0007                     	;# 
   404  0008                     	;# 
   405  0009                     	;# 
   406  000A                     	;# 
   407  000B                     	;# 
   408  000C                     	;# 
   409  000D                     	;# 
   410  0011                     	;# 
   411  0012                     	;# 
   412  0013                     	;# 
   413  0014                     	;# 
   414  0015                     	;# 
   415  0016                     	;# 
   416  0016                     	;# 
   417  0017                     	;# 
   418  0018                     	;# 
   419  0019                     	;# 
   420  001A                     	;# 
   421  001B                     	;# 
   422  001C                     	;# 
   423  001E                     	;# 
   424  001F                     	;# 
   425  008C                     	;# 
   426  008D                     	;# 
   427  0091                     	;# 
   428  0092                     	;# 
   429  0093                     	;# 
   430  0094                     	;# 
   431  0095                     	;# 
   432  0096                     	;# 
   433  0097                     	;# 
   434  0098                     	;# 
   435  0099                     	;# 
   436  009A                     	;# 
   437  009B                     	;# 
   438  009B                     	;# 
   439  009C                     	;# 
   440  009D                     	;# 
   441  009E                     	;# 
   442  010C                     	;# 
   443  010D                     	;# 
   444  0111                     	;# 
   445  0112                     	;# 
   446  0113                     	;# 
   447  0114                     	;# 
   448  0115                     	;# 
   449  0116                     	;# 
   450  0117                     	;# 
   451  0118                     	;# 
   452  0119                     	;# 
   453  011A                     	;# 
   454  011B                     	;# 
   455  011D                     	;# 
   456  011E                     	;# 
   457  018C                     	;# 
   458  018D                     	;# 
   459  0191                     	;# 
   460  0191                     	;# 
   461  0192                     	;# 
   462  0193                     	;# 
   463  0193                     	;# 
   464  0193                     	;# 
   465  0194                     	;# 
   466  0195                     	;# 
   467  0196                     	;# 
   468  0199                     	;# 
   469  019A                     	;# 
   470  019B                     	;# 
   471  019B                     	;# 
   472  019B                     	;# 
   473  019B                     	;# 
   474  019C                     	;# 
   475  019C                     	;# 
   476  019D                     	;# 
   477  019E                     	;# 
   478  019F                     	;# 
   479  020C                     	;# 
   480  020D                     	;# 
   481  0211                     	;# 
   482  0211                     	;# 
   483  0212                     	;# 
   484  0212                     	;# 
   485  0213                     	;# 
   486  0213                     	;# 
   487  0214                     	;# 
   488  0214                     	;# 
   489  0215                     	;# 
   490  0215                     	;# 
   491  0215                     	;# 
   492  0216                     	;# 
   493  0216                     	;# 
   494  0217                     	;# 
   495  0217                     	;# 
   496  0219                     	;# 
   497  021A                     	;# 
   498  021B                     	;# 
   499  021C                     	;# 
   500  021D                     	;# 
   501  021E                     	;# 
   502  021F                     	;# 
   503  0291                     	;# 
   504  0291                     	;# 
   505  0292                     	;# 
   506  0293                     	;# 
   507  0294                     	;# 
   508  0295                     	;# 
   509  0295                     	;# 
   510  0296                     	;# 
   511  0298                     	;# 
   512  0298                     	;# 
   513  0299                     	;# 
   514  029A                     	;# 
   515  029B                     	;# 
   516  029C                     	;# 
   517  029C                     	;# 
   518  029D                     	;# 
   519  029E                     	;# 
   520  029E                     	;# 
   521  0311                     	;# 
   522  0311                     	;# 
   523  0312                     	;# 
   524  0313                     	;# 
   525  0318                     	;# 
   526  0318                     	;# 
   527  0319                     	;# 
   528  031A                     	;# 
   529  0394                     	;# 
   530  0395                     	;# 
   531  0396                     	;# 
   532  039A                     	;# 
   533  039C                     	;# 
   534  039D                     	;# 
   535  039E                     	;# 
   536  039F                     	;# 
   537  0415                     	;# 
   538  0416                     	;# 
   539  0417                     	;# 
   540  041C                     	;# 
   541  041D                     	;# 
   542  041E                     	;# 
   543  0FE4                     	;# 
   544  0FE5                     	;# 
   545  0FE6                     	;# 
   546  0FE7                     	;# 
   547  0FE8                     	;# 
   548  0FE9                     	;# 
   549  0FEA                     	;# 
   550  0FEB                     	;# 
   551  0FED                     	;# 
   552  0FEE                     	;# 
   553  0FEF                     	;# 
   554  0000                     	;# 
   555  0001                     	;# 
   556  0002                     	;# 
   557  0003                     	;# 
   558  0004                     	;# 
   559  0005                     	;# 
   560  0006                     	;# 
   561  0007                     	;# 
   562  0008                     	;# 
   563  0009                     	;# 
   564  000A                     	;# 
   565  000B                     	;# 
   566  000C                     	;# 
   567  000D                     	;# 
   568  0011                     	;# 
   569  0012                     	;# 
   570  0013                     	;# 
   571  0014                     	;# 
   572  0015                     	;# 
   573  0016                     	;# 
   574  0016                     	;# 
   575  0017                     	;# 
   576  0018                     	;# 
   577  0019                     	;# 
   578  001A                     	;# 
   579  001B                     	;# 
   580  001C                     	;# 
   581  001E                     	;# 
   582  001F                     	;# 
   583  008C                     	;# 
   584  008D                     	;# 
   585  0091                     	;# 
   586  0092                     	;# 
   587  0093                     	;# 
   588  0094                     	;# 
   589  0095                     	;# 
   590  0096                     	;# 
   591  0097                     	;# 
   592  0098                     	;# 
   593  0099                     	;# 
   594  009A                     	;# 
   595  009B                     	;# 
   596  009B                     	;# 
   597  009C                     	;# 
   598  009D                     	;# 
   599  009E                     	;# 
   600  010C                     	;# 
   601  010D                     	;# 
   602  0111                     	;# 
   603  0112                     	;# 
   604  0113                     	;# 
   605  0114                     	;# 
   606  0115                     	;# 
   607  0116                     	;# 
   608  0117                     	;# 
   609  0118                     	;# 
   610  0119                     	;# 
   611  011A                     	;# 
   612  011B                     	;# 
   613  011D                     	;# 
   614  011E                     	;# 
   615  018C                     	;# 
   616  018D                     	;# 
   617  0191                     	;# 
   618  0191                     	;# 
   619  0192                     	;# 
   620  0193                     	;# 
   621  0193                     	;# 
   622  0193                     	;# 
   623  0194                     	;# 
   624  0195                     	;# 
   625  0196                     	;# 
   626  0199                     	;# 
   627  019A                     	;# 
   628  019B                     	;# 
   629  019B                     	;# 
   630  019B                     	;# 
   631  019B                     	;# 
   632  019C                     	;# 
   633  019C                     	;# 
   634  019D                     	;# 
   635  019E                     	;# 
   636  019F                     	;# 
   637  020C                     	;# 
   638  020D                     	;# 
   639  0211                     	;# 
   640  0211                     	;# 
   641  0212                     	;# 
   642  0212                     	;# 
   643  0213                     	;# 
   644  0213                     	;# 
   645  0214                     	;# 
   646  0214                     	;# 
   647  0215                     	;# 
   648  0215                     	;# 
   649  0215                     	;# 
   650  0216                     	;# 
   651  0216                     	;# 
   652  0217                     	;# 
   653  0217                     	;# 
   654  0219                     	;# 
   655  021A                     	;# 
   656  021B                     	;# 
   657  021C                     	;# 
   658  021D                     	;# 
   659  021E                     	;# 
   660  021F                     	;# 
   661  0291                     	;# 
   662  0291                     	;# 
   663  0292                     	;# 
   664  0293                     	;# 
   665  0294                     	;# 
   666  0295                     	;# 
   667  0295                     	;# 
   668  0296                     	;# 
   669  0298                     	;# 
   670  0298                     	;# 
   671  0299                     	;# 
   672  029A                     	;# 
   673  029B                     	;# 
   674  029C                     	;# 
   675  029C                     	;# 
   676  029D                     	;# 
   677  029E                     	;# 
   678  029E                     	;# 
   679  0311                     	;# 
   680  0311                     	;# 
   681  0312                     	;# 
   682  0313                     	;# 
   683  0318                     	;# 
   684  0318                     	;# 
   685  0319                     	;# 
   686  031A                     	;# 
   687  0394                     	;# 
   688  0395                     	;# 
   689  0396                     	;# 
   690  039A                     	;# 
   691  039C                     	;# 
   692  039D                     	;# 
   693  039E                     	;# 
   694  039F                     	;# 
   695  0415                     	;# 
   696  0416                     	;# 
   697  0417                     	;# 
   698  041C                     	;# 
   699  041D                     	;# 
   700  041E                     	;# 
   701  0FE4                     	;# 
   702  0FE5                     	;# 
   703  0FE6                     	;# 
   704  0FE7                     	;# 
   705  0FE8                     	;# 
   706  0FE9                     	;# 
   707  0FEA                     	;# 
   708  0FEB                     	;# 
   709  0FED                     	;# 
   710  0FEE                     	;# 
   711  0FEF                     	;# 
   712  0000                     	;# 
   713  0001                     	;# 
   714  0002                     	;# 
   715  0003                     	;# 
   716  0004                     	;# 
   717  0005                     	;# 
   718  0006                     	;# 
   719  0007                     	;# 
   720  0008                     	;# 
   721  0009                     	;# 
   722  000A                     	;# 
   723  000B                     	;# 
   724  000C                     	;# 
   725  000D                     	;# 
   726  0011                     	;# 
   727  0012                     	;# 
   728  0013                     	;# 
   729  0014                     	;# 
   730  0015                     	;# 
   731  0016                     	;# 
   732  0016                     	;# 
   733  0017                     	;# 
   734  0018                     	;# 
   735  0019                     	;# 
   736  001A                     	;# 
   737  001B                     	;# 
   738  001C                     	;# 
   739  001E                     	;# 
   740  001F                     	;# 
   741  008C                     	;# 
   742  008D                     	;# 
   743  0091                     	;# 
   744  0092                     	;# 
   745  0093                     	;# 
   746  0094                     	;# 
   747  0095                     	;# 
   748  0096                     	;# 
   749  0097                     	;# 
   750  0098                     	;# 
   751  0099                     	;# 
   752  009A                     	;# 
   753  009B                     	;# 
   754  009B                     	;# 
   755  009C                     	;# 
   756  009D                     	;# 
   757  009E                     	;# 
   758  010C                     	;# 
   759  010D                     	;# 
   760  0111                     	;# 
   761  0112                     	;# 
   762  0113                     	;# 
   763  0114                     	;# 
   764  0115                     	;# 
   765  0116                     	;# 
   766  0117                     	;# 
   767  0118                     	;# 
   768  0119                     	;# 
   769  011A                     	;# 
   770  011B                     	;# 
   771  011D                     	;# 
   772  011E                     	;# 
   773  018C                     	;# 
   774  018D                     	;# 
   775  0191                     	;# 
   776  0191                     	;# 
   777  0192                     	;# 
   778  0193                     	;# 
   779  0193                     	;# 
   780  0193                     	;# 
   781  0194                     	;# 
   782  0195                     	;# 
   783  0196                     	;# 
   784  0199                     	;# 
   785  019A                     	;# 
   786  019B                     	;# 
   787  019B                     	;# 
   788  019B                     	;# 
   789  019B                     	;# 
   790  019C                     	;# 
   791  019C                     	;# 
   792  019D                     	;# 
   793  019E                     	;# 
   794  019F                     	;# 
   795  020C                     	;# 
   796  020D                     	;# 
   797  0211                     	;# 
   798  0211                     	;# 
   799  0212                     	;# 
   800  0212                     	;# 
   801  0213                     	;# 
   802  0213                     	;# 
   803  0214                     	;# 
   804  0214                     	;# 
   805  0215                     	;# 
   806  0215                     	;# 
   807  0215                     	;# 
   808  0216                     	;# 
   809  0216                     	;# 
   810  0217                     	;# 
   811  0217                     	;# 
   812  0219                     	;# 
   813  021A                     	;# 
   814  021B                     	;# 
   815  021C                     	;# 
   816  021D                     	;# 
   817  021E                     	;# 
   818  021F                     	;# 
   819  0291                     	;# 
   820  0291                     	;# 
   821  0292                     	;# 
   822  0293                     	;# 
   823  0294                     	;# 
   824  0295                     	;# 
   825  0295                     	;# 
   826  0296                     	;# 
   827  0298                     	;# 
   828  0298                     	;# 
   829  0299                     	;# 
   830  029A                     	;# 
   831  029B                     	;# 
   832  029C                     	;# 
   833  029C                     	;# 
   834  029D                     	;# 
   835  029E                     	;# 
   836  029E                     	;# 
   837  0311                     	;# 
   838  0311                     	;# 
   839  0312                     	;# 
   840  0313                     	;# 
   841  0318                     	;# 
   842  0318                     	;# 
   843  0319                     	;# 
   844  031A                     	;# 
   845  0394                     	;# 
   846  0395                     	;# 
   847  0396                     	;# 
   848  039A                     	;# 
   849  039C                     	;# 
   850  039D                     	;# 
   851  039E                     	;# 
   852  039F                     	;# 
   853  0415                     	;# 
   854  0416                     	;# 
   855  0417                     	;# 
   856  041C                     	;# 
   857  041D                     	;# 
   858  041E                     	;# 
   859  0FE4                     	;# 
   860  0FE5                     	;# 
   861  0FE6                     	;# 
   862  0FE7                     	;# 
   863  0FE8                     	;# 
   864  0FE9                     	;# 
   865  0FEA                     	;# 
   866  0FEB                     	;# 
   867  0FED                     	;# 
   868  0FEE                     	;# 
   869  0FEF                     	;# 
   870  0000                     	;# 
   871  0001                     	;# 
   872  0002                     	;# 
   873  0003                     	;# 
   874  0004                     	;# 
   875  0005                     	;# 
   876  0006                     	;# 
   877  0007                     	;# 
   878  0008                     	;# 
   879  0009                     	;# 
   880  000A                     	;# 
   881  000B                     	;# 
   882  000C                     	;# 
   883  000D                     	;# 
   884  0011                     	;# 
   885  0012                     	;# 
   886  0013                     	;# 
   887  0014                     	;# 
   888  0015                     	;# 
   889  0016                     	;# 
   890  0016                     	;# 
   891  0017                     	;# 
   892  0018                     	;# 
   893  0019                     	;# 
   894  001A                     	;# 
   895  001B                     	;# 
   896  001C                     	;# 
   897  001E                     	;# 
   898  001F                     	;# 
   899  008C                     	;# 
   900  008D                     	;# 
   901  0091                     	;# 
   902  0092                     	;# 
   903  0093                     	;# 
   904  0094                     	;# 
   905  0095                     	;# 
   906  0096                     	;# 
   907  0097                     	;# 
   908  0098                     	;# 
   909  0099                     	;# 
   910  009A                     	;# 
   911  009B                     	;# 
   912  009B                     	;# 
   913  009C                     	;# 
   914  009D                     	;# 
   915  009E                     	;# 
   916  010C                     	;# 
   917  010D                     	;# 
   918  0111                     	;# 
   919  0112                     	;# 
   920  0113                     	;# 
   921  0114                     	;# 
   922  0115                     	;# 
   923  0116                     	;# 
   924  0117                     	;# 
   925  0118                     	;# 
   926  0119                     	;# 
   927  011A                     	;# 
   928  011B                     	;# 
   929  011D                     	;# 
   930  011E                     	;# 
   931  018C                     	;# 
   932  018D                     	;# 
   933  0191                     	;# 
   934  0191                     	;# 
   935  0192                     	;# 
   936  0193                     	;# 
   937  0193                     	;# 
   938  0193                     	;# 
   939  0194                     	;# 
   940  0195                     	;# 
   941  0196                     	;# 
   942  0199                     	;# 
   943  019A                     	;# 
   944  019B                     	;# 
   945  019B                     	;# 
   946  019B                     	;# 
   947  019B                     	;# 
   948  019C                     	;# 
   949  019C                     	;# 
   950  019D                     	;# 
   951  019E                     	;# 
   952  019F                     	;# 
   953  020C                     	;# 
   954  020D                     	;# 
   955  0211                     	;# 
   956  0211                     	;# 
   957  0212                     	;# 
   958  0212                     	;# 
   959  0213                     	;# 
   960  0213                     	;# 
   961  0214                     	;# 
   962  0214                     	;# 
   963  0215                     	;# 
   964  0215                     	;# 
   965  0215                     	;# 
   966  0216                     	;# 
   967  0216                     	;# 
   968  0217                     	;# 
   969  0217                     	;# 
   970  0219                     	;# 
   971  021A                     	;# 
   972  021B                     	;# 
   973  021C                     	;# 
   974  021D                     	;# 
   975  021E                     	;# 
   976  021F                     	;# 
   977  0291                     	;# 
   978  0291                     	;# 
   979  0292                     	;# 
   980  0293                     	;# 
   981  0294                     	;# 
   982  0295                     	;# 
   983  0295                     	;# 
   984  0296                     	;# 
   985  0298                     	;# 
   986  0298                     	;# 
   987  0299                     	;# 
   988  029A                     	;# 
   989  029B                     	;# 
   990  029C                     	;# 
   991  029C                     	;# 
   992  029D                     	;# 
   993  029E                     	;# 
   994  029E                     	;# 
   995  0311                     	;# 
   996  0311                     	;# 
   997  0312                     	;# 
   998  0313                     	;# 
   999  0318                     	;# 
  1000  0318                     	;# 
  1001  0319                     	;# 
  1002  031A                     	;# 
  1003  0394                     	;# 
  1004  0395                     	;# 
  1005  0396                     	;# 
  1006  039A                     	;# 
  1007  039C                     	;# 
  1008  039D                     	;# 
  1009  039E                     	;# 
  1010  039F                     	;# 
  1011  0415                     	;# 
  1012  0416                     	;# 
  1013  0417                     	;# 
  1014  041C                     	;# 
  1015  041D                     	;# 
  1016  041E                     	;# 
  1017  0FE4                     	;# 
  1018  0FE5                     	;# 
  1019  0FE6                     	;# 
  1020  0FE7                     	;# 
  1021  0FE8                     	;# 
  1022  0FE9                     	;# 
  1023  0FEA                     	;# 
  1024  0FEB                     	;# 
  1025  0FED                     	;# 
  1026  0FEE                     	;# 
  1027  0FEF                     	;# 
  1028  0000                     	;# 
  1029  0001                     	;# 
  1030  0002                     	;# 
  1031  0003                     	;# 
  1032  0004                     	;# 
  1033  0005                     	;# 
  1034  0006                     	;# 
  1035  0007                     	;# 
  1036  0008                     	;# 
  1037  0009                     	;# 
  1038  000A                     	;# 
  1039  000B                     	;# 
  1040  000C                     	;# 
  1041  000D                     	;# 
  1042  0011                     	;# 
  1043  0012                     	;# 
  1044  0013                     	;# 
  1045  0014                     	;# 
  1046  0015                     	;# 
  1047  0016                     	;# 
  1048  0016                     	;# 
  1049  0017                     	;# 
  1050  0018                     	;# 
  1051  0019                     	;# 
  1052  001A                     	;# 
  1053  001B                     	;# 
  1054  001C                     	;# 
  1055  001E                     	;# 
  1056  001F                     	;# 
  1057  008C                     	;# 
  1058  008D                     	;# 
  1059  0091                     	;# 
  1060  0092                     	;# 
  1061  0093                     	;# 
  1062  0094                     	;# 
  1063  0095                     	;# 
  1064  0096                     	;# 
  1065  0097                     	;# 
  1066  0098                     	;# 
  1067  0099                     	;# 
  1068  009A                     	;# 
  1069  009B                     	;# 
  1070  009B                     	;# 
  1071  009C                     	;# 
  1072  009D                     	;# 
  1073  009E                     	;# 
  1074  010C                     	;# 
  1075  010D                     	;# 
  1076  0111                     	;# 
  1077  0112                     	;# 
  1078  0113                     	;# 
  1079  0114                     	;# 
  1080  0115                     	;# 
  1081  0116                     	;# 
  1082  0117                     	;# 
  1083  0118                     	;# 
  1084  0119                     	;# 
  1085  011A                     	;# 
  1086  011B                     	;# 
  1087  011D                     	;# 
  1088  011E                     	;# 
  1089  018C                     	;# 
  1090  018D                     	;# 
  1091  0191                     	;# 
  1092  0191                     	;# 
  1093  0192                     	;# 
  1094  0193                     	;# 
  1095  0193                     	;# 
  1096  0193                     	;# 
  1097  0194                     	;# 
  1098  0195                     	;# 
  1099  0196                     	;# 
  1100  0199                     	;# 
  1101  019A                     	;# 
  1102  019B                     	;# 
  1103  019B                     	;# 
  1104  019B                     	;# 
  1105  019B                     	;# 
  1106  019C                     	;# 
  1107  019C                     	;# 
  1108  019D                     	;# 
  1109  019E                     	;# 
  1110  019F                     	;# 
  1111  020C                     	;# 
  1112  020D                     	;# 
  1113  0211                     	;# 
  1114  0211                     	;# 
  1115  0212                     	;# 
  1116  0212                     	;# 
  1117  0213                     	;# 
  1118  0213                     	;# 
  1119  0214                     	;# 
  1120  0214                     	;# 
  1121  0215                     	;# 
  1122  0215                     	;# 
  1123  0215                     	;# 
  1124  0216                     	;# 
  1125  0216                     	;# 
  1126  0217                     	;# 
  1127  0217                     	;# 
  1128  0219                     	;# 
  1129  021A                     	;# 
  1130  021B                     	;# 
  1131  021C                     	;# 
  1132  021D                     	;# 
  1133  021E                     	;# 
  1134  021F                     	;# 
  1135  0291                     	;# 
  1136  0291                     	;# 
  1137  0292                     	;# 
  1138  0293                     	;# 
  1139  0294                     	;# 
  1140  0295                     	;# 
  1141  0295                     	;# 
  1142  0296                     	;# 
  1143  0298                     	;# 
  1144  0298                     	;# 
  1145  0299                     	;# 
  1146  029A                     	;# 
  1147  029B                     	;# 
  1148  029C                     	;# 
  1149  029C                     	;# 
  1150  029D                     	;# 
  1151  029E                     	;# 
  1152  029E                     	;# 
  1153  0311                     	;# 
  1154  0311                     	;# 
  1155  0312                     	;# 
  1156  0313                     	;# 
  1157  0318                     	;# 
  1158  0318                     	;# 
  1159  0319                     	;# 
  1160  031A                     	;# 
  1161  0394                     	;# 
  1162  0395                     	;# 
  1163  0396                     	;# 
  1164  039A                     	;# 
  1165  039C                     	;# 
  1166  039D                     	;# 
  1167  039E                     	;# 
  1168  039F                     	;# 
  1169  0415                     	;# 
  1170  0416                     	;# 
  1171  0417                     	;# 
  1172  041C                     	;# 
  1173  041D                     	;# 
  1174  041E                     	;# 
  1175  0FE4                     	;# 
  1176  0FE5                     	;# 
  1177  0FE6                     	;# 
  1178  0FE7                     	;# 
  1179  0FE8                     	;# 
  1180  0FE9                     	;# 
  1181  0FEA                     	;# 
  1182  0FEB                     	;# 
  1183  0FED                     	;# 
  1184  0FEE                     	;# 
  1185  0FEF                     	;# 
  1186                           
  1187                           	psect	stringtext1
  1188  04EB                     __pstringtext1:	
  1189  04EB                     _dpowers:	
  1190  04EB  3401               	retlw	1
  1191  04EC  3400               	retlw	0
  1192  04ED  340A               	retlw	10
  1193  04EE  3400               	retlw	0
  1194  04EF  3464               	retlw	100
  1195  04F0  3400               	retlw	0
  1196  04F1  34E8               	retlw	232
  1197  04F2  3403               	retlw	3
  1198  04F3  3410               	retlw	16
  1199  04F4  3427               	retlw	39
  1200  04F5                     __end_of_dpowers:	
  1201  0011                     _PIR1bits	set	17
  1202  0012                     _PIR2bits	set	18
  1203  000B                     _INTCONbits	set	11
  1204  0091                     _PIE1bits	set	145
  1205  0092                     _PIE2bits	set	146
  1206  0095                     _OPTION_REGbits	set	149
  1207  008D                     _TRISB	set	141
  1208  008C                     _TRISA	set	140
  1209  0097                     _WDTCON	set	151
  1210  0098                     _OSCTUNE	set	152
  1211  0099                     _OSCCON	set	153
  1212  04D6                     _PLLR	set	1238
  1213  011D                     _APFCON0	set	285
  1214  011E                     _APFCON1	set	286
  1215  010D                     _LATB	set	269
  1216  010C                     _LATA	set	268
  1217  018C                     _ANSELA	set	396
  1218  018D                     _ANSELB	set	397
  1219  0211                     _SSP1BUF	set	529
  1220  0216                     _SSP1CON2bits	set	534
  1221  0215                     _SSP1CON1bits	set	533
  1222  0212                     _SSP1ADD	set	530
  1223  0217                     _SSP1CON3	set	535
  1224  0215                     _SSP1CON1	set	533
  1225  0214                     _SSP1STAT	set	532
  1226  020C                     _WPUA	set	524
  1227  020D                     _WPUB	set	525
  1228  04F5                     STR_1:	
  1229  04F5  344D               	retlw	77	;'M'
  1230  04F6  3465               	retlw	101	;'e'
  1231  04F7  3472               	retlw	114	;'r'
  1232  04F8  3468               	retlw	104	;'h'
  1233  04F9  3461               	retlw	97	;'a'
  1234  04FA  3462               	retlw	98	;'b'
  1235  04FB  3461               	retlw	97	;'a'
  1236  04FC  3420               	retlw	32	;' '
  1237  04FD  3444               	retlw	68	;'D'
  1238  04FE  3475               	retlw	117	;'u'
  1239  04FF  346E               	retlw	110	;'n'
  1240  0500  3479               	retlw	121	;'y'
  1241  0501  3461               	retlw	97	;'a'
  1242  0502  3420               	retlw	32	;' '
  1243  0503  343A               	retlw	58	;':'
  1244  0504  3429               	retlw	41	;')'
  1245  0505  3400               	retlw	0
  1246                           
  1247                           	psect	stringtext2
  1248  0584                     __pstringtext2:	
  1249  0584                     STR_2:	
  1250  0584  3420               	retlw	32	;' '
  1251  0585  3420               	retlw	32	;' '
  1252  0586  3420               	retlw	32	;' '
  1253  0587  3420               	retlw	32	;' '
  1254  0588  3420               	retlw	32	;' '
  1255  0589  3420               	retlw	32	;' '
  1256  058A  3400               	retlw	0
  1257                           
  1258                           	psect	stringtext3
  1259  05B7                     __pstringtext3:	
  1260  05B7                     STR_3:	
  1261  05B7  3425               	retlw	37	;'%'
  1262  05B8  3464               	retlw	100	;'d'
  1263  05B9  3400               	retlw	0
  1264                           
  1265                           	psect	stringtext4
  1266  0000                     __pstringtext4:	
  1267                           
  1268                           ; #config settings
  1269  0000                     
  1270                           	psect	cinit
  1271  0026                     start_initialization:	
  1272  0026                     __initialization:	
  1273                           
  1274                           ; Clear objects allocated to COMMON
  1275  0026  01F0               	clrf	__pbssCOMMON& (0+127)
  1276  0027  01F1               	clrf	(__pbssCOMMON+1)& (0+127)
  1277  0028  01F2               	clrf	(__pbssCOMMON+2)& (0+127)
  1278  0029  01F3               	clrf	(__pbssCOMMON+3)& (0+127)
  1279  002A  01F4               	clrf	(__pbssCOMMON+4)& (0+127)
  1280  002B  01F5               	clrf	(__pbssCOMMON+5)& (0+127)
  1281  002C  01F6               	clrf	(__pbssCOMMON+6)& (0+127)
  1282                           
  1283                           ; Clear objects allocated to BANK0
  1284  002D  304B               	movlw	low __pbssBANK0
  1285  002E  0084               	movwf	4
  1286  002F  3000               	movlw	high __pbssBANK0
  1287  0030  0085               	movwf	5
  1288  0031  3016               	movlw	22
  1289  0032  3185  2592         	fcall	clear_ram0
  1290  0034                     end_of_initialization:	
  1291                           ;End of C runtime variable initialization code
  1292                           
  1293  0034                     __end_of__initialization:	
  1294  0034  107E               	bcf	int$flags,0	;clear compiler interrupt flag (level 1)
  1295  0035  0020               	movlb	0
  1296  0036  3182  2A2B         	ljmp	_main	;jump to C main() function
  1297                           
  1298                           	psect	bssCOMMON
  1299  0070                     __pbssCOMMON:	
  1300  0070                     I2C1_ISR@i2c_bytes_left:	
  1301  0070                     	ds	1
  1302  0071                     I2C1_ISR@pi2c_buf_ptr:	
  1303  0071                     	ds	1
  1304  0072                     _p_i2c1_current:	
  1305  0072                     	ds	1
  1306  0073                     _p_i2c1_trb_current:	
  1307  0073                     	ds	1
  1308  0074                     _i2c1_trb_count:	
  1309  0074                     	ds	1
  1310  0075                     I2C1_ISR@i2c_address:	
  1311  0075                     	ds	2
  1312                           
  1313                           	psect	bssBANK0
  1314  004B                     __pbssBANK0:	
  1315  004B                     _i2c1_object:	
  1316  004B                     	ds	5
  1317  0050                     _sayac:	
  1318  0050                     	ds	2
  1319  0052                     _display_kursor_blink:	
  1320  0052                     	ds	1
  1321  0053                     I2C1_ISR@i2c_10bit_address_restart:	
  1322  0053                     	ds	1
  1323  0054                     _i2c1_state:	
  1324  0054                     	ds	1
  1325  0055                     I2C1_MasterRead@trBlock:	
  1326  0055                     	ds	4
  1327  0059                     I2C1_MasterWrite@trBlock:	
  1328  0059                     	ds	4
  1329  005D                     _i2c1_tr_queue:	
  1330  005D                     	ds	3
  1331  0060                     _pcf_port:	
  1332  0060                     	ds	1
  1333                           
  1334                           	psect	clrtext
  1335  0592                     clear_ram0:	
  1336                           ;	Called with FSR0 containing the base address, and
  1337                           ;	WREG with the size to clear
  1338                           
  1339  0592  0064               	clrwdt	;clear the watchdog before getting into this loop
  1340  0593                     clrloop0:	
  1341  0593  0180               	clrf	0	;clear RAM location pointed to by FSR
  1342  0594  3101               	addfsr 0,1
  1343  0595  0B89               	decfsz	9,f	;Have we reached the end of clearing yet?
  1344  0596  2D93               	goto	clrloop0	;have we reached the end yet?
  1345  0597  3400               	retlw	0	;all done for this memory range, return
  1346                           
  1347                           	psect	cstackCOMMON
  1348  0077                     __pcstackCOMMON:	
  1349  0077                     ?_PIN_MANAGER_Initialize:	
  1350  0077                     ?_OSCILLATOR_Initialize:	
  1351                           ; 1 bytes @ 0x0
  1352                           
  1353  0077                     ?_WDT_Initialize:	
  1354                           ; 1 bytes @ 0x0
  1355                           
  1356  0077                     ?_I2C1_Initialize:	
  1357                           ; 1 bytes @ 0x0
  1358                           
  1359  0077                     ?_I2C1_BusCollisionISR:	
  1360                           ; 1 bytes @ 0x0
  1361                           
  1362  0077                     ??_I2C1_BusCollisionISR:	
  1363                           ; 1 bytes @ 0x0
  1364                           
  1365  0077                     ?_I2C1_ISR:	
  1366                           ; 1 bytes @ 0x0
  1367                           
  1368  0077                     ?_I2C1_Stop:	
  1369                           ; 1 bytes @ 0x0
  1370                           
  1371  0077                     ??_I2C1_Stop:	
  1372                           ; 1 bytes @ 0x0
  1373                           
  1374  0077                     ?_I2C1_FunctionComplete:	
  1375                           ; 1 bytes @ 0x0
  1376                           
  1377  0077                     ??_I2C1_FunctionComplete:	
  1378                           ; 1 bytes @ 0x0
  1379                           
  1380  0077                     ?_lcd_baslat:	
  1381                           ; 1 bytes @ 0x0
  1382                           
  1383  0077                     ?_lcd_aydinlatma_kapat:	
  1384                           ; 1 bytes @ 0x0
  1385                           
  1386  0077                     ?_lcd_aydinlatma_ac:	
  1387                           ; 1 bytes @ 0x0
  1388                           
  1389  0077                     ?_lcd_komut:	
  1390                           ; 1 bytes @ 0x0
  1391                           
  1392  0077                     ?_lcd_sil:	
  1393                           ; 1 bytes @ 0x0
  1394                           
  1395  0077                     ?_lcd_harfyaz:	
  1396                           ; 1 bytes @ 0x0
  1397                           
  1398  0077                     ?_SYSTEM_Initialize:	
  1399                           ; 1 bytes @ 0x0
  1400                           
  1401  0077                     ?_INTERRUPT_InterruptManager:	
  1402                           ; 1 bytes @ 0x0
  1403                           
  1404  0077                     ?_main:	
  1405                           ; 1 bytes @ 0x0
  1406                           
  1407  0077                     ?_pcf8574_yaz:	
  1408                           ; 1 bytes @ 0x0
  1409                           
  1410  0077                     ?_pcf8574_yaz_wEnable:	
  1411                           ; 1 bytes @ 0x0
  1412                           
  1413  0077                     ?_lcd_mesgulmu:	
  1414                           ; 1 bytes @ 0x0
  1415                           
  1416  0077                     ?_putch:	
  1417                           ; 1 bytes @ 0x0
  1418                           
  1419                           
  1420                           ; 1 bytes @ 0x0
  1421  0077                     	ds	1
  1422  0078                     I2C1_Stop@completion_code:	
  1423                           
  1424                           ; 1 bytes @ 0x1
  1425  0078                     	ds	1
  1426  0079                     ??_I2C1_ISR:	
  1427                           
  1428                           ; 1 bytes @ 0x2
  1429  0079                     	ds	4
  1430  007D                     ??_INTERRUPT_InterruptManager:	
  1431                           
  1432                           ; 1 bytes @ 0x6
  1433  007D                     	ds	1
  1434                           
  1435                           	psect	cstackBANK0
  1436  0020                     __pcstackBANK0:	
  1437  0020                     ??_PIN_MANAGER_Initialize:	
  1438  0020                     ??_OSCILLATOR_Initialize:	
  1439                           ; 1 bytes @ 0x0
  1440                           
  1441  0020                     ??_WDT_Initialize:	
  1442                           ; 1 bytes @ 0x0
  1443                           
  1444  0020                     ??_I2C1_Initialize:	
  1445                           ; 1 bytes @ 0x0
  1446                           
  1447  0020                     ?_I2C1_MasterWriteTRBBuild:	
  1448                           ; 1 bytes @ 0x0
  1449                           
  1450  0020                     ?_I2C1_MasterTRBInsert:	
  1451                           ; 1 bytes @ 0x0
  1452                           
  1453  0020                     ??_lcd_mesgulmu:	
  1454                           ; 1 bytes @ 0x0
  1455                           
  1456  0020                     ?___lwdiv:	
  1457                           ; 1 bytes @ 0x0
  1458                           
  1459  0020                     I2C1_MasterTRBInsert@ptrb_list:	
  1460                           ; 2 bytes @ 0x0
  1461                           
  1462  0020                     I2C1_MasterWriteTRBBuild@pdata:	
  1463                           ; 1 bytes @ 0x0
  1464                           
  1465  0020                     ___lwdiv@divisor:	
  1466                           ; 1 bytes @ 0x0
  1467                           
  1468                           
  1469                           ; 2 bytes @ 0x0
  1470  0020                     	ds	1
  1471  0021                     ??_SYSTEM_Initialize:	
  1472  0021                     I2C1_MasterTRBInsert@pflag:	
  1473                           ; 1 bytes @ 0x1
  1474                           
  1475  0021                     I2C1_MasterWriteTRBBuild@length:	
  1476                           ; 1 bytes @ 0x1
  1477                           
  1478                           
  1479                           ; 1 bytes @ 0x1
  1480  0021                     	ds	1
  1481  0022                     ??_I2C1_MasterTRBInsert:	
  1482  0022                     I2C1_MasterWriteTRBBuild@address:	
  1483                           ; 1 bytes @ 0x2
  1484                           
  1485  0022                     ___lwdiv@dividend:	
  1486                           ; 2 bytes @ 0x2
  1487                           
  1488                           
  1489                           ; 2 bytes @ 0x2
  1490  0022                     	ds	1
  1491  0023                     I2C1_MasterTRBInsert@count:	
  1492                           
  1493                           ; 1 bytes @ 0x3
  1494  0023                     	ds	1
  1495  0024                     ??_I2C1_MasterWriteTRBBuild:	
  1496  0024                     ??___lwdiv:	
  1497                           ; 1 bytes @ 0x4
  1498                           
  1499                           
  1500                           ; 1 bytes @ 0x4
  1501  0024                     	ds	1
  1502  0025                     ___lwdiv@quotient:	
  1503                           
  1504                           ; 2 bytes @ 0x5
  1505  0025                     	ds	1
  1506  0026                     I2C1_MasterWriteTRBBuild@ptrb:	
  1507                           
  1508                           ; 1 bytes @ 0x6
  1509  0026                     	ds	1
  1510  0027                     ?_I2C1_MasterWrite:	
  1511  0027                     I2C1_MasterWrite@length:	
  1512                           ; 1 bytes @ 0x7
  1513                           
  1514  0027                     ___lwdiv@counter:	
  1515                           ; 1 bytes @ 0x7
  1516                           
  1517                           
  1518                           ; 1 bytes @ 0x7
  1519  0027                     	ds	1
  1520  0028                     ?___lwmod:	
  1521  0028                     I2C1_MasterWrite@address:	
  1522                           ; 2 bytes @ 0x8
  1523                           
  1524  0028                     ___lwmod@divisor:	
  1525                           ; 2 bytes @ 0x8
  1526                           
  1527                           
  1528                           ; 2 bytes @ 0x8
  1529  0028                     	ds	2
  1530  002A                     I2C1_MasterWrite@pflag:	
  1531  002A                     ___lwmod@dividend:	
  1532                           ; 1 bytes @ 0xA
  1533                           
  1534                           
  1535                           ; 2 bytes @ 0xA
  1536  002A                     	ds	1
  1537  002B                     ??_I2C1_MasterWrite:	
  1538                           
  1539                           ; 1 bytes @ 0xB
  1540  002B                     	ds	1
  1541  002C                     ??___lwmod:	
  1542                           
  1543                           ; 1 bytes @ 0xC
  1544  002C                     	ds	1
  1545  002D                     I2C1_MasterWrite@pdata:	
  1546  002D                     ___lwmod@counter:	
  1547                           ; 1 bytes @ 0xD
  1548                           
  1549                           
  1550                           ; 1 bytes @ 0xD
  1551  002D                     	ds	1
  1552  002E                     ??_pcf8574_yaz:	
  1553  002E                     ??_pcf8574_yaz_wEnable:	
  1554                           ; 1 bytes @ 0xE
  1555                           
  1556                           
  1557                           ; 1 bytes @ 0xE
  1558  002E                     	ds	1
  1559  002F                     pcf8574_yaz@veri:	
  1560                           
  1561                           ; 1 bytes @ 0xF
  1562  002F                     	ds	1
  1563  0030                     pcf8574_yaz@timeOut:	
  1564  0030                     pcf8574_yaz_wEnable@timeOut:	
  1565                           ; 2 bytes @ 0x10
  1566                           
  1567                           
  1568                           ; 2 bytes @ 0x10
  1569  0030                     	ds	2
  1570  0032                     pcf8574_yaz@writeBuffer:	
  1571  0032                     pcf8574_yaz_wEnable@writeBuffer:	
  1572                           ; 1 bytes @ 0x12
  1573                           
  1574                           
  1575                           ; 3 bytes @ 0x12
  1576  0032                     	ds	1
  1577  0033                     pcf8574_yaz@status:	
  1578                           
  1579                           ; 1 bytes @ 0x13
  1580  0033                     	ds	1
  1581  0034                     ??_lcd_aydinlatma_kapat:	
  1582  0034                     ??_lcd_aydinlatma_ac:	
  1583                           ; 1 bytes @ 0x14
  1584                           
  1585                           
  1586                           ; 1 bytes @ 0x14
  1587  0034                     	ds	1
  1588  0035                     pcf8574_yaz_wEnable@status:	
  1589                           
  1590                           ; 1 bytes @ 0x15
  1591  0035                     	ds	1
  1592  0036                     ??_lcd_komut:	
  1593  0036                     ??_lcd_harfyaz:	
  1594                           ; 1 bytes @ 0x16
  1595                           
  1596                           
  1597                           ; 1 bytes @ 0x16
  1598  0036                     	ds	2
  1599  0038                     lcd_harfyaz@harf:	
  1600  0038                     lcd_komut@komut:	
  1601                           ; 1 bytes @ 0x18
  1602                           
  1603                           
  1604                           ; 1 bytes @ 0x18
  1605  0038                     	ds	1
  1606  0039                     ??_lcd_baslat:	
  1607  0039                     ?_lcd_git:	
  1608                           ; 1 bytes @ 0x19
  1609                           
  1610  0039                     ??_lcd_sil:	
  1611                           ; 1 bytes @ 0x19
  1612                           
  1613  0039                     ??_putch:	
  1614                           ; 1 bytes @ 0x19
  1615                           
  1616  0039                     lcd_git@sutun:	
  1617                           ; 1 bytes @ 0x19
  1618                           
  1619  0039                     putch@byte:	
  1620                           ; 1 bytes @ 0x19
  1621                           
  1622                           
  1623                           ; 1 bytes @ 0x19
  1624  0039                     	ds	1
  1625  003A                     ??_lcd_git:	
  1626  003A                     ?_printf:	
  1627                           ; 1 bytes @ 0x1A
  1628                           
  1629  003A                     printf@f:	
  1630                           ; 2 bytes @ 0x1A
  1631                           
  1632                           
  1633                           ; 2 bytes @ 0x1A
  1634  003A                     	ds	1
  1635  003B                     lcd_git@satir:	
  1636                           
  1637                           ; 1 bytes @ 0x1B
  1638  003B                     	ds	1
  1639  003C                     lcd_git@temp:	
  1640                           
  1641                           ; 1 bytes @ 0x1C
  1642  003C                     	ds	1
  1643  003D                     ?_lcd_mesajyaz:	
  1644  003D                     lcd_mesajyaz@sutun:	
  1645                           ; 1 bytes @ 0x1D
  1646                           
  1647                           
  1648                           ; 1 bytes @ 0x1D
  1649  003D                     	ds	1
  1650  003E                     ??_printf:	
  1651  003E                     lcd_mesajyaz@mesaj:	
  1652                           ; 1 bytes @ 0x1E
  1653                           
  1654                           
  1655                           ; 2 bytes @ 0x1E
  1656  003E                     	ds	2
  1657  0040                     ??_lcd_mesajyaz:	
  1658                           
  1659                           ; 1 bytes @ 0x20
  1660  0040                     	ds	1
  1661  0041                     lcd_mesajyaz@satir:	
  1662                           
  1663                           ; 1 bytes @ 0x21
  1664  0041                     	ds	1
  1665  0042                     printf@ap:	
  1666                           
  1667                           ; 1 bytes @ 0x22
  1668  0042                     	ds	1
  1669  0043                     printf@flag:	
  1670                           
  1671                           ; 1 bytes @ 0x23
  1672  0043                     	ds	1
  1673  0044                     printf@prec:	
  1674                           
  1675                           ; 1 bytes @ 0x24
  1676  0044                     	ds	1
  1677  0045                     printf@val:	
  1678                           
  1679                           ; 2 bytes @ 0x25
  1680  0045                     	ds	2
  1681  0047                     printf@c:	
  1682                           
  1683                           ; 1 bytes @ 0x27
  1684  0047                     	ds	1
  1685  0048                     ??_main:	
  1686                           
  1687                           ; 1 bytes @ 0x28
  1688  0048                     	ds	2
  1689  004A                     main@i:	
  1690                           
  1691                           ; 1 bytes @ 0x2A
  1692  004A                     	ds	1
  1693                           
  1694                           	psect	maintext
  1695  022B                     __pmaintext:	
  1696 ;;
  1697 ;;Main: autosize = 0, tempsize = 2, incstack = 0, save=0
  1698 ;;
  1699 ;; *************** function _main *****************
  1700 ;; Defined at:
  1701 ;;		line 54 in file "main.c"
  1702 ;; Parameters:    Size  Location     Type
  1703 ;;		None
  1704 ;; Auto vars:     Size  Location     Type
  1705 ;;  i               1   42[BANK0 ] unsigned char 
  1706 ;; Return value:  Size  Location     Type
  1707 ;;                  1    wreg      void 
  1708 ;; Registers used:
  1709 ;;		wreg, fsr0l, fsr0h, fsr1l, fsr1h, status,2, status,0, pclath, cstack
  1710 ;; Tracked objects:
  1711 ;;		On entry : B1F/0
  1712 ;;		On exit  : 0/0
  1713 ;;		Unchanged: 0/0
  1714 ;; Data sizes:     COMMON   BANK0   BANK1   BANK2   BANK3   BANK4
  1715 ;;      Params:         0       0       0       0       0       0
  1716 ;;      Locals:         0       1       0       0       0       0
  1717 ;;      Temps:          0       2       0       0       0       0
  1718 ;;      Totals:         0       3       0       0       0       0
  1719 ;;Total ram usage:        3 bytes
  1720 ;; Hardware stack levels required when called:    9
  1721 ;; This function calls:
  1722 ;;		_SYSTEM_Initialize
  1723 ;;		_lcd_aydinlatma_ac
  1724 ;;		_lcd_aydinlatma_kapat
  1725 ;;		_lcd_baslat
  1726 ;;		_lcd_git
  1727 ;;		_lcd_mesajyaz
  1728 ;;		_printf
  1729 ;; This function is called by:
  1730 ;;		Startup code after reset
  1731 ;; This function uses a non-reentrant model
  1732 ;;
  1733                           
  1734                           
  1735                           ;psect for function _main
  1736  022B                     _main:	
  1737                           
  1738                           ;main.c: 57: SYSTEM_Initialize();
  1739                           
  1740                           ;incstack = 0
  1741                           ; Regs used in _main: [wreg-fsr1h+status,2+status,0+pclath+cstack]
  1742  022B  3185  2578  3182   	fcall	_SYSTEM_Initialize
  1743                           
  1744                           ;main.c: 63: (INTCONbits.GIE = 1);
  1745  022E  178B               	bsf	11,7	;volatile
  1746                           
  1747                           ;main.c: 66: (INTCONbits.PEIE = 1);
  1748  022F  170B               	bsf	11,6	;volatile
  1749                           
  1750                           ;main.c: 74: _delay((unsigned long)((500)*(32000000/4000.0)));
  1751  0230  3015               	movlw	21
  1752  0231  0020               	movlb	0	; select bank0
  1753  0232  00C9               	movwf	??_main+1
  1754  0233  304B               	movlw	75
  1755  0234  00C8               	movwf	??_main
  1756  0235  30BE               	movlw	190
  1757  0236                     u1597:	
  1758  0236  0B89               	decfsz	9,f
  1759  0237  2A36               	goto	u1597
  1760  0238  0BC8               	decfsz	??_main,f
  1761  0239  2A36               	goto	u1597
  1762  023A  0BC9               	decfsz	??_main+1,f
  1763  023B  2A36               	goto	u1597
  1764  023C  0000               	nop
  1765                           
  1766                           ;main.c: 75: lcd_baslat();
  1767  023D  3182  22F4  3182   	fcall	_lcd_baslat
  1768                           
  1769                           ;main.c: 76: lcd_mesajyaz(1, 1, "Merhaba Dunya :)");
  1770  0240  0020               	movlb	0	; select bank0
  1771  0241  01BD               	clrf	lcd_mesajyaz@sutun
  1772  0242  0ABD               	incf	lcd_mesajyaz@sutun,f
  1773  0243  30F5               	movlw	low (STR_1| (0+32768))
  1774  0244  00BE               	movwf	lcd_mesajyaz@mesaj
  1775  0245  3084               	movlw	high (STR_1| (0+32768))
  1776  0246  00BF               	movwf	lcd_mesajyaz@mesaj+1
  1777  0247  3001               	movlw	1
  1778  0248  3184  24AB  3182   	fcall	_lcd_mesajyaz
  1779                           
  1780                           ;main.c: 79: for(char i=0;i<3;i++)
  1781  024B  0020               	movlb	0	; select bank0
  1782  024C  01CA               	clrf	main@i
  1783  024D  3003               	movlw	3
  1784  024E  024A               	subwf	main@i,w
  1785  024F  1803               	btfsc	3,0
  1786  0250  2A7A               	goto	l2295
  1787  0251                     l2285:	
  1788                           
  1789                           ;main.c: 80: {
  1790                           ;main.c: 81: lcd_aydinlatma_kapat();
  1791  0251  3185  25A4  3182   	fcall	_lcd_aydinlatma_kapat
  1792                           
  1793                           ;main.c: 82: _delay((unsigned long)((500)*(32000000/4000.0)));
  1794  0254  3015               	movlw	21
  1795  0255  0020               	movlb	0	; select bank0
  1796  0256  00C9               	movwf	??_main+1
  1797  0257  304B               	movlw	75
  1798  0258  00C8               	movwf	??_main
  1799  0259  30BE               	movlw	190
  1800  025A                     u1607:	
  1801  025A  0B89               	decfsz	9,f
  1802  025B  2A5A               	goto	u1607
  1803  025C  0BC8               	decfsz	??_main,f
  1804  025D  2A5A               	goto	u1607
  1805  025E  0BC9               	decfsz	??_main+1,f
  1806  025F  2A5A               	goto	u1607
  1807  0260  0000               	nop
  1808                           
  1809                           ;main.c: 83: lcd_aydinlatma_ac();
  1810  0261  3185  259E  3182   	fcall	_lcd_aydinlatma_ac
  1811                           
  1812                           ;main.c: 84: _delay((unsigned long)((500)*(32000000/4000.0)));
  1813  0264  3015               	movlw	21
  1814  0265  0020               	movlb	0	; select bank0
  1815  0266  00C9               	movwf	??_main+1
  1816  0267  304B               	movlw	75
  1817  0268  00C8               	movwf	??_main
  1818  0269  30BE               	movlw	190
  1819  026A                     u1617:	
  1820  026A  0B89               	decfsz	9,f
  1821  026B  2A6A               	goto	u1617
  1822  026C  0BC8               	decfsz	??_main,f
  1823  026D  2A6A               	goto	u1617
  1824  026E  0BC9               	decfsz	??_main+1,f
  1825  026F  2A6A               	goto	u1617
  1826  0270  0000               	nop
  1827  0271  3001               	movlw	1
  1828  0272  0020               	movlb	0	; select bank0
  1829  0273  00C8               	movwf	??_main
  1830  0274  0848               	movf	??_main,w
  1831  0275  07CA               	addwf	main@i,f
  1832  0276  3003               	movlw	3
  1833  0277  024A               	subwf	main@i,w
  1834  0278  1C03               	skipc
  1835  0279  2A51               	goto	l2285
  1836  027A                     l2295:	
  1837                           ;main.c: 85: }
  1838                           ;main.c: 88: while (1)
  1839                           
  1840                           
  1841                           ;main.c: 89: {
  1842                           ;main.c: 91: _delay((unsigned long)((500)*(32000000/4000.0)));
  1843  027A  3015               	movlw	21
  1844  027B  0020               	movlb	0	; select bank0
  1845  027C  00C9               	movwf	??_main+1
  1846  027D  304B               	movlw	75
  1847  027E  00C8               	movwf	??_main
  1848  027F  30BE               	movlw	190
  1849  0280                     u1627:	
  1850  0280  0B89               	decfsz	9,f
  1851  0281  2A80               	goto	u1627
  1852  0282  0BC8               	decfsz	??_main,f
  1853  0283  2A80               	goto	u1627
  1854  0284  0BC9               	decfsz	??_main+1,f
  1855  0285  2A80               	goto	u1627
  1856  0286  0000               	nop
  1857                           
  1858                           ;main.c: 92: lcd_mesajyaz(2,5,"      ");
  1859  0287  3005               	movlw	5
  1860  0288  0020               	movlb	0	; select bank0
  1861  0289  00C8               	movwf	??_main
  1862  028A  0848               	movf	??_main,w
  1863  028B  00BD               	movwf	lcd_mesajyaz@sutun
  1864  028C  3084               	movlw	low (STR_2| (0+32768))
  1865  028D  00BE               	movwf	lcd_mesajyaz@mesaj
  1866  028E  3085               	movlw	high (STR_2| (0+32768))
  1867  028F  00BF               	movwf	lcd_mesajyaz@mesaj+1
  1868  0290  3002               	movlw	2
  1869  0291  3184  24AB  3182   	fcall	_lcd_mesajyaz
  1870                           
  1871                           ;main.c: 93: lcd_git(2,5);
  1872  0294  3005               	movlw	5
  1873  0295  0020               	movlb	0	; select bank0
  1874  0296  00C8               	movwf	??_main
  1875  0297  0848               	movf	??_main,w
  1876  0298  00B9               	movwf	lcd_git@sutun
  1877  0299  3002               	movlw	2
  1878  029A  3184  245A  3182   	fcall	_lcd_git
  1879                           
  1880                           ;main.c: 94: printf("%d",sayac++);
  1881  029D  30B7               	movlw	low (STR_3| (0+32768))
  1882  029E  0020               	movlb	0	; select bank0
  1883  029F  00BA               	movwf	printf@f
  1884  02A0  3085               	movlw	high (STR_3| (0+32768))
  1885  02A1  00BB               	movwf	printf@f+1
  1886  02A2  0851               	movf	_sayac+1,w
  1887  02A3  00BD               	movwf	?_printf+3
  1888  02A4  0850               	movf	_sayac,w
  1889  02A5  00BC               	movwf	?_printf+2
  1890  02A6  3181  2173  3182   	fcall	_printf
  1891  02A9  3001               	movlw	1
  1892  02AA  0020               	movlb	0	; select bank0
  1893  02AB  07D0               	addwf	_sayac,f
  1894  02AC  3000               	movlw	0
  1895  02AD  3DD1               	addwfc	_sayac+1,f
  1896  02AE  2A7A               	goto	l2295
  1897  02AF                     __end_of_main:	
  1898                           
  1899                           	psect	text1
  1900  0173                     __ptext1:	
  1901 ;; *************** function _printf *****************
  1902 ;; Defined at:
  1903 ;;		line 464 in file "C:\Program Files (x86)\Microchip\xc8\v1.42\sources\common\doprnt.c"
  1904 ;; Parameters:    Size  Location     Type
  1905 ;;  f               2   26[BANK0 ] PTR const unsigned char 
  1906 ;;		 -> STR_3(3), 
  1907 ;; Auto vars:     Size  Location     Type
  1908 ;;  tmpval          4    0        struct .
  1909 ;;  val             2   37[BANK0 ] unsigned int 
  1910 ;;  cp              2    0        PTR const unsigned char 
  1911 ;;  len             2    0        unsigned int 
  1912 ;;  c               1   39[BANK0 ] char 
  1913 ;;  prec            1   36[BANK0 ] char 
  1914 ;;  flag            1   35[BANK0 ] unsigned char 
  1915 ;;  ap              1   34[BANK0 ] PTR void [1]
  1916 ;;		 -> ?_printf(2), 
  1917 ;; Return value:  Size  Location     Type
  1918 ;;                  2   26[BANK0 ] int 
  1919 ;; Registers used:
  1920 ;;		wreg, fsr0l, fsr0h, fsr1l, fsr1h, status,2, status,0, pclath, cstack
  1921 ;; Tracked objects:
  1922 ;;		On entry : 0/0
  1923 ;;		On exit  : 0/0
  1924 ;;		Unchanged: 0/0
  1925 ;; Data sizes:     COMMON   BANK0   BANK1   BANK2   BANK3   BANK4
  1926 ;;      Params:         0       4       0       0       0       0
  1927 ;;      Locals:         0       6       0       0       0       0
  1928 ;;      Temps:          0       4       0       0       0       0
  1929 ;;      Totals:         0      14       0       0       0       0
  1930 ;;Total ram usage:       14 bytes
  1931 ;; Hardware stack levels used:    1
  1932 ;; Hardware stack levels required when called:    8
  1933 ;; This function calls:
  1934 ;;		___lwdiv
  1935 ;;		___lwmod
  1936 ;;		_putch
  1937 ;; This function is called by:
  1938 ;;		_main
  1939 ;; This function uses a non-reentrant model
  1940 ;;
  1941                           
  1942                           
  1943                           ;psect for function _printf
  1944  0173                     _printf:	
  1945                           
  1946                           ;doprnt.c: 466: va_list ap;
  1947                           ;doprnt.c: 499: signed char c;
  1948                           ;doprnt.c: 506: signed char prec;
  1949                           ;doprnt.c: 508: unsigned char flag;
  1950                           ;doprnt.c: 523: union {
  1951                           ;doprnt.c: 524: unsigned long vd;
  1952                           ;doprnt.c: 525: double integ;
  1953                           ;doprnt.c: 526: } tmpval;
  1954                           ;doprnt.c: 528: unsigned int val;
  1955                           ;doprnt.c: 529: unsigned len;
  1956                           ;doprnt.c: 530: const char * cp;
  1957                           ;doprnt.c: 533: *ap = __va_start();
  1958                           
  1959                           ;incstack = 0
  1960                           ; Regs used in _printf: [wreg-fsr1h+status,2+status,0+pclath+cstack]
  1961  0173  303C               	movlw	(low ((?_printf| 0+2)))& (0+255)
  1962  0174  0020               	movlb	0	; select bank0
  1963  0175  00BE               	movwf	??_printf
  1964  0176  083E               	movf	??_printf,w
  1965  0177  00C2               	movwf	printf@ap
  1966  0178                     l2265:	
  1967                           ;doprnt.c: 536: while(c = *f++) {
  1968                           
  1969  0178  0020               	movlb	0	; select bank0
  1970  0179  083B               	movf	printf@f+1,w
  1971  017A  00BF               	movwf	??_printf+1
  1972  017B  083A               	movf	printf@f,w
  1973  017C  00BE               	movwf	??_printf
  1974  017D  0ABA               	incf	printf@f,f
  1975  017E  1903               	skipnz
  1976  017F  0ABB               	incf	printf@f+1,f
  1977  0180  083E               	movf	??_printf,w
  1978  0181  0084               	movwf	4
  1979  0182  083F               	movf	??_printf+1,w
  1980  0183  0085               	movwf	5
  1981  0184  0800               	movf	0,w	;code access
  1982  0185  00C0               	movwf	??_printf+2
  1983  0186  0840               	movf	??_printf+2,w
  1984  0187  00C7               	movwf	printf@c
  1985  0188  0847               	movf	printf@c,w
  1986  0189  1903               	btfsc	3,2
  1987  018A  0008               	return
  1988                           
  1989                           ;doprnt.c: 538: if(c != '%')
  1990  018B  3025               	movlw	37
  1991  018C  0647               	xorwf	printf@c,w
  1992  018D  1903               	btfsc	3,2
  1993  018E  2994               	goto	l2225
  1994                           
  1995                           ;doprnt.c: 540: {
  1996                           ;doprnt.c: 541: (putch(c) );
  1997  018F  0847               	movf	printf@c,w
  1998  0190  3185  2598  3181   	fcall	_putch
  1999                           
  2000                           ;doprnt.c: 542: continue;
  2001  0193  2978               	goto	l2265
  2002  0194                     l2225:	
  2003                           
  2004                           ;doprnt.c: 543: }
  2005                           ;doprnt.c: 548: flag = 0;
  2006  0194  0020               	movlb	0	; select bank0
  2007  0195  01C3               	clrf	printf@flag
  2008                           
  2009                           ;doprnt.c: 822: }
  2010                           
  2011                           ;doprnt.c: 813: continue;
  2012                           
  2013                           ;doprnt.c: 802: default:
  2014                           
  2015                           ;doprnt.c: 698: case 'i':
  2016                           ;doprnt.c: 699: break;
  2017                           
  2018                           ;doprnt.c: 697: case 'd':
  2019                           
  2020                           ;doprnt.c: 638: goto alldone;
  2021                           
  2022                           ;doprnt.c: 637: case 0:
  2023                           
  2024                           ;doprnt.c: 635: switch(c = *f++) {
  2025  0196  083B               	movf	printf@f+1,w
  2026  0197  00BF               	movwf	??_printf+1
  2027  0198  083A               	movf	printf@f,w
  2028  0199  00BE               	movwf	??_printf
  2029  019A  0ABA               	incf	printf@f,f
  2030  019B  1903               	skipnz
  2031  019C  0ABB               	incf	printf@f+1,f
  2032  019D  083E               	movf	??_printf,w
  2033  019E  0084               	movwf	4
  2034  019F  083F               	movf	??_printf+1,w
  2035  01A0  0085               	movwf	5
  2036  01A1  0800               	movf	0,w	;code access
  2037  01A2  00C7               	movwf	printf@c
  2038                           
  2039                           ; Switch size 1, requested type "space"
  2040                           ; Number of cases is 3, Range of values is 0 to 105
  2041                           ; switch strategies available:
  2042                           ; Name         Instructions Cycles
  2043                           ; simple_byte           10     6 (average)
  2044                           ; direct_byte          218     6 (fixed)
  2045                           ; jumptable            260     6 (fixed)
  2046                           ;	Chosen strategy is simple_byte
  2047  01A3  3A00               	xorlw	0	; case 0
  2048  01A4  1903               	skipnz
  2049  01A5  2A2A               	goto	l419
  2050  01A6  3A64               	xorlw	100	; case 100
  2051  01A7  1903               	skipnz
  2052  01A8  29AD               	goto	l2231
  2053  01A9  3A0D               	xorlw	13	; case 105
  2054  01AA  1903               	skipnz
  2055  01AB  29AD               	goto	l2231
  2056  01AC  2978               	goto	l2265
  2057  01AD                     l2231:	
  2058                           
  2059                           ;doprnt.c: 1253: {
  2060                           ;doprnt.c: 1259: val = (int)(*(int *)__va_arg((*(int **)ap), (int)0));
  2061  01AD  0842               	movf	printf@ap,w
  2062  01AE  0086               	movwf	6
  2063  01AF  0187               	clrf	7
  2064  01B0  3F40               	moviw [0]fsr1
  2065  01B1  00C5               	movwf	printf@val
  2066  01B2  3F41               	moviw [1]fsr1
  2067  01B3  00C6               	movwf	printf@val+1
  2068  01B4  3002               	movlw	2
  2069  01B5  00BE               	movwf	??_printf
  2070  01B6  083E               	movf	??_printf,w
  2071  01B7  07C2               	addwf	printf@ap,f
  2072                           
  2073                           ;doprnt.c: 1261: if((int)val < 0) {
  2074  01B8  1FC6               	btfss	printf@val+1,7
  2075  01B9  29C3               	goto	l2241
  2076                           
  2077                           ;doprnt.c: 1262: flag |= 0x03;
  2078  01BA  3003               	movlw	3
  2079  01BB  00BE               	movwf	??_printf
  2080  01BC  083E               	movf	??_printf,w
  2081  01BD  04C3               	iorwf	printf@flag,f
  2082                           
  2083                           ;doprnt.c: 1263: val = -val;
  2084  01BE  09C5               	comf	printf@val,f
  2085  01BF  09C6               	comf	printf@val+1,f
  2086  01C0  0AC5               	incf	printf@val,f
  2087  01C1  1903               	skipnz
  2088  01C2  0AC6               	incf	printf@val+1,f
  2089  01C3                     l2241:	
  2090                           
  2091                           ;doprnt.c: 1264: }
  2092                           ;doprnt.c: 1266: }
  2093                           ;doprnt.c: 1305: for(c = 1 ; c != sizeof dpowers/sizeof dpowers[0] ; c++)
  2094  01C3  01C7               	clrf	printf@c
  2095  01C4  0AC7               	incf	printf@c,f
  2096  01C5  3005               	movlw	5
  2097  01C6  0647               	xorwf	printf@c,w
  2098  01C7  1903               	btfsc	3,2
  2099  01C8  29E8               	goto	l2253
  2100  01C9                     l2247:	
  2101                           
  2102                           ;doprnt.c: 1306: if(val < dpowers[c])
  2103  01C9  0847               	movf	printf@c,w
  2104  01CA  00BE               	movwf	??_printf
  2105  01CB  01BF               	clrf	??_printf+1
  2106  01CC  35BE               	lslf	??_printf,f
  2107  01CD  0DBF               	rlf	??_printf+1,f
  2108  01CE  30EB               	movlw	low (_dpowers| (0+32768))
  2109  01CF  073E               	addwf	??_printf,w
  2110  01D0  0084               	movwf	4
  2111  01D1  3084               	movlw	high (_dpowers| (0+32768))
  2112  01D2  3D3F               	addwfc	??_printf+1,w
  2113  01D3  0085               	movwf	5
  2114  01D4  3F00               	moviw [0]fsr0
  2115  01D5  00C0               	movwf	??_printf+2
  2116  01D6  3F01               	moviw [1]fsr0
  2117  01D7  00C1               	movwf	??_printf+3
  2118  01D8  0841               	movf	??_printf+3,w
  2119  01D9  0246               	subwf	printf@val+1,w
  2120  01DA  1D03               	skipz
  2121  01DB  29DE               	goto	u1485
  2122  01DC  0840               	movf	??_printf+2,w
  2123  01DD  0245               	subwf	printf@val,w
  2124  01DE                     u1485:	
  2125  01DE  1C03               	btfss	3,0
  2126  01DF  29E8               	goto	l2253
  2127                           
  2128                           ;doprnt.c: 1307: break;
  2129  01E0  3001               	movlw	1
  2130  01E1  00BE               	movwf	??_printf
  2131  01E2  083E               	movf	??_printf,w
  2132  01E3  07C7               	addwf	printf@c,f
  2133  01E4  3005               	movlw	5
  2134  01E5  0647               	xorwf	printf@c,w
  2135  01E6  1D03               	btfss	3,2
  2136  01E7  29C9               	goto	l2247
  2137  01E8                     l2253:	
  2138                           
  2139                           ;doprnt.c: 1422: {
  2140                           ;doprnt.c: 1438: if(flag & 0x03)
  2141  01E8  0843               	movf	printf@flag,w
  2142  01E9  3903               	andlw	3
  2143  01EA  1903               	btfsc	3,2
  2144  01EB  29F0               	goto	l2257
  2145                           
  2146                           ;doprnt.c: 1439: (putch('-') );
  2147  01EC  302D               	movlw	45
  2148  01ED  3185  2598  3181   	fcall	_putch
  2149  01F0                     l2257:	
  2150                           
  2151                           ;doprnt.c: 1469: }
  2152                           ;doprnt.c: 1472: prec = c;
  2153  01F0  0020               	movlb	0	; select bank0
  2154  01F1  0847               	movf	printf@c,w
  2155  01F2  00BE               	movwf	??_printf
  2156  01F3  083E               	movf	??_printf,w
  2157  01F4  00C4               	movwf	printf@prec
  2158  01F5                     l2263:	
  2159                           ;doprnt.c: 1474: while(prec--) {
  2160                           
  2161  01F5  30FF               	movlw	255
  2162  01F6  0020               	movlb	0	; select bank0
  2163  01F7  00BE               	movwf	??_printf
  2164  01F8  083E               	movf	??_printf,w
  2165  01F9  07C4               	addwf	printf@prec,f
  2166  01FA  0A44               	incf	printf@prec,w
  2167  01FB  1903               	btfsc	3,2
  2168  01FC  2978               	goto	l2265
  2169                           
  2170                           ;doprnt.c: 1478: {
  2171                           ;doprnt.c: 1489: c = (val / dpowers[prec]) % 10 + '0';
  2172  01FD  300A               	movlw	10
  2173  01FE  00A8               	movwf	___lwmod@divisor
  2174  01FF  3000               	movlw	0
  2175  0200  00A9               	movwf	___lwmod@divisor+1
  2176  0201  0844               	movf	printf@prec,w
  2177  0202  00BE               	movwf	??_printf
  2178  0203  01BF               	clrf	??_printf+1
  2179  0204  35BE               	lslf	??_printf,f
  2180  0205  0DBF               	rlf	??_printf+1,f
  2181  0206  30EB               	movlw	low (_dpowers| (0+32768))
  2182  0207  073E               	addwf	??_printf,w
  2183  0208  0084               	movwf	4
  2184  0209  3084               	movlw	high (_dpowers| (0+32768))
  2185  020A  3D3F               	addwfc	??_printf+1,w
  2186  020B  0085               	movwf	5
  2187  020C  3F00               	moviw [0]fsr0
  2188  020D  00A0               	movwf	___lwdiv@divisor
  2189  020E  3F01               	moviw [1]fsr0
  2190  020F  00A1               	movwf	___lwdiv@divisor+1
  2191  0210  0846               	movf	printf@val+1,w
  2192  0211  00A3               	movwf	___lwdiv@dividend+1
  2193  0212  0845               	movf	printf@val,w
  2194  0213  00A2               	movwf	___lwdiv@dividend
  2195  0214  3183  239B  3181   	fcall	___lwdiv
  2196  0217  0020               	movlb	0	; select bank0
  2197  0218  0821               	movf	?___lwdiv+1,w
  2198  0219  00AB               	movwf	___lwmod@dividend+1
  2199  021A  0820               	movf	?___lwdiv,w
  2200  021B  00AA               	movwf	___lwmod@dividend
  2201  021C  3184  2402  3181   	fcall	___lwmod
  2202  021F  0020               	movlb	0	; select bank0
  2203  0220  0828               	movf	?___lwmod,w
  2204  0221  3E30               	addlw	48
  2205  0222  00C0               	movwf	??_printf+2
  2206  0223  0840               	movf	??_printf+2,w
  2207  0224  00C7               	movwf	printf@c
  2208                           
  2209                           ;doprnt.c: 1523: }
  2210                           ;doprnt.c: 1524: (putch(c) );
  2211  0225  0847               	movf	printf@c,w
  2212  0226  3185  2598  3181   	fcall	_putch
  2213  0229  29F5               	goto	l2263
  2214  022A                     l419:	
  2215                           ;doprnt.c: 1540: return 0;
  2216                           ;	Return value of _printf is never used
  2217                           
  2218                           ;doprnt.c: 1525: }
  2219                           ;doprnt.c: 1533: }
  2220                           ;doprnt.c: 1535: alldone:
  2221                           
  2222  022A  0008               	return
  2223  022B                     __end_of_printf:	
  2224                           
  2225                           	psect	text2
  2226  0598                     __ptext2:	
  2227 ;; *************** function _putch *****************
  2228 ;; Defined at:
  2229 ;;		line 340 in file "seri_lcd.c"
  2230 ;; Parameters:    Size  Location     Type
  2231 ;;  byte            1    wreg     unsigned char 
  2232 ;; Auto vars:     Size  Location     Type
  2233 ;;  byte            1   25[BANK0 ] unsigned char 
  2234 ;; Return value:  Size  Location     Type
  2235 ;;                  1    wreg      void 
  2236 ;; Registers used:
  2237 ;;		wreg, fsr1l, fsr1h, status,2, status,0, pclath, cstack
  2238 ;; Tracked objects:
  2239 ;;		On entry : 0/0
  2240 ;;		On exit  : 0/0
  2241 ;;		Unchanged: 0/0
  2242 ;; Data sizes:     COMMON   BANK0   BANK1   BANK2   BANK3   BANK4
  2243 ;;      Params:         0       0       0       0       0       0
  2244 ;;      Locals:         0       1       0       0       0       0
  2245 ;;      Temps:          0       0       0       0       0       0
  2246 ;;      Totals:         0       1       0       0       0       0
  2247 ;;Total ram usage:        1 bytes
  2248 ;; Hardware stack levels used:    1
  2249 ;; Hardware stack levels required when called:    7
  2250 ;; This function calls:
  2251 ;;		_lcd_harfyaz
  2252 ;; This function is called by:
  2253 ;;		_printf
  2254 ;; This function uses a non-reentrant model
  2255 ;;
  2256                           
  2257                           
  2258                           ;psect for function _putch
  2259  0598                     _putch:	
  2260                           
  2261                           ;incstack = 0
  2262                           ; Regs used in _putch: [wreg+fsr1l+fsr1h+status,2+status,0+pclath+cstack]
  2263                           ;putch@byte stored from wreg
  2264  0598  0020               	movlb	0	; select bank0
  2265  0599  00B9               	movwf	putch@byte
  2266                           
  2267                           ;seri_lcd.c: 341: lcd_harfyaz(byte);
  2268  059A  0839               	movf	putch@byte,w
  2269  059B  3183  23D0         	fcall	_lcd_harfyaz
  2270  059D  0008               	return
  2271  059E                     __end_of_putch:	
  2272                           
  2273                           	psect	text3
  2274  0402                     __ptext3:	
  2275 ;; *************** function ___lwmod *****************
  2276 ;; Defined at:
  2277 ;;		line 6 in file "C:\Program Files (x86)\Microchip\xc8\v1.42\sources\common\lwmod.c"
  2278 ;; Parameters:    Size  Location     Type
  2279 ;;  divisor         2    8[BANK0 ] unsigned int 
  2280 ;;  dividend        2   10[BANK0 ] unsigned int 
  2281 ;; Auto vars:     Size  Location     Type
  2282 ;;  counter         1   13[BANK0 ] unsigned char 
  2283 ;; Return value:  Size  Location     Type
  2284 ;;                  2    8[BANK0 ] unsigned int 
  2285 ;; Registers used:
  2286 ;;		wreg, status,2, status,0
  2287 ;; Tracked objects:
  2288 ;;		On entry : 0/0
  2289 ;;		On exit  : 0/0
  2290 ;;		Unchanged: 0/0
  2291 ;; Data sizes:     COMMON   BANK0   BANK1   BANK2   BANK3   BANK4
  2292 ;;      Params:         0       4       0       0       0       0
  2293 ;;      Locals:         0       1       0       0       0       0
  2294 ;;      Temps:          0       1       0       0       0       0
  2295 ;;      Totals:         0       6       0       0       0       0
  2296 ;;Total ram usage:        6 bytes
  2297 ;; Hardware stack levels used:    1
  2298 ;; Hardware stack levels required when called:    3
  2299 ;; This function calls:
  2300 ;;		Nothing
  2301 ;; This function is called by:
  2302 ;;		_printf
  2303 ;; This function uses a non-reentrant model
  2304 ;;
  2305                           
  2306                           
  2307                           ;psect for function ___lwmod
  2308  0402                     ___lwmod:	
  2309                           
  2310                           ;incstack = 0
  2311                           ; Regs used in ___lwmod: [wreg+status,2+status,0]
  2312  0402  0020               	movlb	0	; select bank0
  2313  0403  0828               	movf	___lwmod@divisor,w
  2314  0404  0429               	iorwf	___lwmod@divisor+1,w
  2315  0405  1903               	btfsc	3,2
  2316  0406  2C2A               	goto	l1735
  2317  0407  01AD               	clrf	___lwmod@counter
  2318  0408  0AAD               	incf	___lwmod@counter,f
  2319  0409                     l1725:	
  2320  0409  1BA9               	btfsc	___lwmod@divisor+1,7
  2321  040A  2C15               	goto	l1727
  2322  040B  3001               	movlw	1
  2323  040C                     u985:	
  2324  040C  35A8               	lslf	___lwmod@divisor,f
  2325  040D  0DA9               	rlf	___lwmod@divisor+1,f
  2326  040E  0B89               	decfsz	9,f
  2327  040F  2C0C               	goto	u985
  2328  0410  3001               	movlw	1
  2329  0411  00AC               	movwf	??___lwmod
  2330  0412  082C               	movf	??___lwmod,w
  2331  0413  07AD               	addwf	___lwmod@counter,f
  2332  0414  2C09               	goto	l1725
  2333  0415                     l1727:	
  2334  0415  0829               	movf	___lwmod@divisor+1,w
  2335  0416  022B               	subwf	___lwmod@dividend+1,w
  2336  0417  1D03               	skipz
  2337  0418  2C1B               	goto	u1005
  2338  0419  0828               	movf	___lwmod@divisor,w
  2339  041A  022A               	subwf	___lwmod@dividend,w
  2340  041B                     u1005:	
  2341  041B  1C03               	skipc
  2342  041C  2C21               	goto	l1731
  2343  041D  0828               	movf	___lwmod@divisor,w
  2344  041E  02AA               	subwf	___lwmod@dividend,f
  2345  041F  0829               	movf	___lwmod@divisor+1,w
  2346  0420  3BAB               	subwfb	___lwmod@dividend+1,f
  2347  0421                     l1731:	
  2348  0421  3001               	movlw	1
  2349  0422                     u1015:	
  2350  0422  36A9               	lsrf	___lwmod@divisor+1,f
  2351  0423  0CA8               	rrf	___lwmod@divisor,f
  2352  0424  0B89               	decfsz	9,f
  2353  0425  2C22               	goto	u1015
  2354  0426  3001               	movlw	1
  2355  0427  02AD               	subwf	___lwmod@counter,f
  2356  0428  1D03               	btfss	3,2
  2357  0429  2C15               	goto	l1727
  2358  042A                     l1735:	
  2359  042A  082B               	movf	___lwmod@dividend+1,w
  2360  042B  00A9               	movwf	?___lwmod+1
  2361  042C  082A               	movf	___lwmod@dividend,w
  2362  042D  00A8               	movwf	?___lwmod
  2363  042E  0008               	return
  2364  042F                     __end_of___lwmod:	
  2365                           
  2366                           	psect	text4
  2367  039B                     __ptext4:	
  2368 ;; *************** function ___lwdiv *****************
  2369 ;; Defined at:
  2370 ;;		line 6 in file "C:\Program Files (x86)\Microchip\xc8\v1.42\sources\common\lwdiv.c"
  2371 ;; Parameters:    Size  Location     Type
  2372 ;;  divisor         2    0[BANK0 ] unsigned int 
  2373 ;;  dividend        2    2[BANK0 ] unsigned int 
  2374 ;; Auto vars:     Size  Location     Type
  2375 ;;  quotient        2    5[BANK0 ] unsigned int 
  2376 ;;  counter         1    7[BANK0 ] unsigned char 
  2377 ;; Return value:  Size  Location     Type
  2378 ;;                  2    0[BANK0 ] unsigned int 
  2379 ;; Registers used:
  2380 ;;		wreg, status,2, status,0
  2381 ;; Tracked objects:
  2382 ;;		On entry : 0/0
  2383 ;;		On exit  : 0/0
  2384 ;;		Unchanged: 0/0
  2385 ;; Data sizes:     COMMON   BANK0   BANK1   BANK2   BANK3   BANK4
  2386 ;;      Params:         0       4       0       0       0       0
  2387 ;;      Locals:         0       3       0       0       0       0
  2388 ;;      Temps:          0       1       0       0       0       0
  2389 ;;      Totals:         0       8       0       0       0       0
  2390 ;;Total ram usage:        8 bytes
  2391 ;; Hardware stack levels used:    1
  2392 ;; Hardware stack levels required when called:    3
  2393 ;; This function calls:
  2394 ;;		Nothing
  2395 ;; This function is called by:
  2396 ;;		_printf
  2397 ;; This function uses a non-reentrant model
  2398 ;;
  2399                           
  2400                           
  2401                           ;psect for function ___lwdiv
  2402  039B                     ___lwdiv:	
  2403                           
  2404                           ;incstack = 0
  2405                           ; Regs used in ___lwdiv: [wreg+status,2+status,0]
  2406  039B  0020               	movlb	0	; select bank0
  2407  039C  01A5               	clrf	___lwdiv@quotient
  2408  039D  01A6               	clrf	___lwdiv@quotient+1
  2409  039E  0820               	movf	___lwdiv@divisor,w
  2410  039F  0421               	iorwf	___lwdiv@divisor+1,w
  2411  03A0  1903               	btfsc	3,2
  2412  03A1  2BCB               	goto	l1713
  2413  03A2  01A7               	clrf	___lwdiv@counter
  2414  03A3  0AA7               	incf	___lwdiv@counter,f
  2415  03A4                     l1701:	
  2416  03A4  1BA1               	btfsc	___lwdiv@divisor+1,7
  2417  03A5  2BB0               	goto	l1703
  2418  03A6  3001               	movlw	1
  2419  03A7                     u915:	
  2420  03A7  35A0               	lslf	___lwdiv@divisor,f
  2421  03A8  0DA1               	rlf	___lwdiv@divisor+1,f
  2422  03A9  0B89               	decfsz	9,f
  2423  03AA  2BA7               	goto	u915
  2424  03AB  3001               	movlw	1
  2425  03AC  00A4               	movwf	??___lwdiv
  2426  03AD  0824               	movf	??___lwdiv,w
  2427  03AE  07A7               	addwf	___lwdiv@counter,f
  2428  03AF  2BA4               	goto	l1701
  2429  03B0                     l1703:	
  2430  03B0  3001               	movlw	1
  2431  03B1                     u935:	
  2432  03B1  35A5               	lslf	___lwdiv@quotient,f
  2433  03B2  0DA6               	rlf	___lwdiv@quotient+1,f
  2434  03B3  0B89               	decfsz	9,f
  2435  03B4  2BB1               	goto	u935
  2436  03B5  0821               	movf	___lwdiv@divisor+1,w
  2437  03B6  0223               	subwf	___lwdiv@dividend+1,w
  2438  03B7  1D03               	skipz
  2439  03B8  2BBB               	goto	u945
  2440  03B9  0820               	movf	___lwdiv@divisor,w
  2441  03BA  0222               	subwf	___lwdiv@dividend,w
  2442  03BB                     u945:	
  2443  03BB  1C03               	skipc
  2444  03BC  2BC2               	goto	l1709
  2445  03BD  0820               	movf	___lwdiv@divisor,w
  2446  03BE  02A2               	subwf	___lwdiv@dividend,f
  2447  03BF  0821               	movf	___lwdiv@divisor+1,w
  2448  03C0  3BA3               	subwfb	___lwdiv@dividend+1,f
  2449  03C1  1425               	bsf	___lwdiv@quotient,0
  2450  03C2                     l1709:	
  2451  03C2  3001               	movlw	1
  2452  03C3                     u955:	
  2453  03C3  36A1               	lsrf	___lwdiv@divisor+1,f
  2454  03C4  0CA0               	rrf	___lwdiv@divisor,f
  2455  03C5  0B89               	decfsz	9,f
  2456  03C6  2BC3               	goto	u955
  2457  03C7  3001               	movlw	1
  2458  03C8  02A7               	subwf	___lwdiv@counter,f
  2459  03C9  1D03               	btfss	3,2
  2460  03CA  2BB0               	goto	l1703
  2461  03CB                     l1713:	
  2462  03CB  0826               	movf	___lwdiv@quotient+1,w
  2463  03CC  00A1               	movwf	?___lwdiv+1
  2464  03CD  0825               	movf	___lwdiv@quotient,w
  2465  03CE  00A0               	movwf	?___lwdiv
  2466  03CF  0008               	return
  2467  03D0                     __end_of___lwdiv:	
  2468                           
  2469                           	psect	text5
  2470  04AB                     __ptext5:	
  2471 ;; *************** function _lcd_mesajyaz *****************
  2472 ;; Defined at:
  2473 ;;		line 143 in file "seri_lcd.c"
  2474 ;; Parameters:    Size  Location     Type
  2475 ;;  satir           1    wreg     unsigned char 
  2476 ;;  sutun           1   29[BANK0 ] unsigned char 
  2477 ;;  mesaj           2   30[BANK0 ] PTR const unsigned char 
  2478 ;;		 -> STR_2(7), STR_1(17), 
  2479 ;; Auto vars:     Size  Location     Type
  2480 ;;  satir           1   33[BANK0 ] unsigned char 
  2481 ;; Return value:  Size  Location     Type
  2482 ;;                  1    wreg      void 
  2483 ;; Registers used:
  2484 ;;		wreg, fsr0l, fsr0h, fsr1l, fsr1h, status,2, status,0, pclath, cstack
  2485 ;; Tracked objects:
  2486 ;;		On entry : 0/0
  2487 ;;		On exit  : 0/0
  2488 ;;		Unchanged: 0/0
  2489 ;; Data sizes:     COMMON   BANK0   BANK1   BANK2   BANK3   BANK4
  2490 ;;      Params:         0       3       0       0       0       0
  2491 ;;      Locals:         0       1       0       0       0       0
  2492 ;;      Temps:          0       1       0       0       0       0
  2493 ;;      Totals:         0       5       0       0       0       0
  2494 ;;Total ram usage:        5 bytes
  2495 ;; Hardware stack levels used:    1
  2496 ;; Hardware stack levels required when called:    8
  2497 ;; This function calls:
  2498 ;;		_lcd_git
  2499 ;;		_lcd_harfyaz
  2500 ;; This function is called by:
  2501 ;;		_main
  2502 ;; This function uses a non-reentrant model
  2503 ;;
  2504                           
  2505                           
  2506                           ;psect for function _lcd_mesajyaz
  2507  04AB                     _lcd_mesajyaz:	
  2508                           
  2509                           ;incstack = 0
  2510                           ; Regs used in _lcd_mesajyaz: [wreg-fsr1h+status,2+status,0+pclath+cstack]
  2511                           ;lcd_mesajyaz@satir stored from wreg
  2512  04AB  0020               	movlb	0	; select bank0
  2513  04AC  00C1               	movwf	lcd_mesajyaz@satir
  2514                           
  2515                           ;seri_lcd.c: 144: lcd_git(satir, sutun);
  2516  04AD  083D               	movf	lcd_mesajyaz@sutun,w
  2517  04AE  00C0               	movwf	??_lcd_mesajyaz
  2518  04AF  0840               	movf	??_lcd_mesajyaz,w
  2519  04B0  00B9               	movwf	lcd_git@sutun
  2520  04B1  0841               	movf	lcd_mesajyaz@satir,w
  2521  04B2  3184  245A  3184   	fcall	_lcd_git
  2522  04B5                     l317:	
  2523                           ;seri_lcd.c: 145: do {
  2524                           
  2525                           
  2526                           ;seri_lcd.c: 146: lcd_harfyaz(*mesaj++);
  2527  04B5  0020               	movlb	0	; select bank0
  2528  04B6  083E               	movf	lcd_mesajyaz@mesaj,w
  2529  04B7  0084               	movwf	4
  2530  04B8  083F               	movf	lcd_mesajyaz@mesaj+1,w
  2531  04B9  0085               	movwf	5
  2532  04BA  0800               	movf	0,w	;code access
  2533  04BB  3183  23D0  3184   	fcall	_lcd_harfyaz
  2534  04BE  3001               	movlw	1
  2535  04BF  0020               	movlb	0	; select bank0
  2536  04C0  07BE               	addwf	lcd_mesajyaz@mesaj,f
  2537  04C1  3000               	movlw	0
  2538  04C2  3DBF               	addwfc	lcd_mesajyaz@mesaj+1,f
  2539                           
  2540                           ;seri_lcd.c: 147: } while (*mesaj);
  2541  04C3  083E               	movf	lcd_mesajyaz@mesaj,w
  2542  04C4  0084               	movwf	4
  2543  04C5  083F               	movf	lcd_mesajyaz@mesaj+1,w
  2544  04C6  0085               	movwf	5
  2545  04C7  0012               	moviw fsr0++
  2546  04C8  1903               	btfsc	3,2
  2547  04C9  0008               	return
  2548  04CA  2CB5               	goto	l317
  2549  04CB                     __end_of_lcd_mesajyaz:	
  2550                           
  2551                           	psect	text6
  2552  03D0                     __ptext6:	
  2553 ;; *************** function _lcd_harfyaz *****************
  2554 ;; Defined at:
  2555 ;;		line 172 in file "seri_lcd.c"
  2556 ;; Parameters:    Size  Location     Type
  2557 ;;  harf            1    wreg     unsigned char 
  2558 ;; Auto vars:     Size  Location     Type
  2559 ;;  harf            1   24[BANK0 ] unsigned char 
  2560 ;; Return value:  Size  Location     Type
  2561 ;;                  1    wreg      void 
  2562 ;; Registers used:
  2563 ;;		wreg, fsr1l, fsr1h, status,2, status,0, pclath, cstack
  2564 ;; Tracked objects:
  2565 ;;		On entry : 0/0
  2566 ;;		On exit  : 0/0
  2567 ;;		Unchanged: 0/0
  2568 ;; Data sizes:     COMMON   BANK0   BANK1   BANK2   BANK3   BANK4
  2569 ;;      Params:         0       0       0       0       0       0
  2570 ;;      Locals:         0       1       0       0       0       0
  2571 ;;      Temps:          0       2       0       0       0       0
  2572 ;;      Totals:         0       3       0       0       0       0
  2573 ;;Total ram usage:        3 bytes
  2574 ;; Hardware stack levels used:    1
  2575 ;; Hardware stack levels required when called:    6
  2576 ;; This function calls:
  2577 ;;		_lcd_mesgulmu
  2578 ;;		_pcf8574_yaz_wEnable
  2579 ;; This function is called by:
  2580 ;;		_lcd_mesajyaz
  2581 ;;		_putch
  2582 ;;		_lcd_mesajyaz_cp
  2583 ;;		_lcd_ozelkarakter
  2584 ;; This function uses a non-reentrant model
  2585 ;;
  2586                           
  2587                           
  2588                           ;psect for function _lcd_harfyaz
  2589  03D0                     _lcd_harfyaz:	
  2590                           
  2591                           ;incstack = 0
  2592                           ; Regs used in _lcd_harfyaz: [wreg+fsr1l+fsr1h+status,2+status,0+pclath+cstack]
  2593                           ;lcd_harfyaz@harf stored from wreg
  2594  03D0  0020               	movlb	0	; select bank0
  2595  03D1  00B8               	movwf	lcd_harfyaz@harf
  2596                           
  2597                           ;seri_lcd.c: 173: lcd_mesgulmu();
  2598  03D2  3185  25AA  3183   	fcall	_lcd_mesgulmu
  2599                           
  2600                           ;seri_lcd.c: 174: pcf_port.lcd.RS = 1;
  2601  03D5  0020               	movlb	0	; select bank0
  2602  03D6  1460               	bsf	_pcf_port,0
  2603                           
  2604                           ;seri_lcd.c: 176: pcf_port.port = (pcf_port.port & 0x0f) | (harf & 0xf0);
  2605  03D7  30F0               	movlw	240
  2606  03D8  0538               	andwf	lcd_harfyaz@harf,w
  2607  03D9  00B6               	movwf	??_lcd_harfyaz
  2608  03DA  0860               	movf	_pcf_port,w
  2609  03DB  390F               	andlw	15
  2610  03DC  0436               	iorwf	??_lcd_harfyaz,w
  2611  03DD  00B7               	movwf	??_lcd_harfyaz+1
  2612  03DE  0837               	movf	??_lcd_harfyaz+1,w
  2613  03DF  00E0               	movwf	_pcf_port
  2614                           
  2615                           ;seri_lcd.c: 177: pcf8574_yaz_wEnable();
  2616  03E0  3183  2365  3183   	fcall	_pcf8574_yaz_wEnable
  2617                           
  2618                           ;seri_lcd.c: 178: _delay((unsigned long)((200)*(32000000/4000000.0)));
  2619  03E3  30E4               	movlw	228
  2620  03E4                     u1637:	
  2621  03E4  3200               	nop2
  2622  03E5  3200               	nop2
  2623  03E6  0B89               	decfsz	9,f
  2624  03E7  2BE4               	goto	u1637
  2625  03E8  3200               	nop2
  2626  03E9  3200               	nop2
  2627                           
  2628                           ;seri_lcd.c: 180: pcf_port.port = (pcf_port.port & 0x0f) | (harf << 4);
  2629  03EA  0020               	movlb	0	; select bank0
  2630  03EB  0838               	movf	lcd_harfyaz@harf,w
  2631  03EC  00B6               	movwf	??_lcd_harfyaz
  2632  03ED  3004               	movlw	4
  2633  03EE                     u1425:	
  2634  03EE  35B6               	lslf	??_lcd_harfyaz,f
  2635  03EF  0B89               	decfsz	9,f
  2636  03F0  2BEE               	goto	u1425
  2637  03F1  0860               	movf	_pcf_port,w
  2638  03F2  390F               	andlw	15
  2639  03F3  0436               	iorwf	??_lcd_harfyaz,w
  2640  03F4  00B7               	movwf	??_lcd_harfyaz+1
  2641  03F5  0837               	movf	??_lcd_harfyaz+1,w
  2642  03F6  00E0               	movwf	_pcf_port
  2643                           
  2644                           ;seri_lcd.c: 181: pcf8574_yaz_wEnable();
  2645  03F7  3183  2365  3183   	fcall	_pcf8574_yaz_wEnable
  2646                           
  2647                           ;seri_lcd.c: 182: _delay((unsigned long)((200)*(32000000/4000000.0)));
  2648  03FA  30E4               	movlw	228
  2649  03FB                     u1647:	
  2650  03FB  3200               	nop2
  2651  03FC  3200               	nop2
  2652  03FD  0B89               	decfsz	9,f
  2653  03FE  2BFB               	goto	u1647
  2654  03FF  3200               	nop2
  2655  0400  3200               	nop2
  2656  0401  0008               	return
  2657  0402                     __end_of_lcd_harfyaz:	
  2658                           
  2659                           	psect	text7
  2660  045A                     __ptext7:	
  2661 ;; *************** function _lcd_git *****************
  2662 ;; Defined at:
  2663 ;;		line 119 in file "seri_lcd.c"
  2664 ;; Parameters:    Size  Location     Type
  2665 ;;  satir           1    wreg     unsigned char 
  2666 ;;  sutun           1   25[BANK0 ] unsigned char 
  2667 ;; Auto vars:     Size  Location     Type
  2668 ;;  satir           1   27[BANK0 ] unsigned char 
  2669 ;;  temp            1   28[BANK0 ] unsigned char 
  2670 ;; Return value:  Size  Location     Type
  2671 ;;                  1    wreg      void 
  2672 ;; Registers used:
  2673 ;;		wreg, fsr0l, fsr0h, fsr1l, fsr1h, status,2, status,0, pclath, cstack
  2674 ;; Tracked objects:
  2675 ;;		On entry : 0/0
  2676 ;;		On exit  : 0/0
  2677 ;;		Unchanged: 0/0
  2678 ;; Data sizes:     COMMON   BANK0   BANK1   BANK2   BANK3   BANK4
  2679 ;;      Params:         0       1       0       0       0       0
  2680 ;;      Locals:         0       2       0       0       0       0
  2681 ;;      Temps:          0       1       0       0       0       0
  2682 ;;      Totals:         0       4       0       0       0       0
  2683 ;;Total ram usage:        4 bytes
  2684 ;; Hardware stack levels used:    1
  2685 ;; Hardware stack levels required when called:    7
  2686 ;; This function calls:
  2687 ;;		_lcd_komut
  2688 ;; This function is called by:
  2689 ;;		_main
  2690 ;;		_lcd_mesajyaz
  2691 ;; This function uses a non-reentrant model
  2692 ;;
  2693                           
  2694                           
  2695                           ;psect for function _lcd_git
  2696  045A                     _lcd_git:	
  2697                           
  2698                           ;incstack = 0
  2699                           ; Regs used in _lcd_git: [wreg-fsr1h+status,2+status,0+pclath+cstack]
  2700                           ;lcd_git@satir stored from wreg
  2701  045A  0020               	movlb	0	; select bank0
  2702  045B  00BB               	movwf	lcd_git@satir
  2703                           
  2704                           ;seri_lcd.c: 120: char temp;
  2705                           ;seri_lcd.c: 121: switch (satir) {
  2706  045C  2C6C               	goto	l2177
  2707  045D                     l2167:	
  2708                           ;seri_lcd.c: 122: case 1:
  2709                           
  2710                           
  2711                           ;seri_lcd.c: 123: temp = sutun - 1 + 0x80;
  2712  045D  0839               	movf	lcd_git@sutun,w
  2713  045E  3E7F               	addlw	127
  2714  045F  2C68               	goto	L3
  2715  0460                     l2169:	
  2716                           ;seri_lcd.c: 125: case 2:
  2717                           
  2718                           ;seri_lcd.c: 124: break;
  2719                           
  2720                           
  2721                           ;seri_lcd.c: 126: temp = sutun - 1 + 0xc0;
  2722  0460  0839               	movf	lcd_git@sutun,w
  2723  0461  3EBF               	addlw	191
  2724  0462  2C68               	goto	L3
  2725  0463                     l2171:	
  2726                           ;seri_lcd.c: 128: case 3:
  2727                           
  2728                           ;seri_lcd.c: 127: break;
  2729                           
  2730                           
  2731                           ;seri_lcd.c: 129: temp = (sutun - 1 + 0x94);
  2732  0463  0839               	movf	lcd_git@sutun,w
  2733  0464  3E93               	addlw	147
  2734  0465  2C68               	goto	L3
  2735  0466                     l2173:	
  2736                           ;seri_lcd.c: 131: case 4:
  2737                           
  2738                           ;seri_lcd.c: 130: break;
  2739                           
  2740                           
  2741                           ;seri_lcd.c: 132: temp = (sutun - 1 + 0xd4);
  2742  0466  0839               	movf	lcd_git@sutun,w
  2743  0467  3ED3               	addlw	211
  2744  0468                     L3:	
  2745  0468  00BA               	movwf	??_lcd_git
  2746  0469  083A               	movf	??_lcd_git,w
  2747  046A  00BC               	movwf	lcd_git@temp
  2748                           
  2749                           ;seri_lcd.c: 134: }
  2750                           
  2751                           ;seri_lcd.c: 133: break;
  2752  046B  2C7A               	goto	l2179
  2753  046C                     l2177:	
  2754  046C  083B               	movf	lcd_git@satir,w
  2755                           
  2756                           ; Switch size 1, requested type "space"
  2757                           ; Number of cases is 4, Range of values is 1 to 4
  2758                           ; switch strategies available:
  2759                           ; Name         Instructions Cycles
  2760                           ; simple_byte           13     7 (average)
  2761                           ; direct_byte           17     9 (fixed)
  2762                           ; jumptable            263     9 (fixed)
  2763                           ;	Chosen strategy is simple_byte
  2764  046D  3A01               	xorlw	1	; case 1
  2765  046E  1903               	skipnz
  2766  046F  2C5D               	goto	l2167
  2767  0470  3A03               	xorlw	3	; case 2
  2768  0471  1903               	skipnz
  2769  0472  2C60               	goto	l2169
  2770  0473  3A01               	xorlw	1	; case 3
  2771  0474  1903               	skipnz
  2772  0475  2C63               	goto	l2171
  2773  0476  3A07               	xorlw	7	; case 4
  2774  0477  1903               	skipnz
  2775  0478  2C66               	goto	l2173
  2776  0479  2C7A               	goto	l2179
  2777  047A                     l2179:	
  2778                           
  2779                           ;seri_lcd.c: 135: lcd_komut(temp);
  2780  047A  083C               	movf	lcd_git@temp,w
  2781  047B  3183  232F  3184   	fcall	_lcd_komut
  2782                           
  2783                           ;seri_lcd.c: 136: _delay((unsigned long)((100)*(32000000/4000000.0)));
  2784  047E  30A0               	movlw	160
  2785  047F                     u1657:	
  2786  047F  3200               	nop2
  2787  0480  0B89               	decfsz	9,f
  2788  0481  2C7F               	goto	u1657
  2789  0482  0008               	return
  2790  0483                     __end_of_lcd_git:	
  2791                           
  2792                           	psect	text8
  2793  02F4                     __ptext8:	
  2794 ;; *************** function _lcd_baslat *****************
  2795 ;; Defined at:
  2796 ;;		line 93 in file "seri_lcd.c"
  2797 ;; Parameters:    Size  Location     Type
  2798 ;;		None
  2799 ;; Auto vars:     Size  Location     Type
  2800 ;;		None
  2801 ;; Return value:  Size  Location     Type
  2802 ;;                  1    wreg      void 
  2803 ;; Registers used:
  2804 ;;		wreg, fsr1l, fsr1h, status,2, status,0, pclath, cstack
  2805 ;; Tracked objects:
  2806 ;;		On entry : 0/0
  2807 ;;		On exit  : 0/0
  2808 ;;		Unchanged: 0/0
  2809 ;; Data sizes:     COMMON   BANK0   BANK1   BANK2   BANK3   BANK4
  2810 ;;      Params:         0       0       0       0       0       0
  2811 ;;      Locals:         0       0       0       0       0       0
  2812 ;;      Temps:          0       1       0       0       0       0
  2813 ;;      Totals:         0       1       0       0       0       0
  2814 ;;Total ram usage:        1 bytes
  2815 ;; Hardware stack levels used:    1
  2816 ;; Hardware stack levels required when called:    8
  2817 ;; This function calls:
  2818 ;;		_lcd_aydinlatma_ac
  2819 ;;		_lcd_komut
  2820 ;;		_lcd_sil
  2821 ;;		_pcf8574_yaz
  2822 ;;		_pcf8574_yaz_wEnable
  2823 ;; This function is called by:
  2824 ;;		_main
  2825 ;; This function uses a non-reentrant model
  2826 ;;
  2827                           
  2828                           
  2829                           ;psect for function _lcd_baslat
  2830  02F4                     _lcd_baslat:	
  2831                           
  2832                           ;seri_lcd.c: 95: pcf8574_yaz(0x00);
  2833                           
  2834                           ;incstack = 0
  2835                           ; Regs used in _lcd_baslat: [wreg+fsr1l+fsr1h+status,2+status,0+pclath+cstack]
  2836  02F4  3000               	movlw	0
  2837  02F5  3184  242F  3182   	fcall	_pcf8574_yaz
  2838                           
  2839                           ;seri_lcd.c: 96: pcf_port.port=0x00;
  2840  02F8  0020               	movlb	0	; select bank0
  2841  02F9  01E0               	clrf	_pcf_port
  2842                           
  2843                           ;seri_lcd.c: 98: pcf_port.port = 0x20 | (pcf_port.port & 0x0f);
  2844  02FA  0860               	movf	_pcf_port,w
  2845  02FB  390F               	andlw	15
  2846  02FC  3820               	iorlw	32
  2847  02FD  00B9               	movwf	??_lcd_baslat
  2848  02FE  0839               	movf	??_lcd_baslat,w
  2849  02FF  00E0               	movwf	_pcf_port
  2850                           
  2851                           ;seri_lcd.c: 100: pcf8574_yaz_wEnable();
  2852  0300  3183  2365  3182   	fcall	_pcf8574_yaz_wEnable
  2853                           
  2854                           ;seri_lcd.c: 101: _delay((unsigned long)((5)*(32000000/4000.0)));
  2855  0303  3034               	movlw	52
  2856  0304  0020               	movlb	0	; select bank0
  2857  0305  00B9               	movwf	??_lcd_baslat
  2858  0306  30F1               	movlw	241
  2859  0307                     u1667:	
  2860  0307  0B89               	decfsz	9,f
  2861  0308  2B07               	goto	u1667
  2862  0309  0BB9               	decfsz	??_lcd_baslat,f
  2863  030A  2B07               	goto	u1667
  2864  030B  3200               	nop2
  2865                           
  2866                           ;seri_lcd.c: 103: lcd_komut(0x28);
  2867  030C  3028               	movlw	40
  2868  030D  3183  232F  3182   	fcall	_lcd_komut
  2869                           
  2870                           ;seri_lcd.c: 104: _delay((unsigned long)((40)*(32000000/4000000.0)));
  2871  0310  306A               	movlw	106
  2872  0311                     u1677:	
  2873  0311  0B89               	decfsz	9,f
  2874  0312  2B11               	goto	u1677
  2875  0313  3200               	nop2
  2876                           
  2877                           ;seri_lcd.c: 105: lcd_komut(0x0C);
  2878  0314  300C               	movlw	12
  2879  0315  3183  232F  3182   	fcall	_lcd_komut
  2880                           
  2881                           ;seri_lcd.c: 106: _delay((unsigned long)((40)*(32000000/4000000.0)));
  2882  0318  306A               	movlw	106
  2883  0319                     u1687:	
  2884  0319  0B89               	decfsz	9,f
  2885  031A  2B19               	goto	u1687
  2886  031B  3200               	nop2
  2887                           
  2888                           ;seri_lcd.c: 107: lcd_komut(0x06);
  2889  031C  3006               	movlw	6
  2890  031D  3183  232F  3182   	fcall	_lcd_komut
  2891                           
  2892                           ;seri_lcd.c: 108: _delay((unsigned long)((2)*(32000000/4000.0)));
  2893  0320  3015               	movlw	21
  2894  0321  0020               	movlb	0	; select bank0
  2895  0322  00B9               	movwf	??_lcd_baslat
  2896  0323  30C6               	movlw	198
  2897  0324                     u1697:	
  2898  0324  0B89               	decfsz	9,f
  2899  0325  2B24               	goto	u1697
  2900  0326  0BB9               	decfsz	??_lcd_baslat,f
  2901  0327  2B24               	goto	u1697
  2902  0328  0000               	nop
  2903                           
  2904                           ;seri_lcd.c: 110: lcd_sil();
  2905  0329  3185  25AF  3182   	fcall	_lcd_sil
  2906                           
  2907                           ;seri_lcd.c: 111: lcd_aydinlatma_ac();
  2908  032C  3185  259E         	fcall	_lcd_aydinlatma_ac
  2909  032E  0008               	return
  2910  032F                     __end_of_lcd_baslat:	
  2911                           
  2912                           	psect	text9
  2913  05AF                     __ptext9:	
  2914 ;; *************** function _lcd_sil *****************
  2915 ;; Defined at:
  2916 ;;		line 233 in file "seri_lcd.c"
  2917 ;; Parameters:    Size  Location     Type
  2918 ;;		None
  2919 ;; Auto vars:     Size  Location     Type
  2920 ;;		None
  2921 ;; Return value:  Size  Location     Type
  2922 ;;                  1    wreg      void 
  2923 ;; Registers used:
  2924 ;;		wreg, fsr1l, fsr1h, status,2, status,0, pclath, cstack
  2925 ;; Tracked objects:
  2926 ;;		On entry : 0/0
  2927 ;;		On exit  : 0/0
  2928 ;;		Unchanged: 0/0
  2929 ;; Data sizes:     COMMON   BANK0   BANK1   BANK2   BANK3   BANK4
  2930 ;;      Params:         0       0       0       0       0       0
  2931 ;;      Locals:         0       0       0       0       0       0
  2932 ;;      Temps:          0       0       0       0       0       0
  2933 ;;      Totals:         0       0       0       0       0       0
  2934 ;;Total ram usage:        0 bytes
  2935 ;; Hardware stack levels used:    1
  2936 ;; Hardware stack levels required when called:    7
  2937 ;; This function calls:
  2938 ;;		_lcd_komut
  2939 ;; This function is called by:
  2940 ;;		_lcd_baslat
  2941 ;; This function uses a non-reentrant model
  2942 ;;
  2943                           
  2944                           
  2945                           ;psect for function _lcd_sil
  2946  05AF                     _lcd_sil:	
  2947                           
  2948                           ;seri_lcd.c: 234: lcd_komut(0x01);
  2949                           
  2950                           ;incstack = 0
  2951                           ; Regs used in _lcd_sil: [wreg+fsr1l+fsr1h+status,2+status,0+pclath+cstack]
  2952  05AF  3001               	movlw	1
  2953  05B0  3183  232F         	fcall	_lcd_komut
  2954  05B2  0008               	return
  2955  05B3                     __end_of_lcd_sil:	
  2956                           
  2957                           	psect	text10
  2958  032F                     __ptext10:	
  2959 ;; *************** function _lcd_komut *****************
  2960 ;; Defined at:
  2961 ;;		line 189 in file "seri_lcd.c"
  2962 ;; Parameters:    Size  Location     Type
  2963 ;;  komut           1    wreg     unsigned char 
  2964 ;; Auto vars:     Size  Location     Type
  2965 ;;  komut           1   24[BANK0 ] unsigned char 
  2966 ;; Return value:  Size  Location     Type
  2967 ;;                  1    wreg      void 
  2968 ;; Registers used:
  2969 ;;		wreg, fsr1l, fsr1h, status,2, status,0, pclath, cstack
  2970 ;; Tracked objects:
  2971 ;;		On entry : 0/0
  2972 ;;		On exit  : 0/0
  2973 ;;		Unchanged: 0/0
  2974 ;; Data sizes:     COMMON   BANK0   BANK1   BANK2   BANK3   BANK4
  2975 ;;      Params:         0       0       0       0       0       0
  2976 ;;      Locals:         0       1       0       0       0       0
  2977 ;;      Temps:          0       2       0       0       0       0
  2978 ;;      Totals:         0       3       0       0       0       0
  2979 ;;Total ram usage:        3 bytes
  2980 ;; Hardware stack levels used:    1
  2981 ;; Hardware stack levels required when called:    6
  2982 ;; This function calls:
  2983 ;;		_lcd_mesgulmu
  2984 ;;		_pcf8574_yaz_wEnable
  2985 ;; This function is called by:
  2986 ;;		_lcd_baslat
  2987 ;;		_lcd_git
  2988 ;;		_lcd_sil
  2989 ;;		_lcd_ozelkarakter
  2990 ;;		_lcd_satirbasi
  2991 ;;		_lcd_kursor_ac
  2992 ;;		_lcd_kursor_kapat
  2993 ;;		_lcd_display_ac
  2994 ;;		_lcd_display_kapat
  2995 ;;		_lcd_blink_ac
  2996 ;;		_lcd_blink_kapat
  2997 ;;		_lcd_sola_kaydir
  2998 ;;		_lcd_saga_kaydir
  2999 ;;		_lcd_satir1
  3000 ;;		_lcd_satir2
  3001 ;;		_lcd_satir3
  3002 ;;		_lcd_satir4
  3003 ;; This function uses a non-reentrant model
  3004 ;;
  3005                           
  3006                           
  3007                           ;psect for function _lcd_komut
  3008  032F                     _lcd_komut:	
  3009                           
  3010                           ;incstack = 0
  3011                           ; Regs used in _lcd_komut: [wreg+fsr1l+fsr1h+status,2+status,0+pclath+cstack]
  3012                           ;lcd_komut@komut stored from wreg
  3013  032F  0020               	movlb	0	; select bank0
  3014  0330  00B8               	movwf	lcd_komut@komut
  3015                           
  3016                           ;seri_lcd.c: 190: lcd_mesgulmu();
  3017  0331  3185  25AA  3183   	fcall	_lcd_mesgulmu
  3018                           
  3019                           ;seri_lcd.c: 191: pcf_port.lcd.RS = 0;
  3020  0334  0020               	movlb	0	; select bank0
  3021  0335  1060               	bcf	_pcf_port,0
  3022                           
  3023                           ;seri_lcd.c: 193: pcf_port.port = (pcf_port.port & 0x0f) | (komut & 0xf0);
  3024  0336  30F0               	movlw	240
  3025  0337  0538               	andwf	lcd_komut@komut,w
  3026  0338  00B6               	movwf	??_lcd_komut
  3027  0339  0860               	movf	_pcf_port,w
  3028  033A  390F               	andlw	15
  3029  033B  0436               	iorwf	??_lcd_komut,w
  3030  033C  00B7               	movwf	??_lcd_komut+1
  3031  033D  0837               	movf	??_lcd_komut+1,w
  3032  033E  00E0               	movwf	_pcf_port
  3033                           
  3034                           ;seri_lcd.c: 194: pcf8574_yaz_wEnable();
  3035  033F  3183  2365  3183   	fcall	_pcf8574_yaz_wEnable
  3036                           
  3037                           ;seri_lcd.c: 195: _delay((unsigned long)((5)*(32000000/4000.0)));
  3038  0342  3034               	movlw	52
  3039  0343  0020               	movlb	0	; select bank0
  3040  0344  00B6               	movwf	??_lcd_komut
  3041  0345  30F1               	movlw	241
  3042  0346                     u1707:	
  3043  0346  0B89               	decfsz	9,f
  3044  0347  2B46               	goto	u1707
  3045  0348  0BB6               	decfsz	??_lcd_komut,f
  3046  0349  2B46               	goto	u1707
  3047  034A  3200               	nop2
  3048                           
  3049                           ;seri_lcd.c: 197: pcf_port.port = (pcf_port.port & 0x0f) | (komut << 4);
  3050  034B  0020               	movlb	0	; select bank0
  3051  034C  0838               	movf	lcd_komut@komut,w
  3052  034D  00B6               	movwf	??_lcd_komut
  3053  034E  3004               	movlw	4
  3054  034F                     u1415:	
  3055  034F  35B6               	lslf	??_lcd_komut,f
  3056  0350  0B89               	decfsz	9,f
  3057  0351  2B4F               	goto	u1415
  3058  0352  0860               	movf	_pcf_port,w
  3059  0353  390F               	andlw	15
  3060  0354  0436               	iorwf	??_lcd_komut,w
  3061  0355  00B7               	movwf	??_lcd_komut+1
  3062  0356  0837               	movf	??_lcd_komut+1,w
  3063  0357  00E0               	movwf	_pcf_port
  3064                           
  3065                           ;seri_lcd.c: 198: pcf8574_yaz_wEnable();
  3066  0358  3183  2365  3183   	fcall	_pcf8574_yaz_wEnable
  3067                           
  3068                           ;seri_lcd.c: 199: _delay((unsigned long)((5)*(32000000/4000.0)));
  3069  035B  3034               	movlw	52
  3070  035C  0020               	movlb	0	; select bank0
  3071  035D  00B6               	movwf	??_lcd_komut
  3072  035E  30F1               	movlw	241
  3073  035F                     u1717:	
  3074  035F  0B89               	decfsz	9,f
  3075  0360  2B5F               	goto	u1717
  3076  0361  0BB6               	decfsz	??_lcd_komut,f
  3077  0362  2B5F               	goto	u1717
  3078  0363  3200               	nop2
  3079  0364  0008               	return
  3080  0365                     __end_of_lcd_komut:	
  3081                           
  3082                           	psect	text11
  3083  0365                     __ptext11:	
  3084 ;; *************** function _pcf8574_yaz_wEnable *****************
  3085 ;; Defined at:
  3086 ;;		line 52 in file "seri_lcd.c"
  3087 ;; Parameters:    Size  Location     Type
  3088 ;;		None
  3089 ;; Auto vars:     Size  Location     Type
  3090 ;;  writeBuffer     3   18[BANK0 ] unsigned char [3]
  3091 ;;  timeOut         2   16[BANK0 ] unsigned int 
  3092 ;;  status          1   21[BANK0 ] enum E2806
  3093 ;; Return value:  Size  Location     Type
  3094 ;;                  1    wreg      void 
  3095 ;; Registers used:
  3096 ;;		wreg, fsr1l, fsr1h, status,2, status,0, pclath, cstack
  3097 ;; Tracked objects:
  3098 ;;		On entry : 0/0
  3099 ;;		On exit  : 0/0
  3100 ;;		Unchanged: 0/0
  3101 ;; Data sizes:     COMMON   BANK0   BANK1   BANK2   BANK3   BANK4
  3102 ;;      Params:         0       0       0       0       0       0
  3103 ;;      Locals:         0       6       0       0       0       0
  3104 ;;      Temps:          0       2       0       0       0       0
  3105 ;;      Totals:         0       8       0       0       0       0
  3106 ;;Total ram usage:        8 bytes
  3107 ;; Hardware stack levels used:    1
  3108 ;; Hardware stack levels required when called:    5
  3109 ;; This function calls:
  3110 ;;		_I2C1_MasterWrite
  3111 ;; This function is called by:
  3112 ;;		_lcd_baslat
  3113 ;;		_lcd_harfyaz
  3114 ;;		_lcd_komut
  3115 ;; This function uses a non-reentrant model
  3116 ;;
  3117                           
  3118                           
  3119                           ;psect for function _pcf8574_yaz_wEnable
  3120  0365                     _pcf8574_yaz_wEnable:	
  3121                           
  3122                           ;seri_lcd.c: 54: I2C1_MESSAGE_STATUS status;
  3123                           ;seri_lcd.c: 55: uint8_t writeBuffer[3];
  3124                           ;seri_lcd.c: 56: uint16_t timeOut;
  3125                           ;seri_lcd.c: 58: writeBuffer[0] = pcf_port.port;
  3126                           
  3127                           ;incstack = 0
  3128                           ; Regs used in _pcf8574_yaz_wEnable: [wreg+fsr1l+fsr1h+status,2+status,0+pclath+cstack]
  3129  0365  0020               	movlb	0	; select bank0
  3130  0366  0860               	movf	_pcf_port,w
  3131  0367  00AE               	movwf	??_pcf8574_yaz_wEnable
  3132  0368  082E               	movf	??_pcf8574_yaz_wEnable,w
  3133  0369  00B2               	movwf	pcf8574_yaz_wEnable@writeBuffer
  3134                           
  3135                           ;seri_lcd.c: 59: pcf_port.lcd.E = 1;
  3136  036A  1560               	bsf	_pcf_port,2
  3137                           
  3138                           ;seri_lcd.c: 60: writeBuffer[1] = pcf_port.port;
  3139  036B  0860               	movf	_pcf_port,w
  3140  036C  00AE               	movwf	??_pcf8574_yaz_wEnable
  3141  036D  082E               	movf	??_pcf8574_yaz_wEnable,w
  3142  036E  00B3               	movwf	pcf8574_yaz_wEnable@writeBuffer+1
  3143                           
  3144                           ;seri_lcd.c: 61: pcf_port.lcd.E = 0;
  3145  036F  1160               	bcf	_pcf_port,2
  3146                           
  3147                           ;seri_lcd.c: 62: writeBuffer[2] = pcf_port.port;
  3148  0370  0860               	movf	_pcf_port,w
  3149  0371  00AE               	movwf	??_pcf8574_yaz_wEnable
  3150  0372  082E               	movf	??_pcf8574_yaz_wEnable,w
  3151  0373  00B4               	movwf	pcf8574_yaz_wEnable@writeBuffer+2
  3152                           
  3153                           ;seri_lcd.c: 64: timeOut = 0;
  3154  0374  01B0               	clrf	pcf8574_yaz_wEnable@timeOut
  3155  0375  01B1               	clrf	pcf8574_yaz_wEnable@timeOut+1
  3156  0376                     l1555:	
  3157                           ;seri_lcd.c: 65: while (status != I2C1_MESSAGE_FAIL) {
  3158                           
  3159  0376  0335               	decf	pcf8574_yaz_wEnable@status,w
  3160  0377  1903               	btfsc	3,2
  3161  0378  0008               	return
  3162                           
  3163                           ;seri_lcd.c: 68: I2C1_MasterWrite(writeBuffer,
  3164                           ;seri_lcd.c: 69: 3,
  3165                           ;seri_lcd.c: 70: 0x3F,
  3166                           ;seri_lcd.c: 71: &status);
  3167  0379  3003               	movlw	3
  3168  037A  00AE               	movwf	??_pcf8574_yaz_wEnable
  3169  037B  082E               	movf	??_pcf8574_yaz_wEnable,w
  3170  037C  00A7               	movwf	I2C1_MasterWrite@length
  3171  037D  303F               	movlw	63
  3172  037E  00A8               	movwf	I2C1_MasterWrite@address
  3173  037F  3000               	movlw	0
  3174  0380  00A9               	movwf	I2C1_MasterWrite@address+1
  3175  0381  3035               	movlw	(low (pcf8574_yaz_wEnable@status| 0))& (0+255)
  3176  0382  00AF               	movwf	??_pcf8574_yaz_wEnable+1
  3177  0383  082F               	movf	??_pcf8574_yaz_wEnable+1,w
  3178  0384  00AA               	movwf	I2C1_MasterWrite@pflag
  3179  0385  3032               	movlw	(low (pcf8574_yaz_wEnable@writeBuffer| 0))& (0+255)
  3180  0386  3184  2483  3183   	fcall	_I2C1_MasterWrite
  3181  0389                     l1541:	
  3182                           ;seri_lcd.c: 74: while (status == I2C1_MESSAGE_PENDING);
  3183                           
  3184  0389  3002               	movlw	2
  3185  038A  0020               	movlb	0	; select bank0
  3186  038B  0635               	xorwf	pcf8574_yaz_wEnable@status,w
  3187  038C  1903               	btfsc	3,2
  3188  038D  2B89               	goto	l1541
  3189                           
  3190                           ;seri_lcd.c: 77: if (status == I2C1_MESSAGE_COMPLETE)
  3191  038E  0835               	movf	pcf8574_yaz_wEnable@status,w
  3192  038F  1903               	btfsc	3,2
  3193  0390  0008               	return
  3194                           
  3195                           ;seri_lcd.c: 82: if (timeOut == 10)
  3196                           
  3197                           ;seri_lcd.c: 78: break;
  3198  0391  300A               	movlw	10
  3199  0392  0630               	xorwf	pcf8574_yaz_wEnable@timeOut,w
  3200  0393  0431               	iorwf	pcf8574_yaz_wEnable@timeOut+1,w
  3201  0394  1903               	btfsc	3,2
  3202  0395  0008               	return
  3203                           
  3204                           ;seri_lcd.c: 84: else
  3205                           ;seri_lcd.c: 85: timeOut++;
  3206                           
  3207                           ;seri_lcd.c: 83: break;
  3208  0396  3001               	movlw	1
  3209  0397  07B0               	addwf	pcf8574_yaz_wEnable@timeOut,f
  3210  0398  3000               	movlw	0
  3211  0399  3DB1               	addwfc	pcf8574_yaz_wEnable@timeOut+1,f
  3212  039A  2B76               	goto	l1555
  3213  039B                     __end_of_pcf8574_yaz_wEnable:	
  3214                           
  3215                           	psect	text12
  3216  05AA                     __ptext12:	
  3217 ;; *************** function _lcd_mesgulmu *****************
  3218 ;; Defined at:
  3219 ;;		line 164 in file "seri_lcd.c"
  3220 ;; Parameters:    Size  Location     Type
  3221 ;;		None
  3222 ;; Auto vars:     Size  Location     Type
  3223 ;;		None
  3224 ;; Return value:  Size  Location     Type
  3225 ;;                  1    wreg      void 
  3226 ;; Registers used:
  3227 ;;		wreg
  3228 ;; Tracked objects:
  3229 ;;		On entry : 0/0
  3230 ;;		On exit  : 0/0
  3231 ;;		Unchanged: 0/0
  3232 ;; Data sizes:     COMMON   BANK0   BANK1   BANK2   BANK3   BANK4
  3233 ;;      Params:         0       0       0       0       0       0
  3234 ;;      Locals:         0       0       0       0       0       0
  3235 ;;      Temps:          0       0       0       0       0       0
  3236 ;;      Totals:         0       0       0       0       0       0
  3237 ;;Total ram usage:        0 bytes
  3238 ;; Hardware stack levels used:    1
  3239 ;; Hardware stack levels required when called:    3
  3240 ;; This function calls:
  3241 ;;		Nothing
  3242 ;; This function is called by:
  3243 ;;		_lcd_harfyaz
  3244 ;;		_lcd_komut
  3245 ;; This function uses a non-reentrant model
  3246 ;;
  3247                           
  3248                           
  3249                           ;psect for function _lcd_mesgulmu
  3250  05AA                     _lcd_mesgulmu:	
  3251                           
  3252                           ;seri_lcd.c: 165: _delay((unsigned long)((100)*(32000000/4000000.0)));
  3253                           
  3254                           ;incstack = 0
  3255                           ; Regs used in _lcd_mesgulmu: [wreg]
  3256  05AA  30A0               	movlw	160
  3257  05AB                     u1727:	
  3258  05AB  3200               	nop2
  3259  05AC  0B89               	decfsz	9,f
  3260  05AD  2DAB               	goto	u1727
  3261  05AE  0008               	return
  3262  05AF                     __end_of_lcd_mesgulmu:	
  3263                           
  3264                           	psect	text13
  3265  059E                     __ptext13:	
  3266 ;; *************** function _lcd_aydinlatma_ac *****************
  3267 ;; Defined at:
  3268 ;;		line 348 in file "seri_lcd.c"
  3269 ;; Parameters:    Size  Location     Type
  3270 ;;		None
  3271 ;; Auto vars:     Size  Location     Type
  3272 ;;		None
  3273 ;; Return value:  Size  Location     Type
  3274 ;;                  1    wreg      void 
  3275 ;; Registers used:
  3276 ;;		wreg, fsr1l, fsr1h, status,2, status,0, pclath, cstack
  3277 ;; Tracked objects:
  3278 ;;		On entry : 0/0
  3279 ;;		On exit  : 0/0
  3280 ;;		Unchanged: 0/0
  3281 ;; Data sizes:     COMMON   BANK0   BANK1   BANK2   BANK3   BANK4
  3282 ;;      Params:         0       0       0       0       0       0
  3283 ;;      Locals:         0       0       0       0       0       0
  3284 ;;      Temps:          0       0       0       0       0       0
  3285 ;;      Totals:         0       0       0       0       0       0
  3286 ;;Total ram usage:        0 bytes
  3287 ;; Hardware stack levels used:    1
  3288 ;; Hardware stack levels required when called:    6
  3289 ;; This function calls:
  3290 ;;		_pcf8574_yaz
  3291 ;; This function is called by:
  3292 ;;		_main
  3293 ;;		_lcd_baslat
  3294 ;; This function uses a non-reentrant model
  3295 ;;
  3296                           
  3297                           
  3298                           ;psect for function _lcd_aydinlatma_ac
  3299  059E                     _lcd_aydinlatma_ac:	
  3300                           
  3301                           ;seri_lcd.c: 350: pcf_port.lcd.LED=1;
  3302                           
  3303                           ;incstack = 0
  3304                           ; Regs used in _lcd_aydinlatma_ac: [wreg+fsr1l+fsr1h+status,2+status,0+pclath+cstack]
  3305  059E  0020               	movlb	0	; select bank0
  3306  059F  15E0               	bsf	_pcf_port,3
  3307                           
  3308                           ;seri_lcd.c: 351: pcf8574_yaz(pcf_port.port);
  3309  05A0  0860               	movf	_pcf_port,w
  3310  05A1  3184  242F         	fcall	_pcf8574_yaz
  3311  05A3  0008               	return
  3312  05A4                     __end_of_lcd_aydinlatma_ac:	
  3313                           
  3314                           	psect	text14
  3315  05A4                     __ptext14:	
  3316 ;; *************** function _lcd_aydinlatma_kapat *****************
  3317 ;; Defined at:
  3318 ;;		line 357 in file "seri_lcd.c"
  3319 ;; Parameters:    Size  Location     Type
  3320 ;;		None
  3321 ;; Auto vars:     Size  Location     Type
  3322 ;;		None
  3323 ;; Return value:  Size  Location     Type
  3324 ;;                  1    wreg      void 
  3325 ;; Registers used:
  3326 ;;		wreg, fsr1l, fsr1h, status,2, status,0, pclath, cstack
  3327 ;; Tracked objects:
  3328 ;;		On entry : 0/0
  3329 ;;		On exit  : 0/0
  3330 ;;		Unchanged: 0/0
  3331 ;; Data sizes:     COMMON   BANK0   BANK1   BANK2   BANK3   BANK4
  3332 ;;      Params:         0       0       0       0       0       0
  3333 ;;      Locals:         0       0       0       0       0       0
  3334 ;;      Temps:          0       0       0       0       0       0
  3335 ;;      Totals:         0       0       0       0       0       0
  3336 ;;Total ram usage:        0 bytes
  3337 ;; Hardware stack levels used:    1
  3338 ;; Hardware stack levels required when called:    6
  3339 ;; This function calls:
  3340 ;;		_pcf8574_yaz
  3341 ;; This function is called by:
  3342 ;;		_main
  3343 ;; This function uses a non-reentrant model
  3344 ;;
  3345                           
  3346                           
  3347                           ;psect for function _lcd_aydinlatma_kapat
  3348  05A4                     _lcd_aydinlatma_kapat:	
  3349                           
  3350                           ;seri_lcd.c: 359: pcf_port.lcd.LED=0;
  3351                           
  3352                           ;incstack = 0
  3353                           ; Regs used in _lcd_aydinlatma_kapat: [wreg+fsr1l+fsr1h+status,2+status,0+pclath+cstack]
  3354  05A4  0020               	movlb	0	; select bank0
  3355  05A5  11E0               	bcf	_pcf_port,3
  3356                           
  3357                           ;seri_lcd.c: 360: pcf8574_yaz(pcf_port.port);
  3358  05A6  0860               	movf	_pcf_port,w
  3359  05A7  3184  242F         	fcall	_pcf8574_yaz
  3360  05A9  0008               	return
  3361  05AA                     __end_of_lcd_aydinlatma_kapat:	
  3362                           
  3363                           	psect	text15
  3364  042F                     __ptext15:	
  3365 ;; *************** function _pcf8574_yaz *****************
  3366 ;; Defined at:
  3367 ;;		line 20 in file "pcf8574.c"
  3368 ;; Parameters:    Size  Location     Type
  3369 ;;  veri            1    wreg     unsigned char 
  3370 ;; Auto vars:     Size  Location     Type
  3371 ;;  veri            1   15[BANK0 ] unsigned char 
  3372 ;;  timeOut         2   16[BANK0 ] unsigned int 
  3373 ;;  status          1   19[BANK0 ] enum E2806
  3374 ;;  writeBuffer     1   18[BANK0 ] unsigned char [1]
  3375 ;; Return value:  Size  Location     Type
  3376 ;;                  1    wreg      void 
  3377 ;; Registers used:
  3378 ;;		wreg, fsr1l, fsr1h, status,2, status,0, pclath, cstack
  3379 ;; Tracked objects:
  3380 ;;		On entry : 0/0
  3381 ;;		On exit  : 0/0
  3382 ;;		Unchanged: 0/0
  3383 ;; Data sizes:     COMMON   BANK0   BANK1   BANK2   BANK3   BANK4
  3384 ;;      Params:         0       0       0       0       0       0
  3385 ;;      Locals:         0       5       0       0       0       0
  3386 ;;      Temps:          0       1       0       0       0       0
  3387 ;;      Totals:         0       6       0       0       0       0
  3388 ;;Total ram usage:        6 bytes
  3389 ;; Hardware stack levels used:    1
  3390 ;; Hardware stack levels required when called:    5
  3391 ;; This function calls:
  3392 ;;		_I2C1_MasterWrite
  3393 ;; This function is called by:
  3394 ;;		_lcd_baslat
  3395 ;;		_lcd_aydinlatma_ac
  3396 ;;		_lcd_aydinlatma_kapat
  3397 ;; This function uses a non-reentrant model
  3398 ;;
  3399                           
  3400                           
  3401                           ;psect for function _pcf8574_yaz
  3402  042F                     _pcf8574_yaz:	
  3403                           
  3404                           ;incstack = 0
  3405                           ; Regs used in _pcf8574_yaz: [wreg+fsr1l+fsr1h+status,2+status,0+pclath+cstack]
  3406                           ;pcf8574_yaz@veri stored from wreg
  3407  042F  0020               	movlb	0	; select bank0
  3408  0430  00AF               	movwf	pcf8574_yaz@veri
  3409                           
  3410                           ;pcf8574.c: 22: I2C1_MESSAGE_STATUS status;
  3411                           ;pcf8574.c: 23: uint8_t writeBuffer[1];
  3412                           ;pcf8574.c: 24: uint16_t timeOut;
  3413                           ;pcf8574.c: 26: writeBuffer[0] = veri;
  3414  0431  082F               	movf	pcf8574_yaz@veri,w
  3415  0432  00AE               	movwf	??_pcf8574_yaz
  3416  0433  082E               	movf	??_pcf8574_yaz,w
  3417  0434  00B2               	movwf	pcf8574_yaz@writeBuffer
  3418                           
  3419                           ;pcf8574.c: 27: timeOut = 0;
  3420  0435  01B0               	clrf	pcf8574_yaz@timeOut
  3421  0436  01B1               	clrf	pcf8574_yaz@timeOut+1
  3422  0437                     l1579:	
  3423                           ;pcf8574.c: 28: while (status != I2C1_MESSAGE_FAIL) {
  3424                           
  3425  0437  0333               	decf	pcf8574_yaz@status,w
  3426  0438  1903               	btfsc	3,2
  3427  0439  0008               	return
  3428                           
  3429                           ;pcf8574.c: 31: I2C1_MasterWrite(writeBuffer,
  3430                           ;pcf8574.c: 32: 1,
  3431                           ;pcf8574.c: 33: 0x3F,
  3432                           ;pcf8574.c: 34: &status);
  3433  043A  01A7               	clrf	I2C1_MasterWrite@length
  3434  043B  0AA7               	incf	I2C1_MasterWrite@length,f
  3435  043C  303F               	movlw	63
  3436  043D  00A8               	movwf	I2C1_MasterWrite@address
  3437  043E  3000               	movlw	0
  3438  043F  00A9               	movwf	I2C1_MasterWrite@address+1
  3439  0440  3033               	movlw	(low (pcf8574_yaz@status| 0))& (0+255)
  3440  0441  00AE               	movwf	??_pcf8574_yaz
  3441  0442  082E               	movf	??_pcf8574_yaz,w
  3442  0443  00AA               	movwf	I2C1_MasterWrite@pflag
  3443  0444  3032               	movlw	(low (pcf8574_yaz@writeBuffer| 0))& (0+255)
  3444  0445  3184  2483  3184   	fcall	_I2C1_MasterWrite
  3445  0448                     l1565:	
  3446                           ;pcf8574.c: 37: while (status == I2C1_MESSAGE_PENDING);
  3447                           
  3448  0448  3002               	movlw	2
  3449  0449  0020               	movlb	0	; select bank0
  3450  044A  0633               	xorwf	pcf8574_yaz@status,w
  3451  044B  1903               	btfsc	3,2
  3452  044C  2C48               	goto	l1565
  3453                           
  3454                           ;pcf8574.c: 40: if (status == I2C1_MESSAGE_COMPLETE)
  3455  044D  0833               	movf	pcf8574_yaz@status,w
  3456  044E  1903               	btfsc	3,2
  3457  044F  0008               	return
  3458                           
  3459                           ;pcf8574.c: 45: if (timeOut == 10)
  3460                           
  3461                           ;pcf8574.c: 41: break;
  3462  0450  300A               	movlw	10
  3463  0451  0630               	xorwf	pcf8574_yaz@timeOut,w
  3464  0452  0431               	iorwf	pcf8574_yaz@timeOut+1,w
  3465  0453  1903               	btfsc	3,2
  3466  0454  0008               	return
  3467                           
  3468                           ;pcf8574.c: 47: else
  3469                           ;pcf8574.c: 48: timeOut++;
  3470                           
  3471                           ;pcf8574.c: 46: break;
  3472  0455  3001               	movlw	1
  3473  0456  07B0               	addwf	pcf8574_yaz@timeOut,f
  3474  0457  3000               	movlw	0
  3475  0458  3DB1               	addwfc	pcf8574_yaz@timeOut+1,f
  3476  0459  2C37               	goto	l1579
  3477  045A                     __end_of_pcf8574_yaz:	
  3478                           
  3479                           	psect	text16
  3480  0483                     __ptext16:	
  3481 ;; *************** function _I2C1_MasterWrite *****************
  3482 ;; Defined at:
  3483 ;;		line 598 in file "mcc_generated_files/i2c1.c"
  3484 ;; Parameters:    Size  Location     Type
  3485 ;;  pdata           1    wreg     PTR unsigned char 
  3486 ;;		 -> pcf8574_yaz_wEnable@writeBuffer(3), pcf8574_yaz@writeBuffer(1), 
  3487 ;;  length          1    7[BANK0 ] unsigned char 
  3488 ;;  address         2    8[BANK0 ] unsigned int 
  3489 ;;  pflag           1   10[BANK0 ] PTR enum E2799
  3490 ;;		 -> pcf8574_yaz_wEnable@status(1), pcf8574_yaz@status(1), 
  3491 ;; Auto vars:     Size  Location     Type
  3492 ;;  pdata           1   13[BANK0 ] PTR unsigned char 
  3493 ;;		 -> pcf8574_yaz_wEnable@writeBuffer(3), pcf8574_yaz@writeBuffer(1), 
  3494 ;; Return value:  Size  Location     Type
  3495 ;;                  1    wreg      void 
  3496 ;; Registers used:
  3497 ;;		wreg, fsr1l, fsr1h, status,2, status,0, pclath, cstack
  3498 ;; Tracked objects:
  3499 ;;		On entry : 0/0
  3500 ;;		On exit  : 0/0
  3501 ;;		Unchanged: 0/0
  3502 ;; Data sizes:     COMMON   BANK0   BANK1   BANK2   BANK3   BANK4
  3503 ;;      Params:         0       4       0       0       0       0
  3504 ;;      Locals:         0       1       0       0       0       0
  3505 ;;      Temps:          0       2       0       0       0       0
  3506 ;;      Totals:         0       7       0       0       0       0
  3507 ;;Total ram usage:        7 bytes
  3508 ;; Hardware stack levels used:    1
  3509 ;; Hardware stack levels required when called:    4
  3510 ;; This function calls:
  3511 ;;		_I2C1_MasterTRBInsert
  3512 ;;		_I2C1_MasterWriteTRBBuild
  3513 ;; This function is called by:
  3514 ;;		_pcf8574_yaz
  3515 ;;		_pcf8574_yaz_wEnable
  3516 ;; This function uses a non-reentrant model
  3517 ;;
  3518                           
  3519                           
  3520                           ;psect for function _I2C1_MasterWrite
  3521  0483                     _I2C1_MasterWrite:	
  3522                           
  3523                           ;incstack = 0
  3524                           ; Regs used in _I2C1_MasterWrite: [wreg+fsr1l+fsr1h+status,2+status,0+pclath+cstack]
  3525                           ;I2C1_MasterWrite@pdata stored from wreg
  3526  0483  0020               	movlb	0	; select bank0
  3527  0484  00AD               	movwf	I2C1_MasterWrite@pdata
  3528                           
  3529                           ;i2c1.c: 604: static I2C1_TRANSACTION_REQUEST_BLOCK trBlock;
  3530                           ;i2c1.c: 607: if (i2c1_object.trStatus.s.full != 1)
  3531  0485  184D               	btfsc	_i2c1_object+2,0
  3532  0486  2CA4               	goto	l1529
  3533                           
  3534                           ;i2c1.c: 608: {
  3535                           ;i2c1.c: 609: I2C1_MasterWriteTRBBuild(&trBlock, pdata, length, address);
  3536  0487  082D               	movf	I2C1_MasterWrite@pdata,w
  3537  0488  00AB               	movwf	??_I2C1_MasterWrite
  3538  0489  082B               	movf	??_I2C1_MasterWrite,w
  3539  048A  00A0               	movwf	I2C1_MasterWriteTRBBuild@pdata
  3540  048B  0827               	movf	I2C1_MasterWrite@length,w
  3541  048C  00AC               	movwf	??_I2C1_MasterWrite+1
  3542  048D  082C               	movf	??_I2C1_MasterWrite+1,w
  3543  048E  00A1               	movwf	I2C1_MasterWriteTRBBuild@length
  3544  048F  0829               	movf	I2C1_MasterWrite@address+1,w
  3545  0490  00A3               	movwf	I2C1_MasterWriteTRBBuild@address+1
  3546  0491  0828               	movf	I2C1_MasterWrite@address,w
  3547  0492  00A2               	movwf	I2C1_MasterWriteTRBBuild@address
  3548  0493  3059               	movlw	(low (I2C1_MasterWrite@trBlock| 0))& (0+255)
  3549  0494  3184  24CB  3184   	fcall	_I2C1_MasterWriteTRBBuild
  3550                           
  3551                           ;i2c1.c: 610: I2C1_MasterTRBInsert(1, &trBlock, pflag);
  3552  0497  3059               	movlw	(low (I2C1_MasterWrite@trBlock| 0))& (0+255)
  3553  0498  0020               	movlb	0	; select bank0
  3554  0499  00AB               	movwf	??_I2C1_MasterWrite
  3555  049A  082B               	movf	??_I2C1_MasterWrite,w
  3556  049B  00A0               	movwf	I2C1_MasterTRBInsert@ptrb_list
  3557  049C  082A               	movf	I2C1_MasterWrite@pflag,w
  3558  049D  00AC               	movwf	??_I2C1_MasterWrite+1
  3559  049E  082C               	movf	??_I2C1_MasterWrite+1,w
  3560  049F  00A1               	movwf	I2C1_MasterTRBInsert@pflag
  3561  04A0  3001               	movlw	1
  3562  04A1  3182  22AF         	fcall	_I2C1_MasterTRBInsert
  3563                           
  3564                           ;i2c1.c: 611: }
  3565  04A3  0008               	return
  3566  04A4                     l1529:	
  3567                           
  3568                           ;i2c1.c: 612: else
  3569                           ;i2c1.c: 613: {
  3570                           ;i2c1.c: 614: *pflag = I2C1_MESSAGE_FAIL;
  3571  04A4  0020               	movlb	0	; select bank0
  3572  04A5  082A               	movf	I2C1_MasterWrite@pflag,w
  3573  04A6  0086               	movwf	6
  3574  04A7  0187               	clrf	7
  3575  04A8  0181               	clrf	1
  3576  04A9  0A81               	incf	1,f
  3577  04AA  0008               	return
  3578  04AB                     __end_of_I2C1_MasterWrite:	
  3579                           
  3580                           	psect	text17
  3581  04CB                     __ptext17:	
  3582 ;; *************** function _I2C1_MasterWriteTRBBuild *****************
  3583 ;; Defined at:
  3584 ;;		line 707 in file "mcc_generated_files/i2c1.c"
  3585 ;; Parameters:    Size  Location     Type
  3586 ;;  ptrb            1    wreg     PTR struct .
  3587 ;;		 -> I2C1_MasterWrite@trBlock(4), 
  3588 ;;  pdata           1    0[BANK0 ] PTR unsigned char 
  3589 ;;		 -> pcf8574_yaz_wEnable@writeBuffer(3), pcf8574_yaz@writeBuffer(1), 
  3590 ;;  length          1    1[BANK0 ] unsigned char 
  3591 ;;  address         2    2[BANK0 ] unsigned int 
  3592 ;; Auto vars:     Size  Location     Type
  3593 ;;  ptrb            1    6[BANK0 ] PTR struct .
  3594 ;;		 -> I2C1_MasterWrite@trBlock(4), 
  3595 ;; Return value:  Size  Location     Type
  3596 ;;                  1    wreg      void 
  3597 ;; Registers used:
  3598 ;;		wreg, fsr1l, fsr1h, status,2, status,0
  3599 ;; Tracked objects:
  3600 ;;		On entry : 0/0
  3601 ;;		On exit  : 0/0
  3602 ;;		Unchanged: 0/0
  3603 ;; Data sizes:     COMMON   BANK0   BANK1   BANK2   BANK3   BANK4
  3604 ;;      Params:         0       4       0       0       0       0
  3605 ;;      Locals:         0       1       0       0       0       0
  3606 ;;      Temps:          0       2       0       0       0       0
  3607 ;;      Totals:         0       7       0       0       0       0
  3608 ;;Total ram usage:        7 bytes
  3609 ;; Hardware stack levels used:    1
  3610 ;; Hardware stack levels required when called:    3
  3611 ;; This function calls:
  3612 ;;		Nothing
  3613 ;; This function is called by:
  3614 ;;		_I2C1_MasterWrite
  3615 ;; This function uses a non-reentrant model
  3616 ;;
  3617                           
  3618                           
  3619                           ;psect for function _I2C1_MasterWriteTRBBuild
  3620  04CB                     _I2C1_MasterWriteTRBBuild:	
  3621                           
  3622                           ;incstack = 0
  3623                           ; Regs used in _I2C1_MasterWriteTRBBuild: [wreg+fsr1l+fsr1h+status,2+status,0]
  3624                           ;I2C1_MasterWriteTRBBuild@ptrb stored from wreg
  3625  04CB  0020               	movlb	0	; select bank0
  3626  04CC  00A6               	movwf	I2C1_MasterWriteTRBBuild@ptrb
  3627                           
  3628                           ;i2c1.c: 713: ptrb->address = address << 1;
  3629  04CD  0823               	movf	I2C1_MasterWriteTRBBuild@address+1,w
  3630  04CE  00A5               	movwf	??_I2C1_MasterWriteTRBBuild+1
  3631  04CF  0822               	movf	I2C1_MasterWriteTRBBuild@address,w
  3632  04D0  00A4               	movwf	??_I2C1_MasterWriteTRBBuild
  3633  04D1  35A4               	lslf	??_I2C1_MasterWriteTRBBuild,f
  3634  04D2  0DA5               	rlf	??_I2C1_MasterWriteTRBBuild+1,f
  3635  04D3  0826               	movf	I2C1_MasterWriteTRBBuild@ptrb,w
  3636  04D4  0086               	movwf	6
  3637  04D5  0187               	clrf	7
  3638  04D6  0824               	movf	??_I2C1_MasterWriteTRBBuild,w
  3639  04D7  3FC0               	movwi [0]fsr1
  3640  04D8  0825               	movf	??_I2C1_MasterWriteTRBBuild+1,w
  3641  04D9  3FC1               	movwi [1]fsr1
  3642                           
  3643                           ;i2c1.c: 714: ptrb->length = length;
  3644  04DA  0821               	movf	I2C1_MasterWriteTRBBuild@length,w
  3645  04DB  00A4               	movwf	??_I2C1_MasterWriteTRBBuild
  3646  04DC  0826               	movf	I2C1_MasterWriteTRBBuild@ptrb,w
  3647  04DD  3E02               	addlw	2
  3648  04DE  0086               	movwf	6
  3649  04DF  0187               	clrf	7
  3650  04E0  0824               	movf	??_I2C1_MasterWriteTRBBuild,w
  3651  04E1  0081               	movwf	1
  3652                           
  3653                           ;i2c1.c: 715: ptrb->pbuffer = pdata;
  3654  04E2  0820               	movf	I2C1_MasterWriteTRBBuild@pdata,w
  3655  04E3  00A4               	movwf	??_I2C1_MasterWriteTRBBuild
  3656  04E4  0826               	movf	I2C1_MasterWriteTRBBuild@ptrb,w
  3657  04E5  3E03               	addlw	3
  3658  04E6  0086               	movwf	6
  3659  04E7  0187               	clrf	7
  3660  04E8  0824               	movf	??_I2C1_MasterWriteTRBBuild,w
  3661  04E9  0081               	movwf	1
  3662  04EA  0008               	return
  3663  04EB                     __end_of_I2C1_MasterWriteTRBBuild:	
  3664                           
  3665                           	psect	text18
  3666  02AF                     __ptext18:	
  3667 ;; *************** function _I2C1_MasterTRBInsert *****************
  3668 ;; Defined at:
  3669 ;;		line 641 in file "mcc_generated_files/i2c1.c"
  3670 ;; Parameters:    Size  Location     Type
  3671 ;;  count           1    wreg     unsigned char 
  3672 ;;  ptrb_list       1    0[BANK0 ] PTR struct .
  3673 ;;		 -> I2C1_MasterRead@trBlock(4), I2C1_MasterWrite@trBlock(4), 
  3674 ;;  pflag           1    1[BANK0 ] PTR enum E2799
  3675 ;;		 -> pcf8574_yaz_wEnable@status(1), pcf8574_yaz@status(1), 
  3676 ;; Auto vars:     Size  Location     Type
  3677 ;;  count           1    3[BANK0 ] unsigned char 
  3678 ;; Return value:  Size  Location     Type
  3679 ;;                  1    wreg      void 
  3680 ;; Registers used:
  3681 ;;		wreg, fsr1l, fsr1h, status,2, status,0
  3682 ;; Tracked objects:
  3683 ;;		On entry : 0/0
  3684 ;;		On exit  : 0/0
  3685 ;;		Unchanged: 0/0
  3686 ;; Data sizes:     COMMON   BANK0   BANK1   BANK2   BANK3   BANK4
  3687 ;;      Params:         0       2       0       0       0       0
  3688 ;;      Locals:         0       1       0       0       0       0
  3689 ;;      Temps:          0       1       0       0       0       0
  3690 ;;      Totals:         0       4       0       0       0       0
  3691 ;;Total ram usage:        4 bytes
  3692 ;; Hardware stack levels used:    1
  3693 ;; Hardware stack levels required when called:    3
  3694 ;; This function calls:
  3695 ;;		Nothing
  3696 ;; This function is called by:
  3697 ;;		_I2C1_MasterWrite
  3698 ;;		_I2C1_MasterRead
  3699 ;; This function uses a non-reentrant model
  3700 ;;
  3701                           
  3702                           
  3703                           ;psect for function _I2C1_MasterTRBInsert
  3704  02AF                     _I2C1_MasterTRBInsert:	
  3705                           
  3706                           ;incstack = 0
  3707                           ; Regs used in _I2C1_MasterTRBInsert: [wreg+fsr1l+fsr1h+status,2+status,0]
  3708                           ;I2C1_MasterTRBInsert@count stored from wreg
  3709  02AF  0020               	movlb	0	; select bank0
  3710  02B0  00A3               	movwf	I2C1_MasterTRBInsert@count
  3711                           
  3712                           ;i2c1.c: 648: if (i2c1_object.trStatus.s.full != 1)
  3713  02B1  184D               	btfsc	_i2c1_object+2,0
  3714  02B2  2AE3               	goto	l1517
  3715                           
  3716                           ;i2c1.c: 649: {
  3717                           ;i2c1.c: 650: *pflag = I2C1_MESSAGE_PENDING;
  3718  02B3  3002               	movlw	2
  3719  02B4  00A2               	movwf	??_I2C1_MasterTRBInsert
  3720  02B5  0821               	movf	I2C1_MasterTRBInsert@pflag,w
  3721  02B6  0086               	movwf	6
  3722  02B7  0187               	clrf	7
  3723  02B8  0822               	movf	??_I2C1_MasterTRBInsert,w
  3724  02B9  0081               	movwf	1
  3725                           
  3726                           ;i2c1.c: 652: i2c1_object.pTrTail->ptrb_list = ptrb_list;
  3727  02BA  0820               	movf	I2C1_MasterTRBInsert@ptrb_list,w
  3728  02BB  00A2               	movwf	??_I2C1_MasterTRBInsert
  3729  02BC  0A4B               	incf	_i2c1_object,w
  3730  02BD  0086               	movwf	6
  3731  02BE  0187               	clrf	7
  3732  02BF  0822               	movf	??_I2C1_MasterTRBInsert,w
  3733  02C0  0081               	movwf	1
  3734                           
  3735                           ;i2c1.c: 653: i2c1_object.pTrTail->count = count;
  3736  02C1  0823               	movf	I2C1_MasterTRBInsert@count,w
  3737  02C2  00A2               	movwf	??_I2C1_MasterTRBInsert
  3738  02C3  084B               	movf	_i2c1_object,w
  3739  02C4  0086               	movwf	6
  3740  02C5  0187               	clrf	7
  3741  02C6  0822               	movf	??_I2C1_MasterTRBInsert,w
  3742  02C7  0081               	movwf	1
  3743                           
  3744                           ;i2c1.c: 654: i2c1_object.pTrTail->pTrFlag = pflag;
  3745  02C8  0821               	movf	I2C1_MasterTRBInsert@pflag,w
  3746  02C9  00A2               	movwf	??_I2C1_MasterTRBInsert
  3747  02CA  084B               	movf	_i2c1_object,w
  3748  02CB  3E02               	addlw	2
  3749  02CC  0086               	movwf	6
  3750  02CD  0187               	clrf	7
  3751  02CE  0822               	movf	??_I2C1_MasterTRBInsert,w
  3752  02CF  0081               	movwf	1
  3753                           
  3754                           ;i2c1.c: 655: i2c1_object.pTrTail++;
  3755  02D0  3003               	movlw	3
  3756  02D1  00A2               	movwf	??_I2C1_MasterTRBInsert
  3757  02D2  0822               	movf	??_I2C1_MasterTRBInsert,w
  3758  02D3  07CB               	addwf	_i2c1_object,f
  3759                           
  3760                           ;i2c1.c: 658: if (i2c1_object.pTrTail == (i2c1_tr_queue + 1))
  3761  02D4  084B               	movf	_i2c1_object,w
  3762  02D5  3A60               	xorlw	(low ((_i2c1_tr_queue| 0+3)))& (0+255)
  3763  02D6  1D03               	skipz
  3764  02D7  2ADC               	goto	l1513
  3765                           
  3766                           ;i2c1.c: 659: {
  3767                           ;i2c1.c: 661: i2c1_object.pTrTail = i2c1_tr_queue;
  3768  02D8  305D               	movlw	(low (_i2c1_tr_queue| 0))& (0+255)
  3769  02D9  00A2               	movwf	??_I2C1_MasterTRBInsert
  3770  02DA  0822               	movf	??_I2C1_MasterTRBInsert,w
  3771  02DB  00CB               	movwf	_i2c1_object
  3772  02DC                     l1513:	
  3773                           
  3774                           ;i2c1.c: 662: }
  3775                           ;i2c1.c: 666: i2c1_object.trStatus.s.empty = 0;
  3776  02DC  10CD               	bcf	_i2c1_object+2,1
  3777                           
  3778                           ;i2c1.c: 669: if (i2c1_object.pTrHead == i2c1_object.pTrTail)
  3779  02DD  084C               	movf	low ((_i2c1_object| 0+1)),w
  3780  02DE  064B               	xorwf	_i2c1_object,w
  3781  02DF  1D03               	skipz
  3782  02E0  2AE8               	goto	l1519
  3783                           
  3784                           ;i2c1.c: 670: {
  3785                           ;i2c1.c: 672: i2c1_object.trStatus.s.full = 1;
  3786  02E1  144D               	bsf	_i2c1_object+2,0
  3787                           
  3788                           ;i2c1.c: 673: }
  3789                           ;i2c1.c: 675: }
  3790  02E2  2AE8               	goto	l1519
  3791  02E3                     l1517:	
  3792                           
  3793                           ;i2c1.c: 676: else
  3794                           ;i2c1.c: 677: {
  3795                           ;i2c1.c: 678: *pflag = I2C1_MESSAGE_FAIL;
  3796  02E3  0821               	movf	I2C1_MasterTRBInsert@pflag,w
  3797  02E4  0086               	movwf	6
  3798  02E5  0187               	clrf	7
  3799  02E6  0181               	clrf	1
  3800  02E7  0A81               	incf	1,f
  3801  02E8                     l1519:	
  3802                           
  3803                           ;i2c1.c: 679: }
  3804                           ;i2c1.c: 682: if (*pflag == I2C1_MESSAGE_PENDING)
  3805  02E8  0821               	movf	I2C1_MasterTRBInsert@pflag,w
  3806  02E9  0086               	movwf	6
  3807  02EA  0187               	clrf	7
  3808  02EB  3002               	movlw	2
  3809  02EC  0601               	xorwf	1,w
  3810  02ED  1D03               	btfss	3,2
  3811  02EE  0008               	return
  3812  02EF                     l1523:	
  3813                           ;i2c1.c: 683: {
  3814                           ;i2c1.c: 684: while(i2c1_state != S_MASTER_IDLE);
  3815                           
  3816  02EF  0854               	movf	_i2c1_state,w
  3817  02F0  1D03               	btfss	3,2
  3818  02F1  2AEF               	goto	l1523
  3819                           
  3820                           ;i2c1.c: 685: {
  3821                           ;i2c1.c: 688: PIR1bits.SSP1IF = 1;
  3822  02F2  1591               	bsf	17,3	;volatile
  3823  02F3  0008               	return
  3824  02F4                     __end_of_I2C1_MasterTRBInsert:	
  3825                           
  3826                           	psect	text19
  3827  0578                     __ptext19:	
  3828 ;; *************** function _SYSTEM_Initialize *****************
  3829 ;; Defined at:
  3830 ;;		line 69 in file "mcc_generated_files/mcc.c"
  3831 ;; Parameters:    Size  Location     Type
  3832 ;;		None
  3833 ;; Auto vars:     Size  Location     Type
  3834 ;;		None
  3835 ;; Return value:  Size  Location     Type
  3836 ;;                  1    wreg      void 
  3837 ;; Registers used:
  3838 ;;		wreg, status,2, status,0, pclath, cstack
  3839 ;; Tracked objects:
  3840 ;;		On entry : 0/0
  3841 ;;		On exit  : 0/0
  3842 ;;		Unchanged: 0/0
  3843 ;; Data sizes:     COMMON   BANK0   BANK1   BANK2   BANK3   BANK4
  3844 ;;      Params:         0       0       0       0       0       0
  3845 ;;      Locals:         0       0       0       0       0       0
  3846 ;;      Temps:          0       0       0       0       0       0
  3847 ;;      Totals:         0       0       0       0       0       0
  3848 ;;Total ram usage:        0 bytes
  3849 ;; Hardware stack levels used:    1
  3850 ;; Hardware stack levels required when called:    4
  3851 ;; This function calls:
  3852 ;;		_I2C1_Initialize
  3853 ;;		_OSCILLATOR_Initialize
  3854 ;;		_PIN_MANAGER_Initialize
  3855 ;;		_WDT_Initialize
  3856 ;; This function is called by:
  3857 ;;		_main
  3858 ;; This function uses a non-reentrant model
  3859 ;;
  3860                           
  3861                           
  3862                           ;psect for function _SYSTEM_Initialize
  3863  0578                     _SYSTEM_Initialize:	
  3864                           
  3865                           ;mcc.c: 72: PIN_MANAGER_Initialize();
  3866                           
  3867                           ;incstack = 0
  3868                           ; Regs used in _SYSTEM_Initialize: [wreg+status,2+status,0+pclath+cstack]
  3869  0578  3185  2506  3185   	fcall	_PIN_MANAGER_Initialize
  3870                           
  3871                           ;mcc.c: 73: OSCILLATOR_Initialize();
  3872  057B  3185  258B  3185   	fcall	_OSCILLATOR_Initialize
  3873                           
  3874                           ;mcc.c: 74: WDT_Initialize();
  3875  057E  3185  25B3  3185   	fcall	_WDT_Initialize
  3876                           
  3877                           ;mcc.c: 75: I2C1_Initialize();
  3878  0581  3185  251E         	fcall	_I2C1_Initialize
  3879  0583  0008               	return
  3880  0584                     __end_of_SYSTEM_Initialize:	
  3881                           
  3882                           	psect	text20
  3883  05B3                     __ptext20:	
  3884 ;; *************** function _WDT_Initialize *****************
  3885 ;; Defined at:
  3886 ;;		line 90 in file "mcc_generated_files/mcc.c"
  3887 ;; Parameters:    Size  Location     Type
  3888 ;;		None
  3889 ;; Auto vars:     Size  Location     Type
  3890 ;;		None
  3891 ;; Return value:  Size  Location     Type
  3892 ;;                  1    wreg      void 
  3893 ;; Registers used:
  3894 ;;		wreg
  3895 ;; Tracked objects:
  3896 ;;		On entry : 0/0
  3897 ;;		On exit  : 0/0
  3898 ;;		Unchanged: 0/0
  3899 ;; Data sizes:     COMMON   BANK0   BANK1   BANK2   BANK3   BANK4
  3900 ;;      Params:         0       0       0       0       0       0
  3901 ;;      Locals:         0       0       0       0       0       0
  3902 ;;      Temps:          0       0       0       0       0       0
  3903 ;;      Totals:         0       0       0       0       0       0
  3904 ;;Total ram usage:        0 bytes
  3905 ;; Hardware stack levels used:    1
  3906 ;; Hardware stack levels required when called:    3
  3907 ;; This function calls:
  3908 ;;		Nothing
  3909 ;; This function is called by:
  3910 ;;		_SYSTEM_Initialize
  3911 ;; This function uses a non-reentrant model
  3912 ;;
  3913                           
  3914                           
  3915                           ;psect for function _WDT_Initialize
  3916  05B3                     _WDT_Initialize:	
  3917                           
  3918                           ;mcc.c: 93: WDTCON = 0x16;
  3919                           
  3920                           ;incstack = 0
  3921                           ; Regs used in _WDT_Initialize: [wreg]
  3922  05B3  3016               	movlw	22
  3923  05B4  0021               	movlb	1	; select bank1
  3924  05B5  0097               	movwf	23	;volatile
  3925  05B6  0008               	return
  3926  05B7                     __end_of_WDT_Initialize:	
  3927                           
  3928                           	psect	text21
  3929  0506                     __ptext21:	
  3930 ;; *************** function _PIN_MANAGER_Initialize *****************
  3931 ;; Defined at:
  3932 ;;		line 52 in file "mcc_generated_files/pin_manager.c"
  3933 ;; Parameters:    Size  Location     Type
  3934 ;;		None
  3935 ;; Auto vars:     Size  Location     Type
  3936 ;;		None
  3937 ;; Return value:  Size  Location     Type
  3938 ;;                  1    wreg      void 
  3939 ;; Registers used:
  3940 ;;		wreg, status,2
  3941 ;; Tracked objects:
  3942 ;;		On entry : 0/0
  3943 ;;		On exit  : 0/0
  3944 ;;		Unchanged: 0/0
  3945 ;; Data sizes:     COMMON   BANK0   BANK1   BANK2   BANK3   BANK4
  3946 ;;      Params:         0       0       0       0       0       0
  3947 ;;      Locals:         0       0       0       0       0       0
  3948 ;;      Temps:          0       0       0       0       0       0
  3949 ;;      Totals:         0       0       0       0       0       0
  3950 ;;Total ram usage:        0 bytes
  3951 ;; Hardware stack levels used:    1
  3952 ;; Hardware stack levels required when called:    3
  3953 ;; This function calls:
  3954 ;;		Nothing
  3955 ;; This function is called by:
  3956 ;;		_SYSTEM_Initialize
  3957 ;; This function uses a non-reentrant model
  3958 ;;
  3959                           
  3960                           
  3961                           ;psect for function _PIN_MANAGER_Initialize
  3962  0506                     _PIN_MANAGER_Initialize:	
  3963                           
  3964                           ;pin_manager.c: 57: LATA = 0x00;
  3965                           
  3966                           ;incstack = 0
  3967                           ; Regs used in _PIN_MANAGER_Initialize: [wreg+status,2]
  3968  0506  0022               	movlb	2	; select bank2
  3969  0507  018C               	clrf	12	;volatile
  3970                           
  3971                           ;pin_manager.c: 58: LATB = 0x00;
  3972  0508  018D               	clrf	13	;volatile
  3973                           
  3974                           ;pin_manager.c: 63: TRISA = 0xFF;
  3975  0509  30FF               	movlw	255
  3976  050A  0021               	movlb	1	; select bank1
  3977  050B  008C               	movwf	12	;volatile
  3978                           
  3979                           ;pin_manager.c: 64: TRISB = 0xFF;
  3980  050C  30FF               	movlw	255
  3981  050D  008D               	movwf	13	;volatile
  3982                           
  3983                           ;pin_manager.c: 69: ANSELB = 0xEC;
  3984  050E  30EC               	movlw	236
  3985  050F  0023               	movlb	3	; select bank3
  3986  0510  008D               	movwf	13	;volatile
  3987                           
  3988                           ;pin_manager.c: 70: ANSELA = 0x1F;
  3989  0511  301F               	movlw	31
  3990  0512  008C               	movwf	12	;volatile
  3991                           
  3992                           ;pin_manager.c: 75: WPUB = 0xFF;
  3993  0513  30FF               	movlw	255
  3994  0514  0024               	movlb	4	; select bank4
  3995  0515  008D               	movwf	13	;volatile
  3996                           
  3997                           ;pin_manager.c: 76: WPUA = 0x20;
  3998  0516  3020               	movlw	32
  3999  0517  008C               	movwf	12	;volatile
  4000                           
  4001                           ;pin_manager.c: 77: OPTION_REGbits.nWPUEN = 0;
  4002  0518  0021               	movlb	1	; select bank1
  4003  0519  1395               	bcf	21,7	;volatile
  4004                           
  4005                           ;pin_manager.c: 83: APFCON1 = 0x00;
  4006  051A  0022               	movlb	2	; select bank2
  4007  051B  019E               	clrf	30	;volatile
  4008                           
  4009                           ;pin_manager.c: 84: APFCON0 = 0x00;
  4010  051C  019D               	clrf	29	;volatile
  4011  051D  0008               	return
  4012  051E                     __end_of_PIN_MANAGER_Initialize:	
  4013                           
  4014                           	psect	text22
  4015  058B                     __ptext22:	
  4016 ;; *************** function _OSCILLATOR_Initialize *****************
  4017 ;; Defined at:
  4018 ;;		line 78 in file "mcc_generated_files/mcc.c"
  4019 ;; Parameters:    Size  Location     Type
  4020 ;;		None
  4021 ;; Auto vars:     Size  Location     Type
  4022 ;;		None
  4023 ;; Return value:  Size  Location     Type
  4024 ;;                  1    wreg      void 
  4025 ;; Registers used:
  4026 ;;		wreg, status,2
  4027 ;; Tracked objects:
  4028 ;;		On entry : 0/0
  4029 ;;		On exit  : 0/0
  4030 ;;		Unchanged: 0/0
  4031 ;; Data sizes:     COMMON   BANK0   BANK1   BANK2   BANK3   BANK4
  4032 ;;      Params:         0       0       0       0       0       0
  4033 ;;      Locals:         0       0       0       0       0       0
  4034 ;;      Temps:          0       0       0       0       0       0
  4035 ;;      Totals:         0       0       0       0       0       0
  4036 ;;Total ram usage:        0 bytes
  4037 ;; Hardware stack levels used:    1
  4038 ;; Hardware stack levels required when called:    3
  4039 ;; This function calls:
  4040 ;;		Nothing
  4041 ;; This function is called by:
  4042 ;;		_SYSTEM_Initialize
  4043 ;; This function uses a non-reentrant model
  4044 ;;
  4045                           
  4046                           
  4047                           ;psect for function _OSCILLATOR_Initialize
  4048  058B                     _OSCILLATOR_Initialize:	
  4049                           
  4050                           ;mcc.c: 81: OSCCON = 0x70;
  4051                           
  4052                           ;incstack = 0
  4053                           ; Regs used in _OSCILLATOR_Initialize: [wreg+status,2]
  4054  058B  3070               	movlw	112
  4055  058C  0021               	movlb	1	; select bank1
  4056  058D  0099               	movwf	25	;volatile
  4057                           
  4058                           ;mcc.c: 83: OSCTUNE = 0x00;
  4059  058E  0198               	clrf	24	;volatile
  4060  058F                     l22:	
  4061                           ;mcc.c: 86: {
  4062                           
  4063                           ;mcc.c: 85: while(PLLR == 0)
  4064                           
  4065  058F  1B1A               	btfsc	26,6	;volatile
  4066  0590  0008               	return
  4067  0591  2D8F               	goto	l22
  4068  0592                     __end_of_OSCILLATOR_Initialize:	
  4069                           
  4070                           	psect	text23
  4071  051E                     __ptext23:	
  4072 ;; *************** function _I2C1_Initialize *****************
  4073 ;; Defined at:
  4074 ;;		line 198 in file "mcc_generated_files/i2c1.c"
  4075 ;; Parameters:    Size  Location     Type
  4076 ;;		None
  4077 ;; Auto vars:     Size  Location     Type
  4078 ;;		None
  4079 ;; Return value:  Size  Location     Type
  4080 ;;                  1    wreg      void 
  4081 ;; Registers used:
  4082 ;;		wreg, status,2
  4083 ;; Tracked objects:
  4084 ;;		On entry : 0/0
  4085 ;;		On exit  : 0/0
  4086 ;;		Unchanged: 0/0
  4087 ;; Data sizes:     COMMON   BANK0   BANK1   BANK2   BANK3   BANK4
  4088 ;;      Params:         0       0       0       0       0       0
  4089 ;;      Locals:         0       0       0       0       0       0
  4090 ;;      Temps:          0       1       0       0       0       0
  4091 ;;      Totals:         0       1       0       0       0       0
  4092 ;;Total ram usage:        1 bytes
  4093 ;; Hardware stack levels used:    1
  4094 ;; Hardware stack levels required when called:    3
  4095 ;; This function calls:
  4096 ;;		Nothing
  4097 ;; This function is called by:
  4098 ;;		_SYSTEM_Initialize
  4099 ;; This function uses a non-reentrant model
  4100 ;;
  4101                           
  4102                           
  4103                           ;psect for function _I2C1_Initialize
  4104  051E                     _I2C1_Initialize:	
  4105                           
  4106                           ;i2c1.c: 200: i2c1_object.pTrHead = i2c1_tr_queue;
  4107                           
  4108                           ;incstack = 0
  4109                           ; Regs used in _I2C1_Initialize: [wreg+status,2]
  4110  051E  305D               	movlw	(low (_i2c1_tr_queue| 0))& (0+255)
  4111  051F  0020               	movlb	0	; select bank0
  4112  0520  00A0               	movwf	??_I2C1_Initialize
  4113  0521  0820               	movf	??_I2C1_Initialize,w
  4114  0522  00CC               	movwf	low ((_i2c1_object| 0+1))
  4115                           
  4116                           ;i2c1.c: 201: i2c1_object.pTrTail = i2c1_tr_queue;
  4117  0523  305D               	movlw	(low (_i2c1_tr_queue| 0))& (0+255)
  4118  0524  00A0               	movwf	??_I2C1_Initialize
  4119  0525  0820               	movf	??_I2C1_Initialize,w
  4120  0526  00CB               	movwf	_i2c1_object
  4121                           
  4122                           ;i2c1.c: 202: i2c1_object.trStatus.s.empty = 1;
  4123  0527  14CD               	bsf	_i2c1_object+2,1
  4124                           
  4125                           ;i2c1.c: 203: i2c1_object.trStatus.s.full = 0;
  4126  0528  104D               	bcf	_i2c1_object+2,0
  4127                           
  4128                           ;i2c1.c: 205: i2c1_object.i2cErrors = 0;
  4129  0529  01CF               	clrf	_i2c1_object+4
  4130                           
  4131                           ;i2c1.c: 208: SSP1STAT = 0x00;
  4132  052A  0024               	movlb	4	; select bank4
  4133  052B  0194               	clrf	20	;volatile
  4134                           
  4135                           ;i2c1.c: 210: SSP1CON1 = 0x28;
  4136  052C  3028               	movlw	40
  4137  052D  0095               	movwf	21	;volatile
  4138                           
  4139                           ;i2c1.c: 212: SSP1CON3 = 0x00;
  4140  052E  0197               	clrf	23	;volatile
  4141                           
  4142                           ;i2c1.c: 214: SSP1ADD = 0x4F;
  4143  052F  304F               	movlw	79
  4144  0530  0092               	movwf	18	;volatile
  4145                           
  4146                           ;i2c1.c: 218: PIR1bits.SSP1IF = 0;
  4147  0531  0020               	movlb	0	; select bank0
  4148  0532  1191               	bcf	17,3	;volatile
  4149                           
  4150                           ;i2c1.c: 220: PIE1bits.SSP1IE = 1;
  4151  0533  0021               	movlb	1	; select bank1
  4152  0534  1591               	bsf	17,3	;volatile
  4153  0535  0008               	return
  4154  0536                     __end_of_I2C1_Initialize:	
  4155                           
  4156                           	psect	intentry
  4157  0004                     __pintentry:	
  4158 ;; *************** function _INTERRUPT_InterruptManager *****************
  4159 ;; Defined at:
  4160 ;;		line 51 in file "mcc_generated_files/interrupt_manager.c"
  4161 ;; Parameters:    Size  Location     Type
  4162 ;;		None
  4163 ;; Auto vars:     Size  Location     Type
  4164 ;;		None
  4165 ;; Return value:  Size  Location     Type
  4166 ;;                  1    wreg      void 
  4167 ;; Registers used:
  4168 ;;		wreg, fsr0l, fsr0h, fsr1l, fsr1h, status,2, status,0, pclath, cstack
  4169 ;; Tracked objects:
  4170 ;;		On entry : 0/0
  4171 ;;		On exit  : 0/0
  4172 ;;		Unchanged: 0/0
  4173 ;; Data sizes:     COMMON   BANK0   BANK1   BANK2   BANK3   BANK4
  4174 ;;      Params:         0       0       0       0       0       0
  4175 ;;      Locals:         0       0       0       0       0       0
  4176 ;;      Temps:          1       0       0       0       0       0
  4177 ;;      Totals:         1       0       0       0       0       0
  4178 ;;Total ram usage:        1 bytes
  4179 ;; Hardware stack levels used:    1
  4180 ;; Hardware stack levels required when called:    2
  4181 ;; This function calls:
  4182 ;;		_I2C1_BusCollisionISR
  4183 ;;		_I2C1_ISR
  4184 ;; This function is called by:
  4185 ;;		Interrupt level 1
  4186 ;; This function uses a non-reentrant model
  4187 ;;
  4188                           
  4189  0004                     _INTERRUPT_InterruptManager:	
  4190                           
  4191                           ;incstack = 0
  4192  0004  147E               	bsf	126,0	;set compiler interrupt flag (level 1)
  4193                           
  4194                           ; Regs used in _INTERRUPT_InterruptManager: [wreg-fsr1h+status,2+status,0+pclath+cstack]
  4195  0005  3180               	pagesel	$
  4196  0006  0020               	movlb	0	; select bank0
  4197  0007  087F               	movf	127,w
  4198  0008  00FD               	movwf	??_INTERRUPT_InterruptManager
  4199                           
  4200                           ;interrupt_manager.c: 54: if(INTCONbits.PEIE == 1 && PIE2bits.BCL1IE == 1 && PIR2bits.BC
      +                          L1IF == 1)
  4201  0009  1F0B               	btfss	11,6	;volatile
  4202  000A  2815               	goto	i1l75
  4203  000B  0021               	movlb	1	; select bank1
  4204  000C  1D92               	btfss	18,3	;volatile
  4205  000D  2815               	goto	i1l75
  4206  000E  0020               	movlb	0	; select bank0
  4207  000F  1D92               	btfss	18,3	;volatile
  4208  0010  2815               	goto	i1l75
  4209                           
  4210                           ;interrupt_manager.c: 55: {
  4211                           ;interrupt_manager.c: 56: I2C1_BusCollisionISR();
  4212  0011  3185  25BA  3180   	fcall	_I2C1_BusCollisionISR
  4213                           
  4214                           ;interrupt_manager.c: 57: }
  4215  0014  281F               	goto	i1l79
  4216  0015                     i1l75:	
  4217                           
  4218                           ;interrupt_manager.c: 58: else if(INTCONbits.PEIE == 1 && PIE1bits.SSP1IE == 1 && PIR1bi
      +                          ts.SSP1IF == 1)
  4219  0015  1F0B               	btfss	11,6	;volatile
  4220  0016  281F               	goto	i1l79
  4221  0017  0021               	movlb	1	; select bank1
  4222  0018  1D91               	btfss	17,3	;volatile
  4223  0019  281F               	goto	i1l79
  4224  001A  0020               	movlb	0	; select bank0
  4225  001B  1D91               	btfss	17,3	;volatile
  4226  001C  281F               	goto	i1l79
  4227                           
  4228                           ;interrupt_manager.c: 59: {
  4229                           ;interrupt_manager.c: 60: I2C1_ISR();
  4230  001D  3180  2038         	fcall	_I2C1_ISR
  4231  001F                     i1l79:	
  4232                           ;interrupt_manager.c: 62: else
  4233                           ;interrupt_manager.c: 63: {
  4234                           
  4235                           ;interrupt_manager.c: 61: }
  4236                           
  4237  001F  087D               	movf	??_INTERRUPT_InterruptManager,w
  4238  0020  0020               	movlb	0	; select bank0
  4239  0021  00FF               	movwf	127
  4240  0022  107E               	bcf	126,0	;clear compiler interrupt flag (level 1)
  4241  0023  0009               	retfie
  4242  0024                     __end_of_INTERRUPT_InterruptManager:	
  4243                           
  4244                           	psect	text25
  4245  0038                     __ptext25:	
  4246 ;; *************** function _I2C1_ISR *****************
  4247 ;; Defined at:
  4248 ;;		line 233 in file "mcc_generated_files/i2c1.c"
  4249 ;; Parameters:    Size  Location     Type
  4250 ;;		None
  4251 ;; Auto vars:     Size  Location     Type
  4252 ;;		None
  4253 ;; Return value:  Size  Location     Type
  4254 ;;                  1    wreg      void 
  4255 ;; Registers used:
  4256 ;;		wreg, fsr0l, fsr0h, fsr1l, fsr1h, status,2, status,0, pclath, cstack
  4257 ;; Tracked objects:
  4258 ;;		On entry : 0/0
  4259 ;;		On exit  : 0/0
  4260 ;;		Unchanged: 0/0
  4261 ;; Data sizes:     COMMON   BANK0   BANK1   BANK2   BANK3   BANK4
  4262 ;;      Params:         0       0       0       0       0       0
  4263 ;;      Locals:         0       0       0       0       0       0
  4264 ;;      Temps:          4       0       0       0       0       0
  4265 ;;      Totals:         4       0       0       0       0       0
  4266 ;;Total ram usage:        4 bytes
  4267 ;; Hardware stack levels used:    1
  4268 ;; Hardware stack levels required when called:    1
  4269 ;; This function calls:
  4270 ;;		_I2C1_FunctionComplete
  4271 ;;		_I2C1_Stop
  4272 ;; This function is called by:
  4273 ;;		_INTERRUPT_InterruptManager
  4274 ;; This function uses a non-reentrant model
  4275 ;;
  4276                           
  4277                           
  4278                           ;psect for function _I2C1_ISR
  4279  0038                     _I2C1_ISR:	
  4280                           
  4281                           ;i2c1.c: 236: static uint8_t *pi2c_buf_ptr;
  4282                           ;i2c1.c: 237: static uint16_t i2c_address = 0;
  4283                           ;i2c1.c: 238: static uint8_t i2c_bytes_left = 0;
  4284                           ;i2c1.c: 239: static uint8_t i2c_10bit_address_restart = 0;
  4285                           ;i2c1.c: 241: PIR1bits.SSP1IF = 0;
  4286                           
  4287                           ;incstack = 0
  4288                           ; Regs used in _I2C1_ISR: [wreg-fsr1h+status,2+status,0+pclath+cstack]
  4289  0038  0020               	movlb	0	; select bank0
  4290  0039  1191               	bcf	17,3	;volatile
  4291                           
  4292                           ;i2c1.c: 245: if(SSP1CON1bits.WCOL)
  4293  003A  0024               	movlb	4	; select bank4
  4294  003B  1F95               	btfss	21,7	;volatile
  4295  003C  2967               	goto	i1l1877
  4296                           
  4297                           ;i2c1.c: 246: {
  4298                           ;i2c1.c: 248: SSP1CON1bits.WCOL = 0;
  4299  003D  1395               	bcf	21,7	;volatile
  4300                           
  4301                           ;i2c1.c: 249: i2c1_state = S_MASTER_IDLE;
  4302  003E  0020               	movlb	0	; select bank0
  4303  003F  01D4               	clrf	_i2c1_state
  4304                           
  4305                           ;i2c1.c: 250: *(p_i2c1_current->pTrFlag) = I2C1_MESSAGE_FAIL;
  4306  0040  0872               	movf	_p_i2c1_current,w
  4307  0041  3E02               	addlw	2
  4308  0042  0086               	movwf	6
  4309  0043  0187               	clrf	7
  4310  0044  0801               	movf	1,w
  4311  0045  0086               	movwf	6
  4312  0046  0187               	clrf	7
  4313  0047  0181               	clrf	1
  4314  0048  0A81               	incf	1,f
  4315                           
  4316                           ;i2c1.c: 253: p_i2c1_current = (0);
  4317  0049  01F2               	clrf	_p_i2c1_current
  4318                           
  4319                           ;i2c1.c: 255: return;
  4320  004A  0008               	return
  4321  004B                     i1l139:	
  4322                           ;i2c1.c: 260: {
  4323                           ;i2c1.c: 261: case S_MASTER_IDLE:
  4324                           
  4325                           ;i2c1.c: 256: }
  4326                           ;i2c1.c: 259: switch(i2c1_state)
  4327                           
  4328                           
  4329                           ;i2c1.c: 263: if(i2c1_object.trStatus.s.empty != 1)
  4330  004B  18CD               	btfsc	_i2c1_object+2,1
  4331  004C  0008               	return
  4332                           
  4333                           ;i2c1.c: 264: {
  4334                           ;i2c1.c: 266: p_i2c1_current = i2c1_object.pTrHead;
  4335  004D  084C               	movf	low ((_i2c1_object| 0+1)),w
  4336  004E  00F9               	movwf	??_I2C1_ISR
  4337  004F  0879               	movf	??_I2C1_ISR,w
  4338  0050  00F2               	movwf	_p_i2c1_current
  4339                           
  4340                           ;i2c1.c: 267: i2c1_trb_count = i2c1_object.pTrHead->count;
  4341  0051  084C               	movf	low ((_i2c1_object| 0+1)),w
  4342  0052  0086               	movwf	6
  4343  0053  0187               	clrf	7
  4344  0054  0801               	movf	1,w
  4345  0055  00F9               	movwf	??_I2C1_ISR
  4346  0056  0879               	movf	??_I2C1_ISR,w
  4347  0057  00F4               	movwf	_i2c1_trb_count
  4348                           
  4349                           ;i2c1.c: 268: p_i2c1_trb_current = i2c1_object.pTrHead->ptrb_list;
  4350  0058  084C               	movf	low ((_i2c1_object| 0+1)),w
  4351  0059  0086               	movwf	6
  4352  005A  0187               	clrf	7
  4353  005B  3F41               	moviw [1]fsr1
  4354  005C  00F3               	movwf	_p_i2c1_trb_current
  4355                           
  4356                           ;i2c1.c: 270: i2c1_object.pTrHead++;
  4357  005D  3003               	movlw	3
  4358  005E  00F9               	movwf	??_I2C1_ISR
  4359  005F  0879               	movf	??_I2C1_ISR,w
  4360  0060  07CC               	addwf	low ((_i2c1_object| 0+1)),f
  4361                           
  4362                           ;i2c1.c: 273: if(i2c1_object.pTrHead == (i2c1_tr_queue + 1))
  4363  0061  084C               	movf	low ((_i2c1_object| 0+1)),w
  4364  0062  3A60               	xorlw	(low ((_i2c1_tr_queue| 0+3)))& (0+255)
  4365  0063  1D03               	skipz
  4366  0064  2869               	goto	i1l1765
  4367                           
  4368                           ;i2c1.c: 274: {
  4369                           ;i2c1.c: 276: i2c1_object.pTrHead = i2c1_tr_queue;
  4370  0065  305D               	movlw	(low (_i2c1_tr_queue| 0))& (0+255)
  4371  0066  00F9               	movwf	??_I2C1_ISR
  4372  0067  0879               	movf	??_I2C1_ISR,w
  4373  0068  00CC               	movwf	low ((_i2c1_object| 0+1))
  4374  0069                     i1l1765:	
  4375                           
  4376                           ;i2c1.c: 277: }
  4377                           ;i2c1.c: 281: i2c1_object.trStatus.s.full = 0;
  4378  0069  104D               	bcf	_i2c1_object+2,0
  4379                           
  4380                           ;i2c1.c: 284: if(i2c1_object.pTrHead == i2c1_object.pTrTail)
  4381  006A  084C               	movf	low ((_i2c1_object| 0+1)),w
  4382  006B  064B               	xorwf	_i2c1_object,w
  4383  006C  1903               	btfsc	3,2
  4384                           
  4385                           ;i2c1.c: 285: {
  4386                           ;i2c1.c: 287: i2c1_object.trStatus.s.empty = 1;
  4387  006D  14CD               	bsf	_i2c1_object+2,1
  4388                           
  4389                           ;i2c1.c: 288: }
  4390                           ;i2c1.c: 291: SSP1CON2bits.SEN = 1;
  4391  006E  0024               	movlb	4	; select bank4
  4392  006F  1416               	bsf	22,0	;volatile
  4393                           
  4394                           ;i2c1.c: 294: i2c1_state = S_MASTER_SEND_ADDR;
  4395  0070  3002               	movlw	2
  4396  0071  00F9               	movwf	??_I2C1_ISR
  4397  0072  0879               	movf	??_I2C1_ISR,w
  4398  0073  0020               	movlb	0	; select bank0
  4399  0074  00D4               	movwf	_i2c1_state
  4400                           
  4401                           ;i2c1.c: 295: }
  4402                           ;i2c1.c: 297: break;
  4403  0075  0008               	return
  4404  0076                     i1l144:	
  4405                           ;i2c1.c: 299: case S_MASTER_RESTART:
  4406                           
  4407                           
  4408                           ;i2c1.c: 304: SSP1CON2bits.RSEN = 1;
  4409  0076  0024               	movlb	4	; select bank4
  4410  0077  1496               	bsf	22,1	;volatile
  4411                           
  4412                           ;i2c1.c: 307: i2c1_state = S_MASTER_SEND_ADDR;
  4413  0078  3002               	movlw	2
  4414  0079  00F9               	movwf	??_I2C1_ISR
  4415  007A  0879               	movf	??_I2C1_ISR,w
  4416  007B  0020               	movlb	0	; select bank0
  4417  007C  00D4               	movwf	_i2c1_state
  4418                           
  4419                           ;i2c1.c: 309: break;
  4420  007D  0008               	return
  4421  007E                     i1l145:	
  4422                           ;i2c1.c: 311: case S_MASTER_SEND_ADDR_10BIT_LSB:
  4423                           
  4424                           
  4425                           ;i2c1.c: 313: if(SSP1CON2bits.ACKSTAT)
  4426  007E  0024               	movlb	4	; select bank4
  4427  007F  1F16               	btfss	22,6	;volatile
  4428  0080  288A               	goto	i1l1777
  4429                           
  4430                           ;i2c1.c: 314: {
  4431                           ;i2c1.c: 315: i2c1_object.i2cErrors++;
  4432  0081  3001               	movlw	1
  4433  0082  00F9               	movwf	??_I2C1_ISR
  4434  0083  0879               	movf	??_I2C1_ISR,w
  4435  0084  0020               	movlb	0	; select bank0
  4436  0085  07CF               	addwf	_i2c1_object+4,f
  4437                           
  4438                           ;i2c1.c: 316: I2C1_Stop(I2C1_MESSAGE_ADDRESS_NO_ACK);
  4439  0086  3004               	movlw	4
  4440  0087  3185  254E         	fcall	_I2C1_Stop
  4441                           
  4442                           ;i2c1.c: 317: }
  4443  0089  0008               	return
  4444  008A                     i1l1777:	
  4445                           
  4446                           ;i2c1.c: 318: else
  4447                           ;i2c1.c: 319: {
  4448                           ;i2c1.c: 321: SSP1BUF = (i2c_address >> 1) & 0x00FF;
  4449  008A  0876               	movf	I2C1_ISR@i2c_address+1,w
  4450  008B  00FA               	movwf	??_I2C1_ISR+1
  4451  008C  0875               	movf	I2C1_ISR@i2c_address,w
  4452  008D  00F9               	movwf	??_I2C1_ISR
  4453  008E  36FA               	lsrf	??_I2C1_ISR+1,f
  4454  008F  0CF9               	rrf	??_I2C1_ISR,f
  4455  0090  0879               	movf	??_I2C1_ISR,w
  4456  0091  0024               	movlb	4	; select bank4
  4457  0092  0091               	movwf	17	;volatile
  4458                           
  4459                           ;i2c1.c: 324: if(i2c_address & 0x01)
  4460  0093  1C75               	btfss	I2C1_ISR@i2c_address,0
  4461  0094  289B               	goto	i1l1783
  4462                           
  4463                           ;i2c1.c: 325: {
  4464                           ;i2c1.c: 328: i2c1_state = S_MASTER_10BIT_RESTART;
  4465  0095  300B               	movlw	11
  4466  0096  00F9               	movwf	??_I2C1_ISR
  4467  0097  0879               	movf	??_I2C1_ISR,w
  4468  0098  0020               	movlb	0	; select bank0
  4469  0099  00D4               	movwf	_i2c1_state
  4470                           
  4471                           ;i2c1.c: 329: }
  4472  009A  0008               	return
  4473  009B                     i1l1783:	
  4474                           
  4475                           ;i2c1.c: 330: else
  4476                           ;i2c1.c: 331: {
  4477                           ;i2c1.c: 333: i2c1_state = S_MASTER_SEND_DATA;
  4478  009B  3003               	movlw	3
  4479  009C  00F9               	movwf	??_I2C1_ISR
  4480  009D  0879               	movf	??_I2C1_ISR,w
  4481  009E  0020               	movlb	0	; select bank0
  4482  009F  00D4               	movwf	_i2c1_state
  4483                           
  4484                           ;i2c1.c: 334: }
  4485                           ;i2c1.c: 335: }
  4486                           ;i2c1.c: 337: break;
  4487  00A0  0008               	return
  4488  00A1                     i1l150:	
  4489                           ;i2c1.c: 339: case S_MASTER_10BIT_RESTART:
  4490                           
  4491                           
  4492                           ;i2c1.c: 341: if(SSP1CON2bits.ACKSTAT)
  4493  00A1  0024               	movlb	4	; select bank4
  4494  00A2  1F16               	btfss	22,6	;volatile
  4495  00A3  28AD               	goto	i1l151
  4496                           
  4497                           ;i2c1.c: 342: {
  4498                           ;i2c1.c: 343: i2c1_object.i2cErrors++;
  4499  00A4  3001               	movlw	1
  4500  00A5  00F9               	movwf	??_I2C1_ISR
  4501  00A6  0879               	movf	??_I2C1_ISR,w
  4502  00A7  0020               	movlb	0	; select bank0
  4503  00A8  07CF               	addwf	_i2c1_object+4,f
  4504                           
  4505                           ;i2c1.c: 344: I2C1_Stop(I2C1_MESSAGE_ADDRESS_NO_ACK);
  4506  00A9  3004               	movlw	4
  4507  00AA  3185  254E         	fcall	_I2C1_Stop
  4508                           
  4509                           ;i2c1.c: 345: }
  4510  00AC  0008               	return
  4511  00AD                     i1l151:	
  4512                           
  4513                           ;i2c1.c: 346: else
  4514                           ;i2c1.c: 347: {
  4515                           ;i2c1.c: 350: SSP1CON2bits.RSEN = 1;
  4516  00AD  1496               	bsf	22,1	;volatile
  4517                           
  4518                           ;i2c1.c: 354: i2c_address = 0x00F0 | ((i2c_address >> 8) & 0x0006);
  4519  00AE  0876               	movf	I2C1_ISR@i2c_address+1,w
  4520  00AF  00FA               	movwf	??_I2C1_ISR+1
  4521  00B0  0875               	movf	I2C1_ISR@i2c_address,w
  4522  00B1  00F9               	movwf	??_I2C1_ISR
  4523  00B2  087A               	movf	??_I2C1_ISR+1,w
  4524  00B3  00F9               	movwf	??_I2C1_ISR
  4525  00B4  01FA               	clrf	??_I2C1_ISR+1
  4526  00B5  3006               	movlw	6
  4527  00B6  0579               	andwf	??_I2C1_ISR,w
  4528  00B7  00FB               	movwf	??_I2C1_ISR+2
  4529  00B8  3000               	movlw	0
  4530  00B9  057A               	andwf	??_I2C1_ISR+1,w
  4531  00BA  00FC               	movwf	??_I2C1_ISR+3
  4532  00BB  30F0               	movlw	240
  4533  00BC  047B               	iorwf	??_I2C1_ISR+2,w
  4534  00BD  00F5               	movwf	I2C1_ISR@i2c_address
  4535  00BE  3000               	movlw	0
  4536  00BF  047C               	iorwf	??_I2C1_ISR+3,w
  4537  00C0  00F6               	movwf	I2C1_ISR@i2c_address+1
  4538                           
  4539                           ;i2c1.c: 357: i2c_address |= 0x0001;
  4540  00C1  1475               	bsf	I2C1_ISR@i2c_address,0
  4541                           
  4542                           ;i2c1.c: 360: i2c_10bit_address_restart = 1;
  4543  00C2  0020               	movlb	0	; select bank0
  4544  00C3  01D3               	clrf	I2C1_ISR@i2c_10bit_address_restart
  4545  00C4  0AD3               	incf	I2C1_ISR@i2c_10bit_address_restart,f
  4546                           
  4547                           ;i2c1.c: 363: i2c1_state = S_MASTER_SEND_ADDR;
  4548  00C5  3002               	movlw	2
  4549  00C6  00F9               	movwf	??_I2C1_ISR
  4550  00C7  0879               	movf	??_I2C1_ISR,w
  4551  00C8  00D4               	movwf	_i2c1_state
  4552                           
  4553                           ;i2c1.c: 364: }
  4554                           ;i2c1.c: 366: break;
  4555  00C9  0008               	return
  4556  00CA                     i1l1797:	
  4557                           ;i2c1.c: 368: case S_MASTER_SEND_ADDR:
  4558                           
  4559                           
  4560                           ;i2c1.c: 381: if(i2c_10bit_address_restart != 1)
  4561  00CA  0353               	decf	I2C1_ISR@i2c_10bit_address_restart,w
  4562  00CB  1903               	btfsc	3,2
  4563  00CC  28DE               	goto	i1l1817
  4564                           
  4565                           ;i2c1.c: 382: {
  4566                           ;i2c1.c: 384: i2c_address = p_i2c1_trb_current->address;
  4567  00CD  0873               	movf	_p_i2c1_trb_current,w
  4568  00CE  0086               	movwf	6
  4569  00CF  0187               	clrf	7
  4570  00D0  3F40               	moviw [0]fsr1
  4571  00D1  00F5               	movwf	I2C1_ISR@i2c_address
  4572  00D2  3F41               	moviw [1]fsr1
  4573  00D3  00F6               	movwf	I2C1_ISR@i2c_address+1
  4574                           
  4575                           ;i2c1.c: 385: pi2c_buf_ptr = p_i2c1_trb_current->pbuffer;
  4576  00D4  0873               	movf	_p_i2c1_trb_current,w
  4577  00D5  0086               	movwf	6
  4578  00D6  0187               	clrf	7
  4579  00D7  3F43               	moviw [3]fsr1
  4580  00D8  00F1               	movwf	I2C1_ISR@pi2c_buf_ptr
  4581                           
  4582                           ;i2c1.c: 386: i2c_bytes_left = p_i2c1_trb_current->length;
  4583  00D9  0873               	movf	_p_i2c1_trb_current,w
  4584  00DA  0086               	movwf	6
  4585  00DB  0187               	clrf	7
  4586  00DC  3F42               	moviw [2]fsr1
  4587  00DD  00F0               	movwf	I2C1_ISR@i2c_bytes_left
  4588  00DE                     i1l1817:	
  4589                           ;i2c1.c: 407: }
  4590                           ;i2c1.c: 408: }
  4591                           
  4592                           ;i2c1.c: 406: i2c_10bit_address_restart = 0;
  4593                           
  4594                           ;i2c1.c: 404: i2c1_state = S_MASTER_ACK_ADDR;
  4595                           
  4596                           ;i2c1.c: 400: else
  4597                           ;i2c1.c: 401: {
  4598                           ;i2c1.c: 403: SSP1BUF = i2c_address;
  4599                           
  4600                           ;i2c1.c: 399: }
  4601                           
  4602                           ;i2c1.c: 398: i2c1_state = S_MASTER_SEND_ADDR_10BIT_LSB;
  4603                           
  4604                           ;i2c1.c: 393: {
  4605                           ;i2c1.c: 397: SSP1BUF = 0xF0 | ((i2c_address >> 8) & 0x0006);
  4606                           
  4607                           ;i2c1.c: 391: {
  4608                           ;i2c1.c: 392: if (0 == i2c_10bit_address_restart)
  4609                           
  4610                           ;i2c1.c: 387: }
  4611                           ;i2c1.c: 390: if(!1 && (0x0 != i2c_address))
  4612                           
  4613                           
  4614                           ;i2c1.c: 409: else
  4615                           ;i2c1.c: 410: {
  4616                           ;i2c1.c: 412: SSP1BUF = i2c_address;
  4617  00DE  0875               	movf	I2C1_ISR@i2c_address,w
  4618  00DF  0024               	movlb	4	; select bank4
  4619  00E0  0091               	movwf	17	;volatile
  4620                           
  4621                           ;i2c1.c: 413: if(i2c_address & 0x01)
  4622  00E1  1C75               	btfss	I2C1_ISR@i2c_address,0
  4623  00E2  28E9               	goto	i1l1823
  4624                           
  4625                           ;i2c1.c: 414: {
  4626                           ;i2c1.c: 416: i2c1_state = S_MASTER_ACK_ADDR;
  4627  00E3  3005               	movlw	5
  4628  00E4  00F9               	movwf	??_I2C1_ISR
  4629  00E5  0879               	movf	??_I2C1_ISR,w
  4630  00E6  0020               	movlb	0	; select bank0
  4631  00E7  00D4               	movwf	_i2c1_state
  4632                           
  4633                           ;i2c1.c: 417: }
  4634  00E8  0008               	return
  4635  00E9                     i1l1823:	
  4636                           
  4637                           ;i2c1.c: 418: else
  4638                           ;i2c1.c: 419: {
  4639                           ;i2c1.c: 421: i2c1_state = S_MASTER_SEND_DATA;
  4640  00E9  3003               	movlw	3
  4641  00EA  00F9               	movwf	??_I2C1_ISR
  4642  00EB  0879               	movf	??_I2C1_ISR,w
  4643  00EC  0020               	movlb	0	; select bank0
  4644  00ED  00D4               	movwf	_i2c1_state
  4645                           
  4646                           ;i2c1.c: 422: }
  4647                           ;i2c1.c: 423: }
  4648                           ;i2c1.c: 424: break;
  4649  00EE  0008               	return
  4650  00EF                     i1l161:	
  4651                           ;i2c1.c: 426: case S_MASTER_SEND_DATA:
  4652                           
  4653                           
  4654                           ;i2c1.c: 429: if(SSP1CON2bits.ACKSTAT)
  4655  00EF  0024               	movlb	4	; select bank4
  4656  00F0  1F16               	btfss	22,6	;volatile
  4657  00F1  28FD               	goto	i1l1831
  4658                           
  4659                           ;i2c1.c: 430: {
  4660                           ;i2c1.c: 432: i2c1_object.i2cErrors++;
  4661  00F2  3001               	movlw	1
  4662  00F3  00F9               	movwf	??_I2C1_ISR
  4663  00F4  0879               	movf	??_I2C1_ISR,w
  4664  00F5  0020               	movlb	0	; select bank0
  4665  00F6  07CF               	addwf	_i2c1_object+4,f
  4666                           
  4667                           ;i2c1.c: 435: SSP1CON2bits.ACKSTAT = 0;
  4668  00F7  0024               	movlb	4	; select bank4
  4669  00F8  1316               	bcf	22,6	;volatile
  4670                           
  4671                           ;i2c1.c: 438: I2C1_Stop(I2C1_DATA_NO_ACK);
  4672  00F9  3005               	movlw	5
  4673  00FA  3185  254E         	fcall	_I2C1_Stop
  4674                           
  4675                           ;i2c1.c: 440: }
  4676  00FC  0008               	return
  4677  00FD                     i1l1831:	
  4678                           
  4679                           ;i2c1.c: 441: else
  4680                           ;i2c1.c: 442: {
  4681                           ;i2c1.c: 444: if(i2c_bytes_left-- == 0U)
  4682  00FD  3001               	movlw	1
  4683  00FE  02F0               	subwf	I2C1_ISR@i2c_bytes_left,f
  4684  00FF  0A70               	incf	I2C1_ISR@i2c_bytes_left,w
  4685  0100  1D03               	btfss	3,2
  4686  0101  2916               	goto	i1l1839
  4687                           
  4688                           ;i2c1.c: 445: {
  4689                           ;i2c1.c: 449: p_i2c1_trb_current++;
  4690  0102  3004               	movlw	4
  4691  0103  00F9               	movwf	??_I2C1_ISR
  4692  0104  0879               	movf	??_I2C1_ISR,w
  4693  0105  07F3               	addwf	_p_i2c1_trb_current,f
  4694                           
  4695                           ;i2c1.c: 452: if(--i2c1_trb_count == 0)
  4696  0106  3001               	movlw	1
  4697  0107  02F4               	subwf	_i2c1_trb_count,f
  4698  0108  1D03               	btfss	3,2
  4699  0109  290E               	goto	i1l165
  4700                           
  4701                           ;i2c1.c: 453: {
  4702                           ;i2c1.c: 454: I2C1_Stop(I2C1_MESSAGE_COMPLETE);
  4703  010A  3000               	movlw	0
  4704  010B  3185  254E         	fcall	_I2C1_Stop
  4705                           
  4706                           ;i2c1.c: 455: }
  4707  010D  0008               	return
  4708  010E                     i1l165:	
  4709                           
  4710                           ;i2c1.c: 456: else
  4711                           ;i2c1.c: 457: {
  4712                           ;i2c1.c: 464: SSP1CON2bits.RSEN = 1;
  4713  010E  0024               	movlb	4	; select bank4
  4714  010F  1496               	bsf	22,1	;volatile
  4715                           
  4716                           ;i2c1.c: 467: i2c1_state = S_MASTER_SEND_ADDR;
  4717  0110  3002               	movlw	2
  4718  0111  00F9               	movwf	??_I2C1_ISR
  4719  0112  0879               	movf	??_I2C1_ISR,w
  4720  0113  0020               	movlb	0	; select bank0
  4721  0114  00D4               	movwf	_i2c1_state
  4722                           
  4723                           ;i2c1.c: 469: }
  4724                           ;i2c1.c: 470: }
  4725  0115  0008               	return
  4726  0116                     i1l1839:	
  4727                           
  4728                           ;i2c1.c: 471: else
  4729                           ;i2c1.c: 472: {
  4730                           ;i2c1.c: 474: SSP1BUF = *pi2c_buf_ptr++;
  4731  0116  0871               	movf	I2C1_ISR@pi2c_buf_ptr,w
  4732  0117  0086               	movwf	6
  4733  0118  0187               	clrf	7
  4734  0119  0801               	movf	1,w
  4735  011A  0024               	movlb	4	; select bank4
  4736  011B  0091               	movwf	17	;volatile
  4737  011C  3001               	movlw	1
  4738  011D  00F9               	movwf	??_I2C1_ISR
  4739  011E  0879               	movf	??_I2C1_ISR,w
  4740  011F  07F1               	addwf	I2C1_ISR@pi2c_buf_ptr,f
  4741                           
  4742                           ;i2c1.c: 475: }
  4743                           ;i2c1.c: 476: }
  4744                           ;i2c1.c: 477: break;
  4745  0120  0008               	return
  4746  0121                     i1l168:	
  4747                           ;i2c1.c: 479: case S_MASTER_ACK_ADDR:
  4748                           
  4749                           
  4750                           ;i2c1.c: 482: if(SSP1CON2bits.ACKSTAT)
  4751  0121  0024               	movlb	4	; select bank4
  4752  0122  1F16               	btfss	22,6	;volatile
  4753  0123  292F               	goto	i1l169
  4754                           
  4755                           ;i2c1.c: 483: {
  4756                           ;i2c1.c: 486: i2c1_object.i2cErrors++;
  4757  0124  3001               	movlw	1
  4758  0125  00F9               	movwf	??_I2C1_ISR
  4759  0126  0879               	movf	??_I2C1_ISR,w
  4760  0127  0020               	movlb	0	; select bank0
  4761  0128  07CF               	addwf	_i2c1_object+4,f
  4762                           
  4763                           ;i2c1.c: 489: I2C1_Stop(I2C1_MESSAGE_ADDRESS_NO_ACK);
  4764  0129  3004               	movlw	4
  4765  012A  3185  254E         	fcall	_I2C1_Stop
  4766                           
  4767                           ;i2c1.c: 492: SSP1CON2bits.ACKSTAT = 0;
  4768  012C  0024               	movlb	4	; select bank4
  4769  012D  1316               	bcf	22,6	;volatile
  4770                           
  4771                           ;i2c1.c: 493: }
  4772  012E  0008               	return
  4773  012F                     i1l169:	
  4774                           
  4775                           ;i2c1.c: 494: else
  4776                           ;i2c1.c: 495: {
  4777                           ;i2c1.c: 496: SSP1CON2bits.RCEN = 1;
  4778  012F  1596               	bsf	22,3	;volatile
  4779                           
  4780                           ;i2c1.c: 497: i2c1_state = S_MASTER_ACK_RCV_DATA;
  4781  0130  3008               	movlw	8
  4782  0131  00F9               	movwf	??_I2C1_ISR
  4783  0132  0879               	movf	??_I2C1_ISR,w
  4784  0133  0020               	movlb	0	; select bank0
  4785  0134  00D4               	movwf	_i2c1_state
  4786                           
  4787                           ;i2c1.c: 498: }
  4788                           ;i2c1.c: 499: break;
  4789  0135  0008               	return
  4790  0136                     i1l1851:	
  4791                           ;i2c1.c: 501: case S_MASTER_RCV_DATA:
  4792                           
  4793                           
  4794                           ;i2c1.c: 506: i2c1_state = S_MASTER_ACK_RCV_DATA;
  4795  0136  3008               	movlw	8
  4796  0137  00F9               	movwf	??_I2C1_ISR
  4797  0138  0879               	movf	??_I2C1_ISR,w
  4798  0139  00D4               	movwf	_i2c1_state
  4799                           
  4800                           ;i2c1.c: 509: SSP1CON2bits.RCEN = 1;
  4801  013A  0024               	movlb	4	; select bank4
  4802  013B  1596               	bsf	22,3	;volatile
  4803                           
  4804                           ;i2c1.c: 511: break;
  4805  013C  0008               	return
  4806  013D                     i1l1855:	
  4807                           ;i2c1.c: 513: case S_MASTER_ACK_RCV_DATA:
  4808                           
  4809                           
  4810                           ;i2c1.c: 516: *pi2c_buf_ptr++ = SSP1BUF;
  4811  013D  0024               	movlb	4	; select bank4
  4812  013E  0811               	movf	17,w	;volatile
  4813  013F  00F9               	movwf	??_I2C1_ISR
  4814  0140  0871               	movf	I2C1_ISR@pi2c_buf_ptr,w
  4815  0141  0086               	movwf	6
  4816  0142  0187               	clrf	7
  4817  0143  0879               	movf	??_I2C1_ISR,w
  4818  0144  0081               	movwf	1
  4819  0145  3001               	movlw	1
  4820  0146  00F9               	movwf	??_I2C1_ISR
  4821  0147  0879               	movf	??_I2C1_ISR,w
  4822  0148  07F1               	addwf	I2C1_ISR@pi2c_buf_ptr,f
  4823                           
  4824                           ;i2c1.c: 519: if(--i2c_bytes_left)
  4825  0149  3001               	movlw	1
  4826  014A  02F0               	subwf	I2C1_ISR@i2c_bytes_left,f
  4827  014B  1903               	btfsc	3,2
  4828  014C  2954               	goto	i1l173
  4829                           
  4830                           ;i2c1.c: 520: {
  4831                           ;i2c1.c: 526: SSP1CON2bits.ACKDT = 0;
  4832  014D  1296               	bcf	22,5	;volatile
  4833                           
  4834                           ;i2c1.c: 529: i2c1_state = S_MASTER_RCV_DATA;
  4835  014E  3006               	movlw	6
  4836  014F  00F9               	movwf	??_I2C1_ISR
  4837  0150  0879               	movf	??_I2C1_ISR,w
  4838  0151  0020               	movlb	0	; select bank0
  4839  0152  00D4               	movwf	_i2c1_state
  4840                           
  4841                           ;i2c1.c: 530: }
  4842  0153  2957               	goto	i1l1867
  4843  0154                     i1l173:	
  4844                           
  4845                           ;i2c1.c: 531: else
  4846                           ;i2c1.c: 532: {
  4847                           ;i2c1.c: 536: SSP1CON2bits.ACKDT = 1;
  4848  0154  1696               	bsf	22,5	;volatile
  4849                           
  4850                           ;i2c1.c: 538: I2C1_FunctionComplete();
  4851  0155  3185  2566         	fcall	_I2C1_FunctionComplete
  4852  0157                     i1l1867:	
  4853                           
  4854                           ;i2c1.c: 539: }
  4855                           ;i2c1.c: 542: SSP1CON2bits.ACKEN = 1;
  4856  0157  0024               	movlb	4	; select bank4
  4857  0158  1616               	bsf	22,4	;volatile
  4858                           
  4859                           ;i2c1.c: 543: break;
  4860  0159  0008               	return
  4861  015A                     i1l1869:	
  4862                           ;i2c1.c: 545: case S_MASTER_RCV_STOP:
  4863                           
  4864                           
  4865                           ;i2c1.c: 546: case S_MASTER_SEND_STOP:
  4866                           ;i2c1.c: 549: I2C1_Stop(I2C1_MESSAGE_COMPLETE);
  4867  015A  3000               	movlw	0
  4868  015B  3185  254E         	fcall	_I2C1_Stop
  4869                           
  4870                           ;i2c1.c: 550: break;
  4871  015D  0008               	return
  4872  015E                     i1l1871:	
  4873                           ;i2c1.c: 552: default:
  4874                           
  4875                           
  4876                           ;i2c1.c: 556: i2c1_object.i2cErrors++;
  4877  015E  3001               	movlw	1
  4878  015F  00F9               	movwf	??_I2C1_ISR
  4879  0160  0879               	movf	??_I2C1_ISR,w
  4880  0161  0020               	movlb	0	; select bank0
  4881  0162  07CF               	addwf	_i2c1_object+4,f
  4882                           
  4883                           ;i2c1.c: 557: I2C1_Stop(I2C1_LOST_STATE);
  4884  0163  3006               	movlw	6
  4885  0164  3185  254E         	fcall	_I2C1_Stop
  4886                           
  4887                           ;i2c1.c: 560: }
  4888                           
  4889                           ;i2c1.c: 558: break;
  4890  0166  0008               	return
  4891  0167                     i1l1877:	
  4892  0167  0020               	movlb	0	; select bank0
  4893  0168  0854               	movf	_i2c1_state,w
  4894                           
  4895                           ; Switch size 1, requested type "space"
  4896                           ; Number of cases is 11, Range of values is 0 to 11
  4897                           ; switch strategies available:
  4898                           ; Name         Instructions Cycles
  4899                           ; direct_byte           30     6 (fixed)
  4900                           ; simple_byte           34    18 (average)
  4901                           ; jumptable            260     6 (fixed)
  4902                           ;	Chosen strategy is direct_byte
  4903  0169  0084               	movwf	4
  4904  016A  300C               	movlw	12
  4905  016B  0204               	subwf	4,w
  4906  016C  1803               	skipnc
  4907  016D  295E               	goto	i1l1871
  4908  016E  3185               	movlp	high i1S2387
  4909  016F  3504               	lslf	4,w
  4910  0170  3E36               	addlw	low i1S2387
  4911  0171  0082               	movwf	2
  4912  0172  0008               	return
  4913  0173                     __end_of_I2C1_ISR:	
  4914                           
  4915                           	psect	swtext1
  4916  0536                     __pswtext1:	
  4917  0536                     i1S2387:	
  4918  0536  3180  284B         	ljmp	i1l139
  4919  0538  3180  2876         	ljmp	i1l144
  4920  053A  3180  28CA         	ljmp	i1l1797
  4921  053C  3180  28EF         	ljmp	i1l161
  4922  053E  3181  295A         	ljmp	i1l1869
  4923  0540  3181  2921         	ljmp	i1l168
  4924  0542  3181  2936         	ljmp	i1l1851
  4925  0544  3181  295A         	ljmp	i1l1869
  4926  0546  3181  293D         	ljmp	i1l1855
  4927  0548  3181  295E         	ljmp	i1l1871
  4928  054A  3180  287E         	ljmp	i1l145
  4929  054C  3180  28A1         	ljmp	i1l150
  4930                           
  4931                           	psect	text26
  4932  054E                     __ptext26:	
  4933 ;; *************** function _I2C1_Stop *****************
  4934 ;; Defined at:
  4935 ;;		line 581 in file "mcc_generated_files/i2c1.c"
  4936 ;; Parameters:    Size  Location     Type
  4937 ;;  completion_c    1    wreg     enum E2799
  4938 ;; Auto vars:     Size  Location     Type
  4939 ;;  completion_c    1    1[COMMON] enum E2799
  4940 ;; Return value:  Size  Location     Type
  4941 ;;                  1    wreg      void 
  4942 ;; Registers used:
  4943 ;;		wreg, fsr1l, fsr1h, status,2, status,0
  4944 ;; Tracked objects:
  4945 ;;		On entry : 0/0
  4946 ;;		On exit  : 0/0
  4947 ;;		Unchanged: 0/0
  4948 ;; Data sizes:     COMMON   BANK0   BANK1   BANK2   BANK3   BANK4
  4949 ;;      Params:         0       0       0       0       0       0
  4950 ;;      Locals:         1       0       0       0       0       0
  4951 ;;      Temps:          1       0       0       0       0       0
  4952 ;;      Totals:         2       0       0       0       0       0
  4953 ;;Total ram usage:        2 bytes
  4954 ;; Hardware stack levels used:    1
  4955 ;; This function calls:
  4956 ;;		Nothing
  4957 ;; This function is called by:
  4958 ;;		_I2C1_ISR
  4959 ;; This function uses a non-reentrant model
  4960 ;;
  4961                           
  4962                           
  4963                           ;psect for function _I2C1_Stop
  4964  054E                     _I2C1_Stop:	
  4965                           
  4966                           ;incstack = 0
  4967                           ; Regs used in _I2C1_Stop: [wreg+fsr1l+fsr1h+status,2+status,0]
  4968                           ;I2C1_Stop@completion_code stored from wreg
  4969  054E  00F8               	movwf	I2C1_Stop@completion_code
  4970                           
  4971                           ;i2c1.c: 584: SSP1CON2bits.PEN = 1;
  4972  054F  0024               	movlb	4	; select bank4
  4973  0550  1516               	bsf	22,2	;volatile
  4974                           
  4975                           ;i2c1.c: 587: if (p_i2c1_current->pTrFlag != (0))
  4976  0551  0872               	movf	_p_i2c1_current,w
  4977  0552  3E02               	addlw	2
  4978  0553  0086               	movwf	6
  4979  0554  0187               	clrf	7
  4980  0555  0801               	movf	1,w
  4981  0556  1903               	btfsc	3,2
  4982  0557  2D63               	goto	i1l1659
  4983                           
  4984                           ;i2c1.c: 588: {
  4985                           ;i2c1.c: 590: *(p_i2c1_current->pTrFlag) = completion_code;
  4986  0558  0878               	movf	I2C1_Stop@completion_code,w
  4987  0559  00F7               	movwf	??_I2C1_Stop
  4988  055A  0872               	movf	_p_i2c1_current,w
  4989  055B  3E02               	addlw	2
  4990  055C  0086               	movwf	6
  4991  055D  0187               	clrf	7
  4992  055E  0801               	movf	1,w
  4993  055F  0086               	movwf	6
  4994  0560  0187               	clrf	7
  4995  0561  0877               	movf	??_I2C1_Stop,w
  4996  0562  0081               	movwf	1
  4997  0563                     i1l1659:	
  4998                           
  4999                           ;i2c1.c: 591: }
  5000                           ;i2c1.c: 594: i2c1_state = S_MASTER_IDLE;
  5001  0563  0020               	movlb	0	; select bank0
  5002  0564  01D4               	clrf	_i2c1_state
  5003  0565  0008               	return
  5004  0566                     __end_of_I2C1_Stop:	
  5005                           
  5006                           	psect	text27
  5007  0566                     __ptext27:	
  5008 ;; *************** function _I2C1_FunctionComplete *****************
  5009 ;; Defined at:
  5010 ;;		line 563 in file "mcc_generated_files/i2c1.c"
  5011 ;; Parameters:    Size  Location     Type
  5012 ;;		None
  5013 ;; Auto vars:     Size  Location     Type
  5014 ;;		None
  5015 ;; Return value:  Size  Location     Type
  5016 ;;                  1    wreg      void 
  5017 ;; Registers used:
  5018 ;;		wreg, status,2, status,0
  5019 ;; Tracked objects:
  5020 ;;		On entry : 0/0
  5021 ;;		On exit  : 0/0
  5022 ;;		Unchanged: 0/0
  5023 ;; Data sizes:     COMMON   BANK0   BANK1   BANK2   BANK3   BANK4
  5024 ;;      Params:         0       0       0       0       0       0
  5025 ;;      Locals:         0       0       0       0       0       0
  5026 ;;      Temps:          1       0       0       0       0       0
  5027 ;;      Totals:         1       0       0       0       0       0
  5028 ;;Total ram usage:        1 bytes
  5029 ;; Hardware stack levels used:    1
  5030 ;; This function calls:
  5031 ;;		Nothing
  5032 ;; This function is called by:
  5033 ;;		_I2C1_ISR
  5034 ;; This function uses a non-reentrant model
  5035 ;;
  5036                           
  5037                           
  5038                           ;psect for function _I2C1_FunctionComplete
  5039  0566                     _I2C1_FunctionComplete:	
  5040                           
  5041                           ;i2c1.c: 567: p_i2c1_trb_current++;
  5042                           
  5043                           ;incstack = 0
  5044                           ; Regs used in _I2C1_FunctionComplete: [wreg+status,2+status,0]
  5045  0566  3004               	movlw	4
  5046  0567  00F7               	movwf	??_I2C1_FunctionComplete
  5047  0568  0877               	movf	??_I2C1_FunctionComplete,w
  5048  0569  07F3               	addwf	_p_i2c1_trb_current,f
  5049                           
  5050                           ;i2c1.c: 570: if(--i2c1_trb_count == 0)
  5051  056A  3001               	movlw	1
  5052  056B  02F4               	subwf	_i2c1_trb_count,f
  5053  056C  1D03               	btfss	3,2
  5054  056D  2D74               	goto	i1l180
  5055                           
  5056                           ;i2c1.c: 571: {
  5057                           ;i2c1.c: 572: i2c1_state = S_MASTER_SEND_STOP;
  5058  056E  3004               	movlw	4
  5059  056F  00F7               	movwf	??_I2C1_FunctionComplete
  5060  0570  0877               	movf	??_I2C1_FunctionComplete,w
  5061  0571  0020               	movlb	0	; select bank0
  5062  0572  00D4               	movwf	_i2c1_state
  5063                           
  5064                           ;i2c1.c: 573: }
  5065  0573  0008               	return
  5066  0574                     i1l180:	
  5067                           
  5068                           ;i2c1.c: 574: else
  5069                           ;i2c1.c: 575: {
  5070                           ;i2c1.c: 576: i2c1_state = S_MASTER_RESTART;
  5071  0574  0020               	movlb	0	; select bank0
  5072  0575  01D4               	clrf	_i2c1_state
  5073  0576  0AD4               	incf	_i2c1_state,f
  5074  0577  0008               	return
  5075  0578                     __end_of_I2C1_FunctionComplete:	
  5076                           
  5077                           	psect	text28
  5078  05BA                     __ptext28:	
  5079 ;; *************** function _I2C1_BusCollisionISR *****************
  5080 ;; Defined at:
  5081 ;;		line 728 in file "mcc_generated_files/i2c1.c"
  5082 ;; Parameters:    Size  Location     Type
  5083 ;;		None
  5084 ;; Auto vars:     Size  Location     Type
  5085 ;;		None
  5086 ;; Return value:  Size  Location     Type
  5087 ;;                  1    wreg      void 
  5088 ;; Registers used:
  5089 ;;		None
  5090 ;; Tracked objects:
  5091 ;;		On entry : 0/0
  5092 ;;		On exit  : 0/0
  5093 ;;		Unchanged: 0/0
  5094 ;; Data sizes:     COMMON   BANK0   BANK1   BANK2   BANK3   BANK4
  5095 ;;      Params:         0       0       0       0       0       0
  5096 ;;      Locals:         0       0       0       0       0       0
  5097 ;;      Temps:          0       0       0       0       0       0
  5098 ;;      Totals:         0       0       0       0       0       0
  5099 ;;Total ram usage:        0 bytes
  5100 ;; Hardware stack levels used:    1
  5101 ;; This function calls:
  5102 ;;		Nothing
  5103 ;; This function is called by:
  5104 ;;		_INTERRUPT_InterruptManager
  5105 ;; This function uses a non-reentrant model
  5106 ;;
  5107                           
  5108                           
  5109                           ;psect for function _I2C1_BusCollisionISR
  5110  05BA                     _I2C1_BusCollisionISR:	
  5111                           
  5112                           ;incstack = 0
  5113                           ; Regs used in _I2C1_BusCollisionISR: []
  5114  05BA  0008               	return
  5115  05BB                     __end_of_I2C1_BusCollisionISR:	
  5116  007E                     btemp	set	126	;btemp
  5117  007E                     int$flags	set	126
  5118  007E                     wtemp0	set	126


Data Sizes:
    Strings     27
    Constant    10
    Data        0
    BSS         29
    Persistent  0
    Stack       0

Auto Spaces:
    Space          Size  Autos    Used
    COMMON           14      7      14
    BANK0            80     43      65
    BANK1            80      0       0
    BANK2            80      0       0
    BANK3            80      0       0
    BANK4            48      0       0

Pointer List with Targets:

    i2c1_tr_queue.ptrb_list.pbuffer	PTR unsigned char  size(1) Largest target is 3
		 -> pcf8574_yaz_wEnable@status(BANK0[1]), pcf8574_yaz_wEnable@writeBuffer(BANK0[3]), pcf8574_yaz@status(BANK0[1]), pcf8574_yaz@writeBuffer(BANK0[1]), 

    i2c1_tr_queue.pTrFlag	PTR enum E2799 size(1) Largest target is 3
		 -> pcf8574_yaz_wEnable@status(BANK0[1]), pcf8574_yaz_wEnable@writeBuffer(BANK0[3]), pcf8574_yaz@status(BANK0[1]), pcf8574_yaz@writeBuffer(BANK0[1]), 

    i2c1_tr_queue.ptrb_list	PTR struct . size(1) Largest target is 5
		 -> I2C1_MasterRead@trBlock(BANK0[4]), I2C1_MasterWrite@trBlock(BANK0[4]), 

    printf@f	PTR const unsigned char  size(2) Largest target is 3
		 -> STR_3(CODE[3]), 

    printf@ap	PTR void [1] size(1) Largest target is 2
		 -> ?_printf(BANK0[2]), 

    lcd_mesajyaz@mesaj	PTR const unsigned char  size(2) Largest target is 17
		 -> STR_2(CODE[7]), STR_1(CODE[17]), 

    I2C1_MasterWriteTRBBuild@pdata	PTR unsigned char  size(1) Largest target is 3
		 -> pcf8574_yaz_wEnable@writeBuffer(BANK0[3]), pcf8574_yaz@writeBuffer(BANK0[1]), 

    I2C1_MasterWriteTRBBuild@ptrb.pbuffer	PTR unsigned char  size(1) Largest target is 3
		 -> pcf8574_yaz_wEnable@status(BANK0[1]), pcf8574_yaz_wEnable@writeBuffer(BANK0[3]), pcf8574_yaz@status(BANK0[1]), pcf8574_yaz@writeBuffer(BANK0[1]), 

    I2C1_MasterWriteTRBBuild@ptrb	PTR struct . size(1) Largest target is 5
		 -> I2C1_MasterWrite@trBlock(BANK0[4]), 

    I2C1_MasterReadTRBBuild@ptrb.pbuffer	PTR unsigned char  size(1) Largest target is 3
		 -> pcf8574_yaz_wEnable@status(BANK0[1]), pcf8574_yaz_wEnable@writeBuffer(BANK0[3]), pcf8574_yaz@status(BANK0[1]), pcf8574_yaz@writeBuffer(BANK0[1]), 

    i2c1_object.pTrTail.ptrb_list.pbuffer	PTR unsigned char  size(1) Largest target is 3
		 -> pcf8574_yaz_wEnable@status(BANK0[1]), pcf8574_yaz_wEnable@writeBuffer(BANK0[3]), pcf8574_yaz@status(BANK0[1]), pcf8574_yaz@writeBuffer(BANK0[1]), 

    i2c1_object.pTrTail.pTrFlag	PTR enum E2799 size(1) Largest target is 3
		 -> pcf8574_yaz_wEnable@status(BANK0[1]), pcf8574_yaz_wEnable@writeBuffer(BANK0[3]), pcf8574_yaz@status(BANK0[1]), pcf8574_yaz@writeBuffer(BANK0[1]), 

    i2c1_object.pTrTail.ptrb_list	PTR struct . size(1) Largest target is 5
		 -> I2C1_MasterRead@trBlock(BANK0[4]), I2C1_MasterWrite@trBlock(BANK0[4]), 

    I2C1_MasterTRBInsert@ptrb_list	PTR struct . size(1) Largest target is 5
		 -> I2C1_MasterRead@trBlock(BANK0[4]), I2C1_MasterWrite@trBlock(BANK0[4]), 

    I2C1_MasterTRBInsert@pflag	PTR enum E2799 size(1) Largest target is 1
		 -> pcf8574_yaz_wEnable@status(BANK0[1]), pcf8574_yaz@status(BANK0[1]), 

    F2911.pbuffer	PTR unsigned char  size(1) Largest target is 3
		 -> pcf8574_yaz_wEnable@status(BANK0[1]), pcf8574_yaz_wEnable@writeBuffer(BANK0[3]), pcf8574_yaz@status(BANK0[1]), pcf8574_yaz@writeBuffer(BANK0[1]), 

    I2C1_MasterWrite@pflag	PTR enum E2799 size(1) Largest target is 1
		 -> pcf8574_yaz_wEnable@status(BANK0[1]), pcf8574_yaz@status(BANK0[1]), 

    I2C1_MasterWrite@pdata	PTR unsigned char  size(1) Largest target is 3
		 -> pcf8574_yaz_wEnable@writeBuffer(BANK0[3]), pcf8574_yaz@writeBuffer(BANK0[1]), 

    F2906.pbuffer	PTR unsigned char  size(1) Largest target is 3
		 -> pcf8574_yaz_wEnable@status(BANK0[1]), pcf8574_yaz_wEnable@writeBuffer(BANK0[3]), pcf8574_yaz@status(BANK0[1]), pcf8574_yaz@writeBuffer(BANK0[1]), 

    I2C1_ISR@pi2c_buf_ptr	PTR unsigned char  size(1) Largest target is 3
		 -> pcf8574_yaz_wEnable@status(BANK0[1]), pcf8574_yaz_wEnable@writeBuffer(BANK0[3]), pcf8574_yaz@status(BANK0[1]), pcf8574_yaz@writeBuffer(BANK0[1]), 
		 -> NULL(NULL[0]), 

    p_i2c1_trb_current.pbuffer	PTR unsigned char  size(1) Largest target is 3
		 -> pcf8574_yaz_wEnable@status(BANK0[1]), pcf8574_yaz_wEnable@writeBuffer(BANK0[3]), pcf8574_yaz@status(BANK0[1]), pcf8574_yaz@writeBuffer(BANK0[1]), 

    p_i2c1_trb_current	PTR struct . size(1) Largest target is 5
		 -> I2C1_MasterRead@trBlock(BANK0[4]), I2C1_MasterWrite@trBlock(BANK0[4]), NULL(NULL[0]), 

    i2c1_object.pTrHead.pTrFlag	PTR enum E2799 size(1) Largest target is 3
		 -> pcf8574_yaz_wEnable@status(BANK0[1]), pcf8574_yaz_wEnable@writeBuffer(BANK0[3]), pcf8574_yaz@status(BANK0[1]), pcf8574_yaz@writeBuffer(BANK0[1]), 

    i2c1_object.pTrHead.ptrb_list	PTR struct . size(1) Largest target is 5
		 -> I2C1_MasterRead@trBlock(BANK0[4]), I2C1_MasterWrite@trBlock(BANK0[4]), 

    S258$pbuffer	PTR unsigned char  size(1) Largest target is 3
		 -> pcf8574_yaz_wEnable@status(BANK0[1]), pcf8574_yaz_wEnable@writeBuffer(BANK0[3]), pcf8574_yaz@status(BANK0[1]), pcf8574_yaz@writeBuffer(BANK0[1]), 

    p_i2c1_current.pbuffer	PTR unsigned char  size(1) Largest target is 3
		 -> pcf8574_yaz_wEnable@status(BANK0[1]), pcf8574_yaz_wEnable@writeBuffer(BANK0[3]), pcf8574_yaz@status(BANK0[1]), pcf8574_yaz@writeBuffer(BANK0[1]), 

    S270$pTrFlag	PTR enum E2799 size(1) Largest target is 3
		 -> pcf8574_yaz_wEnable@status(BANK0[1]), pcf8574_yaz_wEnable@writeBuffer(BANK0[3]), pcf8574_yaz@status(BANK0[1]), pcf8574_yaz@writeBuffer(BANK0[1]), 

    p_i2c1_current.pTrFlag	PTR enum E2799 size(1) Largest target is 3
		 -> pcf8574_yaz_wEnable@status(BANK0[1]), pcf8574_yaz_wEnable@writeBuffer(BANK0[3]), pcf8574_yaz@status(BANK0[1]), pcf8574_yaz@writeBuffer(BANK0[1]), 

    S270$ptrb_list	PTR struct . size(1) Largest target is 5
		 -> I2C1_MasterRead@trBlock(BANK0[4]), I2C1_MasterWrite@trBlock(BANK0[4]), 

    p_i2c1_current.ptrb_list	PTR struct . size(1) Largest target is 5
		 -> I2C1_MasterRead@trBlock(BANK0[4]), I2C1_MasterWrite@trBlock(BANK0[4]), 

    p_i2c1_current	PTR struct . size(1) Largest target is 5
		 -> i2c1_tr_queue(BANK0[3]), NULL(NULL[0]), 

    S281$pTrHead	PTR struct . size(1) Largest target is 5
		 -> i2c1_tr_queue(BANK0[3]), 

    i2c1_object.pTrHead	PTR struct . size(1) Largest target is 5
		 -> i2c1_tr_queue(BANK0[3]), 

    S281$pTrTail	PTR struct . size(1) Largest target is 5
		 -> i2c1_tr_queue(BANK0[3]), 

    i2c1_object.pTrTail	PTR struct . size(1) Largest target is 5
		 -> i2c1_tr_queue(BANK0[3]), 


Critical Paths under _main in COMMON

    None.

Critical Paths under _INTERRUPT_InterruptManager in COMMON

    _INTERRUPT_InterruptManager->_I2C1_ISR
    _I2C1_ISR->_I2C1_Stop

Critical Paths under _main in BANK0

    _main->_printf
    _printf->_putch
    _putch->_lcd_harfyaz
    ___lwmod->___lwdiv
    _lcd_mesajyaz->_lcd_git
    _lcd_harfyaz->_pcf8574_yaz_wEnable
    _lcd_git->_lcd_komut
    _lcd_baslat->_lcd_komut
    _lcd_sil->_lcd_komut
    _lcd_komut->_pcf8574_yaz_wEnable
    _pcf8574_yaz_wEnable->_I2C1_MasterWrite
    _lcd_aydinlatma_ac->_pcf8574_yaz
    _lcd_aydinlatma_kapat->_pcf8574_yaz
    _pcf8574_yaz->_I2C1_MasterWrite
    _I2C1_MasterWrite->_I2C1_MasterWriteTRBBuild
    _SYSTEM_Initialize->_I2C1_Initialize

Critical Paths under _INTERRUPT_InterruptManager in BANK0

    None.

Critical Paths under _main in BANK1

    None.

Critical Paths under _INTERRUPT_InterruptManager in BANK1

    None.

Critical Paths under _main in BANK2

    None.

Critical Paths under _INTERRUPT_InterruptManager in BANK2

    None.

Critical Paths under _main in BANK3

    None.

Critical Paths under _INTERRUPT_InterruptManager in BANK3

    None.

Critical Paths under _main in BANK4

    None.

Critical Paths under _INTERRUPT_InterruptManager in BANK4

    None.

Call Graph Tables:

 ---------------------------------------------------------------------------------
 (Depth) Function   	        Calls       Base Space   Used Autos Params    Refs
 ---------------------------------------------------------------------------------
 (0) _main                                                 3     3      0   17399
                                             40 BANK0      3     3      0
                  _SYSTEM_Initialize
                  _lcd_aydinlatma_ac
               _lcd_aydinlatma_kapat
                         _lcd_baslat
                            _lcd_git
                       _lcd_mesajyaz
                             _printf
 ---------------------------------------------------------------------------------
 (1) _printf                                              22    18      4    2602
                                             26 BANK0     14    10      4
                            ___lwdiv
                            ___lwmod
                              _putch
 ---------------------------------------------------------------------------------
 (2) _putch                                                1     1      0    1441
                                             25 BANK0      1     1      0
                        _lcd_harfyaz
 ---------------------------------------------------------------------------------
 (2) ___lwmod                                              6     2      4     265
                                              8 BANK0      6     2      4
                            ___lwdiv (ARG)
 ---------------------------------------------------------------------------------
 (2) ___lwdiv                                              8     4      4     268
                                              0 BANK0      8     4      4
 ---------------------------------------------------------------------------------
 (1) _lcd_mesajyaz                                         5     2      3    3535
                                             29 BANK0      5     2      3
                            _lcd_git
                        _lcd_harfyaz
 ---------------------------------------------------------------------------------
 (3) _lcd_harfyaz                                          3     3      0    1410
                                             22 BANK0      3     3      0
                       _lcd_mesgulmu
                _pcf8574_yaz_wEnable
 ---------------------------------------------------------------------------------
 (2) _lcd_git                                              4     3      1    1738
                                             25 BANK0      4     3      1
                          _lcd_komut
 ---------------------------------------------------------------------------------
 (1) _lcd_baslat                                           1     1      0    6812
                                             25 BANK0      1     1      0
                  _lcd_aydinlatma_ac
                          _lcd_komut
                            _lcd_sil
                        _pcf8574_yaz
                _pcf8574_yaz_wEnable
 ---------------------------------------------------------------------------------
 (2) _lcd_sil                                              0     0      0    1410
                          _lcd_komut
 ---------------------------------------------------------------------------------
 (3) _lcd_komut                                            3     3      0    1410
                                             22 BANK0      3     3      0
                       _lcd_mesgulmu
                _pcf8574_yaz_wEnable
 ---------------------------------------------------------------------------------
 (4) _pcf8574_yaz_wEnable                                  8     8      0    1348
                                             14 BANK0      8     8      0
                   _I2C1_MasterWrite
 ---------------------------------------------------------------------------------
 (4) _lcd_mesgulmu                                         0     0      0       0
 ---------------------------------------------------------------------------------
 (2) _lcd_aydinlatma_ac                                    0     0      0    1322
                        _pcf8574_yaz
 ---------------------------------------------------------------------------------
 (1) _lcd_aydinlatma_kapat                                 0     0      0    1322
                        _pcf8574_yaz
 ---------------------------------------------------------------------------------
 (2) _pcf8574_yaz                                          6     6      0    1322
                                             14 BANK0      6     6      0
                   _I2C1_MasterWrite
 ---------------------------------------------------------------------------------
 (5) _I2C1_MasterWrite                                     7     3      4    1144
                                              7 BANK0      7     3      4
               _I2C1_MasterTRBInsert
           _I2C1_MasterWriteTRBBuild
 ---------------------------------------------------------------------------------
 (6) _I2C1_MasterWriteTRBBuild                             7     3      4     318
                                              0 BANK0      7     3      4
 ---------------------------------------------------------------------------------
 (6) _I2C1_MasterTRBInsert                                 4     2      2     344
                                              0 BANK0      4     2      2
 ---------------------------------------------------------------------------------
 (1) _SYSTEM_Initialize                                    0     0      0       0
                    _I2C1_Initialize
              _OSCILLATOR_Initialize
             _PIN_MANAGER_Initialize
                     _WDT_Initialize
 ---------------------------------------------------------------------------------
 (2) _WDT_Initialize                                       0     0      0       0
 ---------------------------------------------------------------------------------
 (2) _PIN_MANAGER_Initialize                               0     0      0       0
 ---------------------------------------------------------------------------------
 (2) _OSCILLATOR_Initialize                                0     0      0       0
 ---------------------------------------------------------------------------------
 (2) _I2C1_Initialize                                      1     1      0       0
                                              0 BANK0      1     1      0
 ---------------------------------------------------------------------------------
 Estimated maximum stack depth 6
 ---------------------------------------------------------------------------------
 (Depth) Function   	        Calls       Base Space   Used Autos Params    Refs
 ---------------------------------------------------------------------------------
 (7) _INTERRUPT_InterruptManager                           1     1      0      22
                                              6 COMMON     1     1      0
               _I2C1_BusCollisionISR
                           _I2C1_ISR
 ---------------------------------------------------------------------------------
 (8) _I2C1_ISR                                             4     4      0      22
                                              2 COMMON     4     4      0
              _I2C1_FunctionComplete
                          _I2C1_Stop
 ---------------------------------------------------------------------------------
 (9) _I2C1_Stop                                            2     2      0      22
                                              0 COMMON     2     2      0
 ---------------------------------------------------------------------------------
 (9) _I2C1_FunctionComplete                                1     1      0       0
                                              0 COMMON     1     1      0
 ---------------------------------------------------------------------------------
 (8) _I2C1_BusCollisionISR                                 0     0      0       0
 ---------------------------------------------------------------------------------
 Estimated maximum stack depth 9
 ---------------------------------------------------------------------------------

 Call Graph Graphs:

 _main (ROOT)
   _SYSTEM_Initialize
     _I2C1_Initialize
     _OSCILLATOR_Initialize
     _PIN_MANAGER_Initialize
     _WDT_Initialize
   _lcd_aydinlatma_ac
     _pcf8574_yaz
       _I2C1_MasterWrite
         _I2C1_MasterTRBInsert
         _I2C1_MasterWriteTRBBuild
   _lcd_aydinlatma_kapat
     _pcf8574_yaz
       _I2C1_MasterWrite
         _I2C1_MasterTRBInsert
         _I2C1_MasterWriteTRBBuild
   _lcd_baslat
     _lcd_aydinlatma_ac
       _pcf8574_yaz
         _I2C1_MasterWrite
           _I2C1_MasterTRBInsert
           _I2C1_MasterWriteTRBBuild
     _lcd_komut
       _lcd_mesgulmu
       _pcf8574_yaz_wEnable
         _I2C1_MasterWrite
           _I2C1_MasterTRBInsert
           _I2C1_MasterWriteTRBBuild
     _lcd_sil
       _lcd_komut
         _lcd_mesgulmu
         _pcf8574_yaz_wEnable
           _I2C1_MasterWrite
             _I2C1_MasterTRBInsert
             _I2C1_MasterWriteTRBBuild
     _pcf8574_yaz
       _I2C1_MasterWrite
         _I2C1_MasterTRBInsert
         _I2C1_MasterWriteTRBBuild
     _pcf8574_yaz_wEnable
       _I2C1_MasterWrite
         _I2C1_MasterTRBInsert
         _I2C1_MasterWriteTRBBuild
   _lcd_git
     _lcd_komut
       _lcd_mesgulmu
       _pcf8574_yaz_wEnable
         _I2C1_MasterWrite
           _I2C1_MasterTRBInsert
           _I2C1_MasterWriteTRBBuild
   _lcd_mesajyaz
     _lcd_git
       _lcd_komut
         _lcd_mesgulmu
         _pcf8574_yaz_wEnable
           _I2C1_MasterWrite
             _I2C1_MasterTRBInsert
             _I2C1_MasterWriteTRBBuild
     _lcd_harfyaz
       _lcd_mesgulmu
       _pcf8574_yaz_wEnable
         _I2C1_MasterWrite
           _I2C1_MasterTRBInsert
           _I2C1_MasterWriteTRBBuild
   _printf
     ___lwdiv
     ___lwmod
       ___lwdiv (ARG)
     _putch
       _lcd_harfyaz
         _lcd_mesgulmu
         _pcf8574_yaz_wEnable
           _I2C1_MasterWrite
             _I2C1_MasterTRBInsert
             _I2C1_MasterWriteTRBBuild

 _INTERRUPT_InterruptManager (ROOT)
   _I2C1_BusCollisionISR
   _I2C1_ISR
     _I2C1_FunctionComplete
     _I2C1_Stop

 Address spaces:
Name               Size   Autos  Total    Cost      Usage
BIGRAM             170      0       0       0        0.0%
EEDATA             100      0       0       0        0.0%
NULL                 0      0       0       0        0.0%
CODE                 0      0       0       0        0.0%
BITCOMMON            E      0       0       1        0.0%
BITSFR0              0      0       0       1        0.0%
SFR0                 0      0       0       1        0.0%
COMMON               E      7       E       2      100.0%
BITSFR1              0      0       0       2        0.0%
SFR1                 0      0       0       2        0.0%
BITSFR2              0      0       0       3        0.0%
SFR2                 0      0       0       3        0.0%
STACK                0      0       0       3        0.0%
BITSFR3              0      0       0       4        0.0%
SFR3                 0      0       0       4        0.0%
ABS                  0      0      4F       4        0.0%
BITBANK0            50      0       0       5        0.0%
BITSFR4              0      0       0       5        0.0%
SFR4                 0      0       0       5        0.0%
BANK0               50     2B      41       6       81.3%
BITSFR5              0      0       0       6        0.0%
SFR5                 0      0       0       6        0.0%
BITBANK1            50      0       0       7        0.0%
BITSFR6              0      0       0       7        0.0%
SFR6                 0      0       0       7        0.0%
BANK1               50      0       0       8        0.0%
BITSFR7              0      0       0       8        0.0%
SFR7                 0      0       0       8        0.0%
BITBANK2            50      0       0       9        0.0%
BITSFR8              0      0       0       9        0.0%
SFR8                 0      0       0       9        0.0%
BANK2               50      0       0      10        0.0%
BITSFR9              0      0       0      10        0.0%
SFR9                 0      0       0      10        0.0%
BITBANK3            50      0       0      11        0.0%
BITSFR10             0      0       0      11        0.0%
SFR10                0      0       0      11        0.0%
BANK3               50      0       0      12        0.0%
BITSFR11             0      0       0      12        0.0%
SFR11                0      0       0      12        0.0%
BITBANK4            30      0       0      13        0.0%
BITSFR12             0      0       0      13        0.0%
SFR12                0      0       0      13        0.0%
BANK4               30      0       0      14        0.0%
BITSFR13             0      0       0      14        0.0%
SFR13                0      0       0      14        0.0%
BITSFR14             0      0       0      15        0.0%
SFR14                0      0       0      15        0.0%
DATA                 0      0      4F      15        0.0%
BITSFR15             0      0       0      16        0.0%
SFR15                0      0       0      16        0.0%
BITSFR16             0      0       0      17        0.0%
SFR16                0      0       0      17        0.0%
BITSFR17             0      0       0      18        0.0%
SFR17                0      0       0      18        0.0%
BITSFR18             0      0       0      19        0.0%
SFR18                0      0       0      19        0.0%
BITSFR19             0      0       0      20        0.0%
SFR19                0      0       0      20        0.0%
BITSFR20             0      0       0      21        0.0%
SFR20                0      0       0      21        0.0%
BITSFR21             0      0       0      22        0.0%
SFR21                0      0       0      22        0.0%
BITSFR22             0      0       0      23        0.0%
SFR22                0      0       0      23        0.0%
BITSFR23             0      0       0      24        0.0%
SFR23                0      0       0      24        0.0%
BITSFR24             0      0       0      25        0.0%
SFR24                0      0       0      25        0.0%
BITSFR25             0      0       0      26        0.0%
SFR25                0      0       0      26        0.0%
BITSFR26             0      0       0      27        0.0%
SFR26                0      0       0      27        0.0%
BITSFR27             0      0       0      28        0.0%
SFR27                0      0       0      28        0.0%
BITSFR28             0      0       0      29        0.0%
SFR28                0      0       0      29        0.0%
BITSFR29             0      0       0      30        0.0%
SFR29                0      0       0      30        0.0%
BITSFR30             0      0       0      31        0.0%
SFR30                0      0       0      31        0.0%
BITSFR31             0      0       0      32        0.0%
SFR31                0      0       0      32        0.0%


Microchip Technology PIC Macro Assembler V1.42 build -159332390 
Symbol Table                                                                                   Fri Jul 07 14:13:19 2017

                                  pc 0002                          __CFG_CP$OFF 0000  
                                 l22 058F                          lcd_git@temp 003C  
                                l317 04B5                                  l419 022A  
                       __CFG_CPD$OFF 0000                                  u915 03A7  
                                u935 03B1                                  u945 03BB  
                                u955 03C3                                  u985 040C  
                       __CFG_BORV$LO 0000                                  wreg 0009  
                       __CFG_IESO$ON 0000                         lcd_git@satir 003B  
                       lcd_git@sutun 0039                 _display_kursor_blink 0052  
                       __CFG_LVP$OFF 0000                     __end_of_I2C1_ISR 0173  
                               l2231 01AD                                 l1513 02DC  
                               l2241 01C3                                 l2225 0194  
                               l1523 02EF                                 l2171 0463  
                               l1517 02E3                                 l1541 0389  
                               l2173 0466                                 l1701 03A4  
                               l2253 01E8                                 l1519 02E8  
                               l2167 045D                                 l1703 03B0  
                               l2263 01F5                                 l2247 01C9  
                               l1529 04A4                                 l2169 0460  
                               l2177 046C                                 l1713 03CB  
                               l2257 01F0                                 l2265 0178  
                               l1555 0376                                 l2179 047A  
                               l1731 0421                                 l1565 0448  
                               l1709 03C2                                 l1725 0409  
                               l2285 0251                                 l1727 0415  
                               l1735 042A                                 l2295 027A  
                               l1579 0437                                 STR_1 04F5  
                               STR_2 0584                                 STR_3 05B7  
                               u1005 041B                                 u1015 0422  
                               _LATA 010C                                 _LATB 010D  
                               u1415 034F                                 u1425 03EE  
                               u1607 025A                                 u1617 026A  
                               u1707 0346                                 u1627 0280  
                               u1717 035F                                 u1637 03E4  
                               u1485 01DE                                 u1727 05AB  
                               u1647 03FB                                 u1657 047F  
                               u1667 0307                                 u1677 0311  
                               u1597 0236                                 u1687 0319  
                               u1697 0324                                 i1l75 0015  
                               i1l79 001F                                 _PLLR 04D6  
                               _WPUA 020C                                 _WPUB 020D  
                       __CFG_WRT$OFF 0000                        __CFG_FCMEN$ON 0000  
                               _main 022B                                 fsr0h 0005  
                               fsr1h 0007                                 indf0 0000  
                               fsr0l 0004                                 indf1 0001  
                               fsr1l 0006               ??_I2C1_MasterTRBInsert 0022  
                               btemp 007E                        __CFG_BOREN$ON 0000  
                               start 0024                       ??_lcd_mesajyaz 0040  
                     ??_lcd_mesgulmu 0020       I2C1_MasterWriteTRBBuild@length 0021  
                         _i2c1_state 0054                        __CFG_PLLEN$ON 0000  
     __size_of_OSCILLATOR_Initialize 0007            I2C1_MasterTRBInsert@count 0023  
      __end_of_OSCILLATOR_Initialize 0592            I2C1_MasterTRBInsert@pflag 0021  
                              ?_main 0077                    __end_of_I2C1_Stop 0566  
                      __CFG_WDTE$OFF 0000                      __end_of___lwdiv 03D0  
                              i1l150 00A1                                i1l151 00AD  
                              i1l144 0076                                i1l161 00EF  
                              i1l145 007E                                i1l139 004B  
                              i1l180 0574                                i1l173 0154  
                              i1l165 010E                                i1l168 0121  
                              i1l169 012F                      __end_of___lwmod 042F  
                              _TRISA 008C                                _TRISB 008D  
          pcf8574_yaz_wEnable@status 0035         __end_of_I2C1_BusCollisionISR 05BB  
                  ??_I2C1_Initialize 0020                      __end_of_lcd_git 0483  
                    __end_of_lcd_sil 05B3                 __size_of_pcf8574_yaz 002B  
                    __end_of_dpowers 04F5                       _WDT_Initialize 05B3  
                              _sayac 0050                                _putch 0598  
                              main@i 004A                                status 0003  
                              wtemp0 007E                      pcf8574_yaz@veri 002F  
                  lcd_mesajyaz@mesaj 003E                    lcd_mesajyaz@satir 0041  
    I2C1_MasterWriteTRBBuild@address 0022                    lcd_mesajyaz@sutun 003D  
                     __CFG_MCLRE$OFF 0000                      __initialization 0026  
              I2C1_MasterWrite@pdata 002D                I2C1_MasterWrite@pflag 002A  
                       __end_of_main 02AF          ?_INTERRUPT_InterruptManager 0077  
      __size_of_lcd_aydinlatma_kapat 0006                          _i2c1_object 004B  
                             ??_main 0048         __size_of_pcf8574_yaz_wEnable 0036  
             __end_of_WDT_Initialize 05B7                               i1S2387 0536  
                             _ANSELA 018C                               ?_putch 0077  
                             _ANSELB 018D                               i1l1831 00FD  
                             i1l1823 00E9                               i1l1817 00DE  
                             i1l1659 0563                               i1l1851 0136  
                             i1l1765 0069                               i1l1871 015E  
                             i1l1855 013D                               i1l1839 0116  
                             i1l1783 009B                               i1l1777 008A  
                             i1l1867 0157                               i1l1869 015A  
                             i1l1797 00CA                               i1l1877 0167  
                             _OSCCON 0099                               _WDTCON 0097  
                  ?_I2C1_MasterWrite 0027                       __CFG_PWRTE$OFF 0000  
                 ??_I2C1_MasterWrite 002B                 __size_of_lcd_harfyaz 0032  
                     _p_i2c1_current 0072                       __CFG_STVREN$ON 0000  
                          ??___lwdiv 0024                            ??___lwmod 002C  
         ??_I2C1_MasterWriteTRBBuild 0024                            ?_I2C1_ISR 0077  
                             _printf 0173                            ??_lcd_git 003A  
                          ??_lcd_sil 0039                 __end_of_lcd_mesajyaz 04CB  
                    ?_WDT_Initialize 0077                 __end_of_lcd_mesgulmu 05AF  
      I2C1_MasterWriteTRBBuild@pdata 0020                    _SYSTEM_Initialize 0578  
            __end_of__initialization 0034                   ?_SYSTEM_Initialize 0077  
                     _i2c1_trb_count 0074                _I2C1_FunctionComplete 0566  
               _I2C1_BusCollisionISR 05BA                       __pcstackCOMMON 0077  
             I2C1_MasterWrite@length 0027                  ??_SYSTEM_Initialize 0021  
                      __end_of_putch 059E                           ??_I2C1_ISR 0079  
                     _OPTION_REGbits 0095                   __size_of_lcd_komut 0036  
          __end_of_SYSTEM_Initialize 0584                              ??_putch 0039  
                         __pbssBANK0 004B                      lcd_harfyaz@harf 0038  
                     lcd_komut@komut 0038                ?_I2C1_BusCollisionISR 0077  
                         __pmaintext 022B                           __pintentry 0004  
                    _I2C1_Initialize 051E                              _APFCON0 011D  
                            _APFCON1 011E                              ?_printf 003A  
                         _lcd_baslat 02F4                            _I2C1_Stop 054E  
                            _OSCTUNE 0098                              _SSP1ADD 0212  
                            _SSP1BUF 0211        I2C1_MasterTRBInsert@ptrb_list 0020  
                _pcf8574_yaz_wEnable 0365               ?_I2C1_FunctionComplete 0077  
      __size_of_I2C1_MasterTRBInsert 0045                   _p_i2c1_trb_current 0073  
                  __end_of_lcd_komut 0365                              ___lwdiv 039B  
                            ___lwmod 0402                __size_of_lcd_mesajyaz 0020  
                            __ptext1 0173                              __ptext2 0598  
                            __ptext3 0402                              __ptext4 039B  
              __size_of_lcd_mesgulmu 0005                              __ptext5 04AB  
                            __ptext6 03D0                              __ptext7 045A  
                            __ptext8 02F4                              __ptext9 05AF  
                            _lcd_git 045A                      __size_of_printf 00B8  
                            _lcd_sil 05AF                        ??_pcf8574_yaz 002E  
               ?_pcf8574_yaz_wEnable 0077                              _dpowers 04EB  
              _OSCILLATOR_Initialize 058B             ??_PIN_MANAGER_Initialize 0020  
                         ?_I2C1_Stop 0077           __size_of_SYSTEM_Initialize 000C  
               I2C1_ISR@pi2c_buf_ptr 0071                              clrloop0 0593  
               end_of_initialization 0034         __end_of_lcd_aydinlatma_kapat 05AA  
             ??_I2C1_BusCollisionISR 0077              __end_of_I2C1_Initialize 0536  
                       _lcd_mesajyaz 04AB                         _lcd_mesgulmu 05AA  
                            printf@c 0047                              printf@f 003A  
                   ??_WDT_Initialize 0020            __size_of_I2C1_MasterWrite 0028  
              ??_pcf8574_yaz_wEnable 002E                    __size_of_I2C1_ISR 013B  
                        ?_lcd_baslat 0077                     __CFG_FOSC$INTOSC 0000  
                  pcf8574_yaz@status 0033                  __end_of_pcf8574_yaz 045A  
  I2C1_ISR@i2c_10bit_address_restart 0053                        ??_lcd_harfyaz 0036  
            I2C1_MasterWrite@address 0028              I2C1_MasterWrite@trBlock 0059  
           I2C1_Stop@completion_code 0078               ?_OSCILLATOR_Initialize 0077  
                     __end_of_printf 022B                  start_initialization 0026  
                        ??_I2C1_Stop 0077      __size_of_PIN_MANAGER_Initialize 0018  
  __size_of_I2C1_MasterWriteTRBBuild 0020                    _lcd_aydinlatma_ac 059E  
          ?_I2C1_MasterWriteTRBBuild 0020                   ?_lcd_aydinlatma_ac 0077  
                   ?_I2C1_Initialize 0077                  __size_of_lcd_baslat 003B  
                ??_lcd_aydinlatma_ac 0034                  __end_of_lcd_harfyaz 0402  
               _lcd_aydinlatma_kapat 05A4                             ??_printf 003E  
       I2C1_MasterWriteTRBBuild@ptrb 0026                          _pcf8574_yaz 042F  
                        __pbssCOMMON 0070                            ___latbits 0001  
                      __pcstackBANK0 0020            __end_of_lcd_aydinlatma_ac 05A4  
                      _i2c1_tr_queue 005D              ??_I2C1_FunctionComplete 0077  
                   ___lwdiv@dividend 0022               _PIN_MANAGER_Initialize 0506  
     pcf8574_yaz_wEnable@writeBuffer 0032                             ?___lwdiv 0020  
                           ?___lwmod 0028                ?_lcd_aydinlatma_kapat 0077  
                           _I2C1_ISR 0038         ??_INTERRUPT_InterruptManager 007D  
                          _lcd_komut 032F                            __pswtext1 0536  
                           ?_lcd_git 0039                     _I2C1_MasterWrite 0483  
                           ?_lcd_sil 0077         __end_of_I2C1_MasterTRBInsert 02F4  
                   ___lwdiv@quotient 0025                       __size_of_putch 0006  
             I2C1_MasterRead@trBlock 0055                            clear_ram0 0592  
                           _PIE1bits 0091                             _PIE2bits 0092  
                        _lcd_harfyaz 03D0  __size_of_INTERRUPT_InterruptManager 0020  
                           _PIR1bits 0011                             _PIR2bits 0012  
                           _SSP1CON1 0215                             _SSP1CON3 0217  
                           _SSP1STAT 0214                           ?_lcd_komut 0077  
                       ??_lcd_baslat 0039                           printf@flag 0043  
                         printf@prec 0044           __size_of_lcd_aydinlatma_ac 0006  
         pcf8574_yaz_wEnable@timeOut 0030        __size_of_I2C1_BusCollisionISR 0001  
                 __end_of_lcd_baslat 032F               I2C1_ISR@i2c_bytes_left 0070  
        __end_of_pcf8574_yaz_wEnable 039B               ??_lcd_aydinlatma_kapat 0034  
            ??_OSCILLATOR_Initialize 0020                     __size_of___lwdiv 0035  
                   __size_of___lwmod 002D     __end_of_I2C1_MasterWriteTRBBuild 04EB  
                   __size_of_lcd_git 0029                     __size_of_lcd_sil 0004  
                    ___lwdiv@divisor 0020                  I2C1_ISR@i2c_address 0075  
                    ___lwdiv@counter 0027                             __ptext10 032F  
                           __ptext11 0365                             __ptext20 05B3  
                           __ptext12 05AA                             __ptext21 0506  
                           __ptext13 059E                             __ptext22 058B  
                           __ptext14 05A4                             __ptext23 051E  
                           __ptext15 042F                             __ptext16 0483  
                           __ptext25 0038                             __ptext17 04CB  
                           __ptext26 054E                             __ptext18 02AF  
                           __ptext27 0566                             __ptext19 0578  
                           __ptext28 05BA                         _SSP1CON1bits 0215  
                       _SSP1CON2bits 0216                             _pcf_port 0060  
                      __size_of_main 0084                 _I2C1_MasterTRBInsert 02AF  
                           int$flags 007E   __end_of_INTERRUPT_InterruptManager 0024  
         _INTERRUPT_InterruptManager 0004                            printf@val 0045  
                        ??_lcd_komut 0036                         ?_pcf8574_yaz 0077  
                          putch@byte 0039                           _INTCONbits 000B  
             pcf8574_yaz@writeBuffer 0032              __size_of_WDT_Initialize 0004  
                           intlevel1 0000                     ___lwmod@dividend 002A  
            ?_PIN_MANAGER_Initialize 0077             __end_of_I2C1_MasterWrite 04AB  
                  __CFG_CLKOUTEN$OFF 0000       __size_of_I2C1_FunctionComplete 0012  
      __end_of_I2C1_FunctionComplete 0578                ?_I2C1_MasterTRBInsert 0020  
                           printf@ap 0042             __size_of_I2C1_Initialize 0018  
                      __pstringtext1 04EB                        __pstringtext2 0584  
                      __pstringtext3 05B7                        __pstringtext4 0000  
                    ___lwmod@divisor 0028                      ___lwmod@counter 002D  
           _I2C1_MasterWriteTRBBuild 04CB       __end_of_PIN_MANAGER_Initialize 051E  
                 pcf8574_yaz@timeOut 0030                   __size_of_I2C1_Stop 0018  
                       ?_lcd_harfyaz 0077                        ?_lcd_mesajyaz 003D  
                      ?_lcd_mesgulmu 0077  
